ARM GAS  C:\Users\D4DE~1\AppData\Local\Temp\cccuUyWy.s 			page 1


   1              		.syntax unified
   2              		.cpu cortex-m0plus
   3              		.fpu softvfp
   4              		.eabi_attribute 20, 1
   5              		.eabi_attribute 21, 1
   6              		.eabi_attribute 23, 3
   7              		.eabi_attribute 24, 1
   8              		.eabi_attribute 25, 1
   9              		.eabi_attribute 26, 1
  10              		.eabi_attribute 30, 1
  11              		.eabi_attribute 34, 0
  12              		.eabi_attribute 18, 4
  13              		.thumb
  14              		.syntax unified
  15              		.file	"cy_ble_event_handler.c"
  16              		.text
  17              	.Ltext0:
  18              		.cfi_sections	.debug_frame
  19              		.section	.text.Cy_BLE_SendWriteResponse,"ax",%progbits
  20              		.align	2
  21              		.code	16
  22              		.thumb_func
  23              		.type	Cy_BLE_SendWriteResponse, %function
  24              	Cy_BLE_SendWriteResponse:
  25              	.LFB170:
  26              		.file 1 "Generated_Source\\PSoC6\\pdl\\middleware\\ble\\cy_ble_event_handler.c"
   1:Generated_Source\PSoC6\pdl\middleware\ble/cy_ble_event_handler.c **** /***************************************************************************//**
   2:Generated_Source\PSoC6\pdl\middleware\ble/cy_ble_event_handler.c **** * \file cy_ble_event_handler.c
   3:Generated_Source\PSoC6\pdl\middleware\ble/cy_ble_event_handler.c **** * \version 2.60
   4:Generated_Source\PSoC6\pdl\middleware\ble/cy_ble_event_handler.c **** *
   5:Generated_Source\PSoC6\pdl\middleware\ble/cy_ble_event_handler.c **** * \brief
   6:Generated_Source\PSoC6\pdl\middleware\ble/cy_ble_event_handler.c **** *  This file contains the source code for the Event Handler State Machine
   7:Generated_Source\PSoC6\pdl\middleware\ble/cy_ble_event_handler.c **** *  of the BLE Middleware.
   8:Generated_Source\PSoC6\pdl\middleware\ble/cy_ble_event_handler.c **** *
   9:Generated_Source\PSoC6\pdl\middleware\ble/cy_ble_event_handler.c **** ********************************************************************************
  10:Generated_Source\PSoC6\pdl\middleware\ble/cy_ble_event_handler.c **** * \copyright
  11:Generated_Source\PSoC6\pdl\middleware\ble/cy_ble_event_handler.c **** * Copyright 2017-2020, Cypress Semiconductor Corporation.  All rights reserved.
  12:Generated_Source\PSoC6\pdl\middleware\ble/cy_ble_event_handler.c **** * You may use this file only in accordance with the license, terms, conditions,
  13:Generated_Source\PSoC6\pdl\middleware\ble/cy_ble_event_handler.c **** * disclaimers, and limitations in the end user license agreement accompanying
  14:Generated_Source\PSoC6\pdl\middleware\ble/cy_ble_event_handler.c **** * the software package with which this file was provided.
  15:Generated_Source\PSoC6\pdl\middleware\ble/cy_ble_event_handler.c **** *******************************************************************************/
  16:Generated_Source\PSoC6\pdl\middleware\ble/cy_ble_event_handler.c **** 
  17:Generated_Source\PSoC6\pdl\middleware\ble/cy_ble_event_handler.c **** #include "cy_ble_event_handler.h"
  18:Generated_Source\PSoC6\pdl\middleware\ble/cy_ble_event_handler.c **** 
  19:Generated_Source\PSoC6\pdl\middleware\ble/cy_ble_event_handler.c **** /* C binding of definitions if building with C++ compiler */
  20:Generated_Source\PSoC6\pdl\middleware\ble/cy_ble_event_handler.c **** #ifdef __cplusplus
  21:Generated_Source\PSoC6\pdl\middleware\ble/cy_ble_event_handler.c **** extern "C" {
  22:Generated_Source\PSoC6\pdl\middleware\ble/cy_ble_event_handler.c **** #endif /* __cplusplus */
  23:Generated_Source\PSoC6\pdl\middleware\ble/cy_ble_event_handler.c **** 
  24:Generated_Source\PSoC6\pdl\middleware\ble/cy_ble_event_handler.c **** #if (CY_BLE_MODE_PROFILE)
  25:Generated_Source\PSoC6\pdl\middleware\ble/cy_ble_event_handler.c **** 
  26:Generated_Source\PSoC6\pdl\middleware\ble/cy_ble_event_handler.c **** /***************************************
  27:Generated_Source\PSoC6\pdl\middleware\ble/cy_ble_event_handler.c **** * Private Function Prototypes
  28:Generated_Source\PSoC6\pdl\middleware\ble/cy_ble_event_handler.c **** ***************************************/
  29:Generated_Source\PSoC6\pdl\middleware\ble/cy_ble_event_handler.c **** 
  30:Generated_Source\PSoC6\pdl\middleware\ble/cy_ble_event_handler.c **** static void Cy_BLE_TimeOutEventHandler(const cy_stc_ble_timeout_param_t *eventParam);
  31:Generated_Source\PSoC6\pdl\middleware\ble/cy_ble_event_handler.c **** 
ARM GAS  C:\Users\D4DE~1\AppData\Local\Temp\cccuUyWy.s 			page 2


  32:Generated_Source\PSoC6\pdl\middleware\ble/cy_ble_event_handler.c **** #if (CY_BLE_GATT_ROLE_SERVER)
  33:Generated_Source\PSoC6\pdl\middleware\ble/cy_ble_event_handler.c **** static void Cy_BLE_SendWriteResponse(const cy_stc_ble_gatts_write_cmd_req_param_t *eventParam,
  34:Generated_Source\PSoC6\pdl\middleware\ble/cy_ble_event_handler.c ****                                      cy_en_ble_gatt_err_code_t gattErr);
  35:Generated_Source\PSoC6\pdl\middleware\ble/cy_ble_event_handler.c **** #endif /* CY_BLE_GATT_ROLE_SERVER */
  36:Generated_Source\PSoC6\pdl\middleware\ble/cy_ble_event_handler.c **** 
  37:Generated_Source\PSoC6\pdl\middleware\ble/cy_ble_event_handler.c **** #if (CY_BLE_GATT_ROLE_CLIENT)
  38:Generated_Source\PSoC6\pdl\middleware\ble/cy_ble_event_handler.c **** static void Cy_BLE_GAPC_DiscoverCharacteristicsEventHandler(cy_stc_ble_disc_char_info_t *discCharIn
  39:Generated_Source\PSoC6\pdl\middleware\ble/cy_ble_event_handler.c **** #endif /* CY_BLE_GATT_ROLE_CLIENT */
  40:Generated_Source\PSoC6\pdl\middleware\ble/cy_ble_event_handler.c **** 
  41:Generated_Source\PSoC6\pdl\middleware\ble/cy_ble_event_handler.c **** 
  42:Generated_Source\PSoC6\pdl\middleware\ble/cy_ble_event_handler.c **** /***************************************
  43:Generated_Source\PSoC6\pdl\middleware\ble/cy_ble_event_handler.c **** * Global Variables
  44:Generated_Source\PSoC6\pdl\middleware\ble/cy_ble_event_handler.c **** ***************************************/
  45:Generated_Source\PSoC6\pdl\middleware\ble/cy_ble_event_handler.c **** volatile uint8_t cy_ble_busyStatus[CY_BLE_CONN_COUNT];
  46:Generated_Source\PSoC6\pdl\middleware\ble/cy_ble_event_handler.c **** volatile uint8_t cy_ble_eventHandlerFlag;
  47:Generated_Source\PSoC6\pdl\middleware\ble/cy_ble_event_handler.c **** volatile uint32_t cy_ble_cmdStatus;
  48:Generated_Source\PSoC6\pdl\middleware\ble/cy_ble_event_handler.c **** 
  49:Generated_Source\PSoC6\pdl\middleware\ble/cy_ble_event_handler.c **** #if (CY_BLE_GAP_ROLE_PERIPHERAL || CY_BLE_GAP_ROLE_BROADCASTER)
  50:Generated_Source\PSoC6\pdl\middleware\ble/cy_ble_event_handler.c **** uint8_t cy_ble_advertisingIntervalType;
  51:Generated_Source\PSoC6\pdl\middleware\ble/cy_ble_event_handler.c **** #endif /* CY_BLE_GAP_ROLE_PERIPHERAL || CY_BLE_GAP_ROLE_BROADCASTER) */
  52:Generated_Source\PSoC6\pdl\middleware\ble/cy_ble_event_handler.c **** 
  53:Generated_Source\PSoC6\pdl\middleware\ble/cy_ble_event_handler.c **** #if (CY_BLE_GAP_ROLE_CENTRAL || CY_BLE_GAP_ROLE_OBSERVER)
  54:Generated_Source\PSoC6\pdl\middleware\ble/cy_ble_event_handler.c **** uint8_t cy_ble_scanningIntervalType;
  55:Generated_Source\PSoC6\pdl\middleware\ble/cy_ble_event_handler.c **** #endif /* CY_BLE_GAP_ROLE_CENTRAL || CY_BLE_GAP_ROLE_OBSERVER */
  56:Generated_Source\PSoC6\pdl\middleware\ble/cy_ble_event_handler.c **** 
  57:Generated_Source\PSoC6\pdl\middleware\ble/cy_ble_event_handler.c **** #if (CY_BLE_GATT_ROLE_CLIENT)
  58:Generated_Source\PSoC6\pdl\middleware\ble/cy_ble_event_handler.c **** cy_stc_ble_discovery_t cy_ble_discovery[CY_BLE_GATTC_COUNT];
  59:Generated_Source\PSoC6\pdl\middleware\ble/cy_ble_event_handler.c **** cy_stc_ble_disc_srvc_info_t cy_ble_serverInfo[CY_BLE_GATTC_COUNT][CY_BLE_SRVI_COUNT];
  60:Generated_Source\PSoC6\pdl\middleware\ble/cy_ble_event_handler.c **** #endif /* CY_BLE_GATT_ROLE_CLIENT */
  61:Generated_Source\PSoC6\pdl\middleware\ble/cy_ble_event_handler.c **** 
  62:Generated_Source\PSoC6\pdl\middleware\ble/cy_ble_event_handler.c **** #if (CY_BLE_GAP_ROLE_PERIPHERAL || CY_BLE_GAP_ROLE_CENTRAL)
  63:Generated_Source\PSoC6\pdl\middleware\ble/cy_ble_event_handler.c **** cy_stc_ble_event_handler_t cy_ble_eventHandler;
  64:Generated_Source\PSoC6\pdl\middleware\ble/cy_ble_event_handler.c **** 
  65:Generated_Source\PSoC6\pdl\middleware\ble/cy_ble_event_handler.c **** 
  66:Generated_Source\PSoC6\pdl\middleware\ble/cy_ble_event_handler.c **** /******************************************************************************
  67:Generated_Source\PSoC6\pdl\middleware\ble/cy_ble_event_handler.c **** * Function Name: Cy_BLE_RegisterServiceEventHandler
  68:Generated_Source\PSoC6\pdl\middleware\ble/cy_ble_event_handler.c **** ***************************************************************************//**
  69:Generated_Source\PSoC6\pdl\middleware\ble/cy_ble_event_handler.c **** *
  70:Generated_Source\PSoC6\pdl\middleware\ble/cy_ble_event_handler.c **** *  Registration Service Event Handler
  71:Generated_Source\PSoC6\pdl\middleware\ble/cy_ble_event_handler.c **** *
  72:Generated_Source\PSoC6\pdl\middleware\ble/cy_ble_event_handler.c **** *  \param  eventHandlerFunc: The pointer to the callback procedure.
  73:Generated_Source\PSoC6\pdl\middleware\ble/cy_ble_event_handler.c **** *
  74:Generated_Source\PSoC6\pdl\middleware\ble/cy_ble_event_handler.c **** *  \return
  75:Generated_Source\PSoC6\pdl\middleware\ble/cy_ble_event_handler.c **** *  cy_en_ble_api_result_t : Return value indicates if the function succeeded or
  76:Generated_Source\PSoC6\pdl\middleware\ble/cy_ble_event_handler.c **** *  failed. The following are possible error codes.
  77:Generated_Source\PSoC6\pdl\middleware\ble/cy_ble_event_handler.c **** *
  78:Generated_Source\PSoC6\pdl\middleware\ble/cy_ble_event_handler.c **** *   Error Codes                           | Description
  79:Generated_Source\PSoC6\pdl\middleware\ble/cy_ble_event_handler.c **** *   ------------                          | -----------
  80:Generated_Source\PSoC6\pdl\middleware\ble/cy_ble_event_handler.c **** *   CY_BLE_SUCCESS                        | The function completed successfully.
  81:Generated_Source\PSoC6\pdl\middleware\ble/cy_ble_event_handler.c **** *   CY_BLE_ERROR_INVALID_PARAMETER        | On specifying NULL as input parameter.
  82:Generated_Source\PSoC6\pdl\middleware\ble/cy_ble_event_handler.c **** *   CY_BLE_ERROR_MEMORY_ALLOCATION_FAILED | Buffer overflow in the registration callback.
  83:Generated_Source\PSoC6\pdl\middleware\ble/cy_ble_event_handler.c **** *
  84:Generated_Source\PSoC6\pdl\middleware\ble/cy_ble_event_handler.c **** ******************************************************************************/
  85:Generated_Source\PSoC6\pdl\middleware\ble/cy_ble_event_handler.c **** cy_en_ble_api_result_t Cy_BLE_RegisterServiceEventHandler(cy_ble_event_handle_t eventHandlerFunc)
  86:Generated_Source\PSoC6\pdl\middleware\ble/cy_ble_event_handler.c **** {
  87:Generated_Source\PSoC6\pdl\middleware\ble/cy_ble_event_handler.c ****     cy_en_ble_api_result_t apiResult = CY_BLE_SUCCESS;
  88:Generated_Source\PSoC6\pdl\middleware\ble/cy_ble_event_handler.c ****     uint8_t existFlag = 0u;
ARM GAS  C:\Users\D4DE~1\AppData\Local\Temp\cccuUyWy.s 			page 3


  89:Generated_Source\PSoC6\pdl\middleware\ble/cy_ble_event_handler.c **** 
  90:Generated_Source\PSoC6\pdl\middleware\ble/cy_ble_event_handler.c ****     if(eventHandlerFunc == NULL)
  91:Generated_Source\PSoC6\pdl\middleware\ble/cy_ble_event_handler.c ****     {
  92:Generated_Source\PSoC6\pdl\middleware\ble/cy_ble_event_handler.c ****         apiResult = CY_BLE_ERROR_INVALID_PARAMETER;
  93:Generated_Source\PSoC6\pdl\middleware\ble/cy_ble_event_handler.c ****     }
  94:Generated_Source\PSoC6\pdl\middleware\ble/cy_ble_event_handler.c ****     else
  95:Generated_Source\PSoC6\pdl\middleware\ble/cy_ble_event_handler.c ****     {
  96:Generated_Source\PSoC6\pdl\middleware\ble/cy_ble_event_handler.c ****         /* Check if eventHandlerFunc has been already registered */
  97:Generated_Source\PSoC6\pdl\middleware\ble/cy_ble_event_handler.c ****         uint32_t idx;
  98:Generated_Source\PSoC6\pdl\middleware\ble/cy_ble_event_handler.c ****         for(idx = 0u; (idx < cy_ble_eventHandler.count) && (existFlag == 0u); idx++)
  99:Generated_Source\PSoC6\pdl\middleware\ble/cy_ble_event_handler.c ****         {
 100:Generated_Source\PSoC6\pdl\middleware\ble/cy_ble_event_handler.c ****             if(cy_ble_eventHandler.serviceEventHandler[idx] == eventHandlerFunc)
 101:Generated_Source\PSoC6\pdl\middleware\ble/cy_ble_event_handler.c ****             {
 102:Generated_Source\PSoC6\pdl\middleware\ble/cy_ble_event_handler.c ****                 existFlag = 1u;
 103:Generated_Source\PSoC6\pdl\middleware\ble/cy_ble_event_handler.c ****             }
 104:Generated_Source\PSoC6\pdl\middleware\ble/cy_ble_event_handler.c ****         }
 105:Generated_Source\PSoC6\pdl\middleware\ble/cy_ble_event_handler.c ****     }
 106:Generated_Source\PSoC6\pdl\middleware\ble/cy_ble_event_handler.c ****     /* Register eventHandlerFunc callback */
 107:Generated_Source\PSoC6\pdl\middleware\ble/cy_ble_event_handler.c ****     if((apiResult == CY_BLE_SUCCESS) && (existFlag == 0u))
 108:Generated_Source\PSoC6\pdl\middleware\ble/cy_ble_event_handler.c ****     {
 109:Generated_Source\PSoC6\pdl\middleware\ble/cy_ble_event_handler.c ****         if(cy_ble_eventHandler.count < CY_BLE_MAX_SRVI)
 110:Generated_Source\PSoC6\pdl\middleware\ble/cy_ble_event_handler.c ****         {
 111:Generated_Source\PSoC6\pdl\middleware\ble/cy_ble_event_handler.c ****             cy_ble_eventHandler.serviceEventHandler[cy_ble_eventHandler.count] = eventHandlerFunc;
 112:Generated_Source\PSoC6\pdl\middleware\ble/cy_ble_event_handler.c ****             cy_ble_eventHandler.count += 1u;
 113:Generated_Source\PSoC6\pdl\middleware\ble/cy_ble_event_handler.c ****         }
 114:Generated_Source\PSoC6\pdl\middleware\ble/cy_ble_event_handler.c ****         else
 115:Generated_Source\PSoC6\pdl\middleware\ble/cy_ble_event_handler.c ****         {
 116:Generated_Source\PSoC6\pdl\middleware\ble/cy_ble_event_handler.c ****             apiResult = CY_BLE_ERROR_MEMORY_ALLOCATION_FAILED;
 117:Generated_Source\PSoC6\pdl\middleware\ble/cy_ble_event_handler.c ****         }
 118:Generated_Source\PSoC6\pdl\middleware\ble/cy_ble_event_handler.c ****     }
 119:Generated_Source\PSoC6\pdl\middleware\ble/cy_ble_event_handler.c **** 
 120:Generated_Source\PSoC6\pdl\middleware\ble/cy_ble_event_handler.c ****     return(apiResult);
 121:Generated_Source\PSoC6\pdl\middleware\ble/cy_ble_event_handler.c **** }
 122:Generated_Source\PSoC6\pdl\middleware\ble/cy_ble_event_handler.c **** 
 123:Generated_Source\PSoC6\pdl\middleware\ble/cy_ble_event_handler.c **** /******************************************************************************
 124:Generated_Source\PSoC6\pdl\middleware\ble/cy_ble_event_handler.c **** * Function Name: Cy_BLE_InvokeServiceEventHandler
 125:Generated_Source\PSoC6\pdl\middleware\ble/cy_ble_event_handler.c **** ***************************************************************************//**
 126:Generated_Source\PSoC6\pdl\middleware\ble/cy_ble_event_handler.c **** *
 127:Generated_Source\PSoC6\pdl\middleware\ble/cy_ble_event_handler.c **** *  Invoke registered service event handlers.
 128:Generated_Source\PSoC6\pdl\middleware\ble/cy_ble_event_handler.c **** *
 129:Generated_Source\PSoC6\pdl\middleware\ble/cy_ble_event_handler.c **** *  \param eventCode:   The event code.
 130:Generated_Source\PSoC6\pdl\middleware\ble/cy_ble_event_handler.c **** *  \param eventParam:  The event parameters.
 131:Generated_Source\PSoC6\pdl\middleware\ble/cy_ble_event_handler.c **** *
 132:Generated_Source\PSoC6\pdl\middleware\ble/cy_ble_event_handler.c **** * \return
 133:Generated_Source\PSoC6\pdl\middleware\ble/cy_ble_event_handler.c **** *  A return value of type cy_en_ble_gatt_err_code_t.
 134:Generated_Source\PSoC6\pdl\middleware\ble/cy_ble_event_handler.c **** *
 135:Generated_Source\PSoC6\pdl\middleware\ble/cy_ble_event_handler.c **** ******************************************************************************/
 136:Generated_Source\PSoC6\pdl\middleware\ble/cy_ble_event_handler.c **** cy_en_ble_gatt_err_code_t Cy_BLE_InvokeServiceEventHandler(uint32_t eventCode,
 137:Generated_Source\PSoC6\pdl\middleware\ble/cy_ble_event_handler.c ****                                                            void *eventParam)
 138:Generated_Source\PSoC6\pdl\middleware\ble/cy_ble_event_handler.c **** {
 139:Generated_Source\PSoC6\pdl\middleware\ble/cy_ble_event_handler.c ****     uint32_t idx;
 140:Generated_Source\PSoC6\pdl\middleware\ble/cy_ble_event_handler.c ****     cy_en_ble_gatt_err_code_t gattErr = CY_BLE_GATT_ERR_NONE;
 141:Generated_Source\PSoC6\pdl\middleware\ble/cy_ble_event_handler.c **** 
 142:Generated_Source\PSoC6\pdl\middleware\ble/cy_ble_event_handler.c ****     for(idx = 0u; (idx < cy_ble_eventHandler.count) && ((cy_ble_eventHandlerFlag & CY_BLE_CALLBACK)
 143:Generated_Source\PSoC6\pdl\middleware\ble/cy_ble_event_handler.c ****     {
 144:Generated_Source\PSoC6\pdl\middleware\ble/cy_ble_event_handler.c ****         gattErr = cy_ble_eventHandler.serviceEventHandler[idx](eventCode, eventParam);
 145:Generated_Source\PSoC6\pdl\middleware\ble/cy_ble_event_handler.c ****     }
ARM GAS  C:\Users\D4DE~1\AppData\Local\Temp\cccuUyWy.s 			page 4


 146:Generated_Source\PSoC6\pdl\middleware\ble/cy_ble_event_handler.c **** 
 147:Generated_Source\PSoC6\pdl\middleware\ble/cy_ble_event_handler.c ****     return(gattErr);
 148:Generated_Source\PSoC6\pdl\middleware\ble/cy_ble_event_handler.c **** }
 149:Generated_Source\PSoC6\pdl\middleware\ble/cy_ble_event_handler.c **** #endif /* CY_BLE_GAP_ROLE_PERIPHERAL || CY_BLE_GAP_ROLE_CENTRAL */
 150:Generated_Source\PSoC6\pdl\middleware\ble/cy_ble_event_handler.c **** 
 151:Generated_Source\PSoC6\pdl\middleware\ble/cy_ble_event_handler.c **** #if (CY_BLE_GATT_ROLE_SERVER)
 152:Generated_Source\PSoC6\pdl\middleware\ble/cy_ble_event_handler.c **** 
 153:Generated_Source\PSoC6\pdl\middleware\ble/cy_ble_event_handler.c **** 
 154:Generated_Source\PSoC6\pdl\middleware\ble/cy_ble_event_handler.c **** /******************************************************************************
 155:Generated_Source\PSoC6\pdl\middleware\ble/cy_ble_event_handler.c **** * Function Name: Cy_BLE_SendWriteResponse
 156:Generated_Source\PSoC6\pdl\middleware\ble/cy_ble_event_handler.c **** ***************************************************************************//**
 157:Generated_Source\PSoC6\pdl\middleware\ble/cy_ble_event_handler.c **** *
 158:Generated_Source\PSoC6\pdl\middleware\ble/cy_ble_event_handler.c **** *  Sends the Write Response to Write Request when event was handled by service.
 159:Generated_Source\PSoC6\pdl\middleware\ble/cy_ble_event_handler.c **** *
 160:Generated_Source\PSoC6\pdl\middleware\ble/cy_ble_event_handler.c **** *  \param eventParam - The event parameter.
 161:Generated_Source\PSoC6\pdl\middleware\ble/cy_ble_event_handler.c **** *  \param gattErr - The error code.
 162:Generated_Source\PSoC6\pdl\middleware\ble/cy_ble_event_handler.c **** *
 163:Generated_Source\PSoC6\pdl\middleware\ble/cy_ble_event_handler.c **** * \return
 164:Generated_Source\PSoC6\pdl\middleware\ble/cy_ble_event_handler.c **** *  None.
 165:Generated_Source\PSoC6\pdl\middleware\ble/cy_ble_event_handler.c **** *
 166:Generated_Source\PSoC6\pdl\middleware\ble/cy_ble_event_handler.c **** ******************************************************************************/
 167:Generated_Source\PSoC6\pdl\middleware\ble/cy_ble_event_handler.c **** static void Cy_BLE_SendWriteResponse(const cy_stc_ble_gatts_write_cmd_req_param_t *eventParam,
 168:Generated_Source\PSoC6\pdl\middleware\ble/cy_ble_event_handler.c ****                                      cy_en_ble_gatt_err_code_t gattErr)
 169:Generated_Source\PSoC6\pdl\middleware\ble/cy_ble_event_handler.c **** {
  27              		.loc 1 169 0
  28              		.cfi_startproc
  29              		@ args = 0, pretend = 0, frame = 8
  30              		@ frame_needed = 0, uses_anonymous_args = 0
  31              	.LVL0:
  32 0000 30B5     		push	{r4, r5, lr}
  33              		.cfi_def_cfa_offset 12
  34              		.cfi_offset 4, -12
  35              		.cfi_offset 5, -8
  36              		.cfi_offset 14, -4
  37 0002 83B0     		sub	sp, sp, #12
  38              		.cfi_def_cfa_offset 24
  39 0004 0400     		movs	r4, r0
  40 0006 0D00     		movs	r5, r1
 170:Generated_Source\PSoC6\pdl\middleware\ble/cy_ble_event_handler.c ****     cy_stc_ble_gatt_err_param_t err_param =
  41              		.loc 1 170 0
  42 0008 0622     		movs	r2, #6
  43 000a 0021     		movs	r1, #0
  44              	.LVL1:
  45 000c 6846     		mov	r0, sp
  46              	.LVL2:
  47 000e FFF7FEFF 		bl	memset
  48              	.LVL3:
  49 0012 A389     		ldrh	r3, [r4, #12]
  50 0014 6A46     		mov	r2, sp
  51 0016 1380     		strh	r3, [r2]
 171:Generated_Source\PSoC6\pdl\middleware\ble/cy_ble_event_handler.c ****     {
 172:Generated_Source\PSoC6\pdl\middleware\ble/cy_ble_event_handler.c ****         .errInfo.opCode     = CY_BLE_GATT_WRITE_REQ,
 173:Generated_Source\PSoC6\pdl\middleware\ble/cy_ble_event_handler.c ****         .errInfo.attrHandle = eventParam->handleValPair.attrHandle,        
  52              		.loc 1 173 0
  53 0018 2389     		ldrh	r3, [r4, #8]
 170:Generated_Source\PSoC6\pdl\middleware\ble/cy_ble_event_handler.c ****     cy_stc_ble_gatt_err_param_t err_param =
  54              		.loc 1 170 0
ARM GAS  C:\Users\D4DE~1\AppData\Local\Temp\cccuUyWy.s 			page 5


  55 001a 5380     		strh	r3, [r2, #2]
  56 001c 1223     		movs	r3, #18
  57 001e 1371     		strb	r3, [r2, #4]
 174:Generated_Source\PSoC6\pdl\middleware\ble/cy_ble_event_handler.c ****         .connHandle         = eventParam->connHandle
 175:Generated_Source\PSoC6\pdl\middleware\ble/cy_ble_event_handler.c ****     };
 176:Generated_Source\PSoC6\pdl\middleware\ble/cy_ble_event_handler.c **** 
 177:Generated_Source\PSoC6\pdl\middleware\ble/cy_ble_event_handler.c ****     /* Send response when event was handled by the service */
 178:Generated_Source\PSoC6\pdl\middleware\ble/cy_ble_event_handler.c ****     if((cy_ble_eventHandlerFlag & CY_BLE_CALLBACK) == 0u)
  58              		.loc 1 178 0
  59 0020 074B     		ldr	r3, .L4
  60 0022 1B78     		ldrb	r3, [r3]
  61 0024 DB07     		lsls	r3, r3, #31
  62 0026 09D4     		bmi	.L1
 179:Generated_Source\PSoC6\pdl\middleware\ble/cy_ble_event_handler.c ****     {
 180:Generated_Source\PSoC6\pdl\middleware\ble/cy_ble_event_handler.c ****         if(gattErr != CY_BLE_GATT_ERR_NONE)
  63              		.loc 1 180 0
  64 0028 002D     		cmp	r5, #0
  65 002a 04D0     		beq	.L3
 181:Generated_Source\PSoC6\pdl\middleware\ble/cy_ble_event_handler.c ****         {
 182:Generated_Source\PSoC6\pdl\middleware\ble/cy_ble_event_handler.c ****             /* Send an Error Response */
 183:Generated_Source\PSoC6\pdl\middleware\ble/cy_ble_event_handler.c ****             err_param.errInfo.errorCode  = gattErr;
  66              		.loc 1 183 0
  67 002c 5571     		strb	r5, [r2, #5]
 184:Generated_Source\PSoC6\pdl\middleware\ble/cy_ble_event_handler.c ****             (void)Cy_BLE_GATTS_ErrorRsp(&err_param);
  68              		.loc 1 184 0
  69 002e 6846     		mov	r0, sp
  70 0030 FFF7FEFF 		bl	Cy_BLE_GATTS_ErrorRsp
  71              	.LVL4:
  72 0034 02E0     		b	.L1
  73              	.L3:
 185:Generated_Source\PSoC6\pdl\middleware\ble/cy_ble_event_handler.c ****         }
 186:Generated_Source\PSoC6\pdl\middleware\ble/cy_ble_event_handler.c ****         else
 187:Generated_Source\PSoC6\pdl\middleware\ble/cy_ble_event_handler.c ****         {
 188:Generated_Source\PSoC6\pdl\middleware\ble/cy_ble_event_handler.c ****             /* Send an Write Response */
 189:Generated_Source\PSoC6\pdl\middleware\ble/cy_ble_event_handler.c ****             (void)Cy_BLE_GATTS_WriteRsp(eventParam->connHandle);
  74              		.loc 1 189 0
  75 0036 E068     		ldr	r0, [r4, #12]
  76 0038 FFF7FEFF 		bl	Cy_BLE_GATTS_WriteRsp
  77              	.LVL5:
  78              	.L1:
 190:Generated_Source\PSoC6\pdl\middleware\ble/cy_ble_event_handler.c ****         }
 191:Generated_Source\PSoC6\pdl\middleware\ble/cy_ble_event_handler.c ****     } 
 192:Generated_Source\PSoC6\pdl\middleware\ble/cy_ble_event_handler.c **** }
  79              		.loc 1 192 0
  80 003c 03B0     		add	sp, sp, #12
  81              		@ sp needed
  82              	.LVL6:
  83 003e 30BD     		pop	{r4, r5, pc}
  84              	.L5:
  85              		.align	2
  86              	.L4:
  87 0040 00000000 		.word	cy_ble_eventHandlerFlag
  88              		.cfi_endproc
  89              	.LFE170:
  90              		.size	Cy_BLE_SendWriteResponse, .-Cy_BLE_SendWriteResponse
  91              		.section	.text.Cy_BLE_RegisterServiceEventHandler,"ax",%progbits
  92              		.align	2
ARM GAS  C:\Users\D4DE~1\AppData\Local\Temp\cccuUyWy.s 			page 6


  93              		.global	Cy_BLE_RegisterServiceEventHandler
  94              		.code	16
  95              		.thumb_func
  96              		.type	Cy_BLE_RegisterServiceEventHandler, %function
  97              	Cy_BLE_RegisterServiceEventHandler:
  98              	.LFB168:
  86:Generated_Source\PSoC6\pdl\middleware\ble/cy_ble_event_handler.c ****     cy_en_ble_api_result_t apiResult = CY_BLE_SUCCESS;
  99              		.loc 1 86 0
 100              		.cfi_startproc
 101              		@ args = 0, pretend = 0, frame = 0
 102              		@ frame_needed = 0, uses_anonymous_args = 0
 103              	.LVL7:
 104 0000 10B5     		push	{r4, lr}
 105              		.cfi_def_cfa_offset 8
 106              		.cfi_offset 4, -8
 107              		.cfi_offset 14, -4
 108              	.LVL8:
  90:Generated_Source\PSoC6\pdl\middleware\ble/cy_ble_event_handler.c ****     {
 109              		.loc 1 90 0
 110 0002 0028     		cmp	r0, #0
 111 0004 11D0     		beq	.L12
 112 0006 0023     		movs	r3, #0
 113 0008 0024     		movs	r4, #0
 114 000a 06E0     		b	.L8
 115              	.LVL9:
 116              	.L10:
 117              	.LBB40:
 100:Generated_Source\PSoC6\pdl\middleware\ble/cy_ble_event_handler.c ****             {
 118              		.loc 1 100 0
 119 000c 9A00     		lsls	r2, r3, #2
 120 000e 1149     		ldr	r1, .L16
 121 0010 5258     		ldr	r2, [r2, r1]
 122 0012 9042     		cmp	r0, r2
 123 0014 00D1     		bne	.L9
 102:Generated_Source\PSoC6\pdl\middleware\ble/cy_ble_event_handler.c ****             }
 124              		.loc 1 102 0
 125 0016 0124     		movs	r4, #1
 126              	.LVL10:
 127              	.L9:
  98:Generated_Source\PSoC6\pdl\middleware\ble/cy_ble_event_handler.c ****         {
 128              		.loc 1 98 0 discriminator 2
 129 0018 0133     		adds	r3, r3, #1
 130              	.LVL11:
 131              	.L8:
  98:Generated_Source\PSoC6\pdl\middleware\ble/cy_ble_event_handler.c ****         {
 132              		.loc 1 98 0 is_stmt 0 discriminator 1
 133 001a 0E4A     		ldr	r2, .L16
 134 001c 1279     		ldrb	r2, [r2, #4]
 135 001e 9342     		cmp	r3, r2
 136 0020 06D2     		bcs	.L14
  98:Generated_Source\PSoC6\pdl\middleware\ble/cy_ble_event_handler.c ****         {
 137              		.loc 1 98 0 discriminator 3
 138 0022 002C     		cmp	r4, #0
 139 0024 F2D0     		beq	.L10
 140              	.LBE40:
  87:Generated_Source\PSoC6\pdl\middleware\ble/cy_ble_event_handler.c ****     uint8_t existFlag = 0u;
 141              		.loc 1 87 0 is_stmt 1
ARM GAS  C:\Users\D4DE~1\AppData\Local\Temp\cccuUyWy.s 			page 7


 142 0026 0023     		movs	r3, #0
 143              	.LVL12:
 144              	.LBB41:
 145 0028 03E0     		b	.L7
 146              	.LVL13:
 147              	.L12:
 148              	.LBE41:
  88:Generated_Source\PSoC6\pdl\middleware\ble/cy_ble_event_handler.c **** 
 149              		.loc 1 88 0
 150 002a 0024     		movs	r4, #0
  92:Generated_Source\PSoC6\pdl\middleware\ble/cy_ble_event_handler.c ****     }
 151              		.loc 1 92 0
 152 002c 0A4B     		ldr	r3, .L16+4
 153 002e 00E0     		b	.L7
 154              	.LVL14:
 155              	.L14:
  87:Generated_Source\PSoC6\pdl\middleware\ble/cy_ble_event_handler.c ****     uint8_t existFlag = 0u;
 156              		.loc 1 87 0
 157 0030 0023     		movs	r3, #0
 158              	.LVL15:
 159              	.L7:
 107:Generated_Source\PSoC6\pdl\middleware\ble/cy_ble_event_handler.c ****     {
 160              		.loc 1 107 0
 161 0032 002B     		cmp	r3, #0
 162 0034 0CD1     		bne	.L11
 107:Generated_Source\PSoC6\pdl\middleware\ble/cy_ble_event_handler.c ****     {
 163              		.loc 1 107 0 is_stmt 0 discriminator 1
 164 0036 002C     		cmp	r4, #0
 165 0038 0AD1     		bne	.L11
 109:Generated_Source\PSoC6\pdl\middleware\ble/cy_ble_event_handler.c ****         {
 166              		.loc 1 109 0 is_stmt 1
 167 003a 064A     		ldr	r2, .L16
 168 003c 1279     		ldrb	r2, [r2, #4]
 169 003e 002A     		cmp	r2, #0
 170 0040 05D1     		bne	.L15
 111:Generated_Source\PSoC6\pdl\middleware\ble/cy_ble_event_handler.c ****             cy_ble_eventHandler.count += 1u;
 171              		.loc 1 111 0
 172 0042 0449     		ldr	r1, .L16
 173 0044 9400     		lsls	r4, r2, #2
 174              	.LVL16:
 175 0046 6050     		str	r0, [r4, r1]
 112:Generated_Source\PSoC6\pdl\middleware\ble/cy_ble_event_handler.c ****         }
 176              		.loc 1 112 0
 177 0048 0132     		adds	r2, r2, #1
 178 004a 0A71     		strb	r2, [r1, #4]
 179 004c 00E0     		b	.L11
 180              	.LVL17:
 181              	.L15:
 116:Generated_Source\PSoC6\pdl\middleware\ble/cy_ble_event_handler.c ****         }
 182              		.loc 1 116 0
 183 004e 034B     		ldr	r3, .L16+8
 184              	.LVL18:
 185              	.L11:
 121:Generated_Source\PSoC6\pdl\middleware\ble/cy_ble_event_handler.c **** 
 186              		.loc 1 121 0
 187 0050 1800     		movs	r0, r3
 188              	.LVL19:
ARM GAS  C:\Users\D4DE~1\AppData\Local\Temp\cccuUyWy.s 			page 8


 189              		@ sp needed
 190 0052 10BD     		pop	{r4, pc}
 191              	.L17:
 192              		.align	2
 193              	.L16:
 194 0054 00000000 		.word	cy_ble_eventHandler
 195 0058 01001600 		.word	1441793
 196 005c 03001600 		.word	1441795
 197              		.cfi_endproc
 198              	.LFE168:
 199              		.size	Cy_BLE_RegisterServiceEventHandler, .-Cy_BLE_RegisterServiceEventHandler
 200              		.section	.text.Cy_BLE_InvokeServiceEventHandler,"ax",%progbits
 201              		.align	2
 202              		.global	Cy_BLE_InvokeServiceEventHandler
 203              		.code	16
 204              		.thumb_func
 205              		.type	Cy_BLE_InvokeServiceEventHandler, %function
 206              	Cy_BLE_InvokeServiceEventHandler:
 207              	.LFB169:
 138:Generated_Source\PSoC6\pdl\middleware\ble/cy_ble_event_handler.c ****     uint32_t idx;
 208              		.loc 1 138 0
 209              		.cfi_startproc
 210              		@ args = 0, pretend = 0, frame = 0
 211              		@ frame_needed = 0, uses_anonymous_args = 0
 212              	.LVL20:
 213 0000 70B5     		push	{r4, r5, r6, lr}
 214              		.cfi_def_cfa_offset 16
 215              		.cfi_offset 4, -16
 216              		.cfi_offset 5, -12
 217              		.cfi_offset 6, -8
 218              		.cfi_offset 14, -4
 219 0002 0600     		movs	r6, r0
 220 0004 0D00     		movs	r5, r1
 221              	.LVL21:
 140:Generated_Source\PSoC6\pdl\middleware\ble/cy_ble_event_handler.c **** 
 222              		.loc 1 140 0
 223 0006 0020     		movs	r0, #0
 224              	.LVL22:
 142:Generated_Source\PSoC6\pdl\middleware\ble/cy_ble_event_handler.c ****     {
 225              		.loc 1 142 0
 226 0008 0024     		movs	r4, #0
 227 000a 06E0     		b	.L19
 228              	.LVL23:
 229              	.L21:
 144:Generated_Source\PSoC6\pdl\middleware\ble/cy_ble_event_handler.c ****     }
 230              		.loc 1 144 0 discriminator 4
 231 000c A200     		lsls	r2, r4, #2
 232 000e 074B     		ldr	r3, .L22
 233 0010 D358     		ldr	r3, [r2, r3]
 234 0012 2900     		movs	r1, r5
 235 0014 3000     		movs	r0, r6
 236              	.LVL24:
 237 0016 9847     		blx	r3
 238              	.LVL25:
 142:Generated_Source\PSoC6\pdl\middleware\ble/cy_ble_event_handler.c ****     {
 239              		.loc 1 142 0 discriminator 4
 240 0018 0134     		adds	r4, r4, #1
ARM GAS  C:\Users\D4DE~1\AppData\Local\Temp\cccuUyWy.s 			page 9


 241              	.LVL26:
 242              	.L19:
 142:Generated_Source\PSoC6\pdl\middleware\ble/cy_ble_event_handler.c ****     {
 243              		.loc 1 142 0 is_stmt 0 discriminator 1
 244 001a 044B     		ldr	r3, .L22
 245 001c 1B79     		ldrb	r3, [r3, #4]
 246 001e 9C42     		cmp	r4, r3
 247 0020 03D2     		bcs	.L20
 142:Generated_Source\PSoC6\pdl\middleware\ble/cy_ble_event_handler.c ****     {
 248              		.loc 1 142 0 discriminator 3
 249 0022 034B     		ldr	r3, .L22+4
 250 0024 1B78     		ldrb	r3, [r3]
 251 0026 DB07     		lsls	r3, r3, #31
 252 0028 F0D4     		bmi	.L21
 253              	.L20:
 148:Generated_Source\PSoC6\pdl\middleware\ble/cy_ble_event_handler.c **** #endif /* CY_BLE_GAP_ROLE_PERIPHERAL || CY_BLE_GAP_ROLE_CENTRAL */
 254              		.loc 1 148 0 is_stmt 1
 255              		@ sp needed
 256              	.LVL27:
 257              	.LVL28:
 258              	.LVL29:
 259 002a 70BD     		pop	{r4, r5, r6, pc}
 260              	.L23:
 261              		.align	2
 262              	.L22:
 263 002c 00000000 		.word	cy_ble_eventHandler
 264 0030 00000000 		.word	cy_ble_eventHandlerFlag
 265              		.cfi_endproc
 266              	.LFE169:
 267              		.size	Cy_BLE_InvokeServiceEventHandler, .-Cy_BLE_InvokeServiceEventHandler
 268              		.section	.text.Cy_BLE_IsDeviceAddressValid,"ax",%progbits
 269              		.align	2
 270              		.global	Cy_BLE_IsDeviceAddressValid
 271              		.code	16
 272              		.thumb_func
 273              		.type	Cy_BLE_IsDeviceAddressValid, %function
 274              	Cy_BLE_IsDeviceAddressValid:
 275              	.LFB172:
 193:Generated_Source\PSoC6\pdl\middleware\ble/cy_ble_event_handler.c **** #endif /* CY_BLE_GATT_ROLE_SERVER */
 194:Generated_Source\PSoC6\pdl\middleware\ble/cy_ble_event_handler.c **** 
 195:Generated_Source\PSoC6\pdl\middleware\ble/cy_ble_event_handler.c **** 
 196:Generated_Source\PSoC6\pdl\middleware\ble/cy_ble_event_handler.c **** /******************************************************************************
 197:Generated_Source\PSoC6\pdl\middleware\ble/cy_ble_event_handler.c **** * Function Name: Cy_BLE_TimeOutEventHandler
 198:Generated_Source\PSoC6\pdl\middleware\ble/cy_ble_event_handler.c **** ***************************************************************************//**
 199:Generated_Source\PSoC6\pdl\middleware\ble/cy_ble_event_handler.c **** *
 200:Generated_Source\PSoC6\pdl\middleware\ble/cy_ble_event_handler.c **** *  Handles a CY_BLE_EVT_TIMEOUT event from the BLE Stack.
 201:Generated_Source\PSoC6\pdl\middleware\ble/cy_ble_event_handler.c **** *
 202:Generated_Source\PSoC6\pdl\middleware\ble/cy_ble_event_handler.c **** *  \param eventParam: The pointer to a structure of type cy_stc_ble_timeout_param_t.
 203:Generated_Source\PSoC6\pdl\middleware\ble/cy_ble_event_handler.c **** *
 204:Generated_Source\PSoC6\pdl\middleware\ble/cy_ble_event_handler.c **** * \return
 205:Generated_Source\PSoC6\pdl\middleware\ble/cy_ble_event_handler.c **** *  None
 206:Generated_Source\PSoC6\pdl\middleware\ble/cy_ble_event_handler.c **** *
 207:Generated_Source\PSoC6\pdl\middleware\ble/cy_ble_event_handler.c **** ******************************************************************************/
 208:Generated_Source\PSoC6\pdl\middleware\ble/cy_ble_event_handler.c **** static void Cy_BLE_TimeOutEventHandler(const cy_stc_ble_timeout_param_t *eventParam)
 209:Generated_Source\PSoC6\pdl\middleware\ble/cy_ble_event_handler.c **** {
 210:Generated_Source\PSoC6\pdl\middleware\ble/cy_ble_event_handler.c ****     if(eventParam->reasonCode == CY_BLE_GATT_RSP_TO)
 211:Generated_Source\PSoC6\pdl\middleware\ble/cy_ble_event_handler.c ****     {
ARM GAS  C:\Users\D4DE~1\AppData\Local\Temp\cccuUyWy.s 			page 10


 212:Generated_Source\PSoC6\pdl\middleware\ble/cy_ble_event_handler.c ****     #if (CY_BLE_GATT_ROLE_CLIENT)
 213:Generated_Source\PSoC6\pdl\middleware\ble/cy_ble_event_handler.c ****         {
 214:Generated_Source\PSoC6\pdl\middleware\ble/cy_ble_event_handler.c ****             uint32_t discIdx = Cy_BLE_GetDiscoveryIdx(eventParam->CY_BLE_HANDLE.connHandle);
 215:Generated_Source\PSoC6\pdl\middleware\ble/cy_ble_event_handler.c ****             if((discIdx < CY_BLE_GATTC_COUNT) && (cy_ble_discovery[discIdx].autoDiscoveryFlag != 0u
 216:Generated_Source\PSoC6\pdl\middleware\ble/cy_ble_event_handler.c ****             {
 217:Generated_Source\PSoC6\pdl\middleware\ble/cy_ble_event_handler.c ****                 switch(Cy_BLE_GetConnectionState(eventParam->CY_BLE_HANDLE.connHandle))
 218:Generated_Source\PSoC6\pdl\middleware\ble/cy_ble_event_handler.c ****                 {
 219:Generated_Source\PSoC6\pdl\middleware\ble/cy_ble_event_handler.c ****                     case CY_BLE_CONN_STATE_CLIENT_SRVC_DISCOVERING:
 220:Generated_Source\PSoC6\pdl\middleware\ble/cy_ble_event_handler.c ****                         Cy_BLE_ApplCallback((uint32_t)CY_BLE_EVT_GATTC_SRVC_DISCOVERY_FAILED,
 221:Generated_Source\PSoC6\pdl\middleware\ble/cy_ble_event_handler.c ****                                             (cy_stc_ble_conn_handle_t*)&eventParam->CY_BLE_HANDLE.c
 222:Generated_Source\PSoC6\pdl\middleware\ble/cy_ble_event_handler.c ****                         break;
 223:Generated_Source\PSoC6\pdl\middleware\ble/cy_ble_event_handler.c **** 
 224:Generated_Source\PSoC6\pdl\middleware\ble/cy_ble_event_handler.c ****                     case CY_BLE_CONN_STATE_CLIENT_INCL_DISCOVERING:
 225:Generated_Source\PSoC6\pdl\middleware\ble/cy_ble_event_handler.c ****                         Cy_BLE_ApplCallback((uint32_t)CY_BLE_EVT_GATTC_INCL_DISCOVERY_FAILED,
 226:Generated_Source\PSoC6\pdl\middleware\ble/cy_ble_event_handler.c ****                                             (cy_stc_ble_conn_handle_t*)&eventParam->CY_BLE_HANDLE.c
 227:Generated_Source\PSoC6\pdl\middleware\ble/cy_ble_event_handler.c ****                         break;
 228:Generated_Source\PSoC6\pdl\middleware\ble/cy_ble_event_handler.c **** 
 229:Generated_Source\PSoC6\pdl\middleware\ble/cy_ble_event_handler.c ****                     case CY_BLE_CONN_STATE_CLIENT_CHAR_DISCOVERING:
 230:Generated_Source\PSoC6\pdl\middleware\ble/cy_ble_event_handler.c ****                         Cy_BLE_ApplCallback((uint32_t)CY_BLE_EVT_GATTC_CHAR_DISCOVERY_FAILED,
 231:Generated_Source\PSoC6\pdl\middleware\ble/cy_ble_event_handler.c ****                                             (cy_stc_ble_conn_handle_t*)&eventParam->CY_BLE_HANDLE.c
 232:Generated_Source\PSoC6\pdl\middleware\ble/cy_ble_event_handler.c ****                         break;
 233:Generated_Source\PSoC6\pdl\middleware\ble/cy_ble_event_handler.c **** 
 234:Generated_Source\PSoC6\pdl\middleware\ble/cy_ble_event_handler.c ****                     case CY_BLE_CONN_STATE_CLIENT_DESCR_DISCOVERING:
 235:Generated_Source\PSoC6\pdl\middleware\ble/cy_ble_event_handler.c ****                         Cy_BLE_ApplCallback((uint32_t)CY_BLE_EVT_GATTC_DESCR_DISCOVERY_FAILED,
 236:Generated_Source\PSoC6\pdl\middleware\ble/cy_ble_event_handler.c ****                                             (cy_stc_ble_conn_handle_t*)&eventParam->CY_BLE_HANDLE.c
 237:Generated_Source\PSoC6\pdl\middleware\ble/cy_ble_event_handler.c ****                         break;
 238:Generated_Source\PSoC6\pdl\middleware\ble/cy_ble_event_handler.c **** 
 239:Generated_Source\PSoC6\pdl\middleware\ble/cy_ble_event_handler.c ****                     default:        /* Other states should not be set in Auto discovery mode */
 240:Generated_Source\PSoC6\pdl\middleware\ble/cy_ble_event_handler.c ****                         break;
 241:Generated_Source\PSoC6\pdl\middleware\ble/cy_ble_event_handler.c ****                 }
 242:Generated_Source\PSoC6\pdl\middleware\ble/cy_ble_event_handler.c ****                 cy_ble_discovery[discIdx].autoDiscoveryFlag = 0u;
 243:Generated_Source\PSoC6\pdl\middleware\ble/cy_ble_event_handler.c ****                 Cy_BLE_SetConnectionState(eventParam->CY_BLE_HANDLE.connHandle, CY_BLE_CONN_STATE_C
 244:Generated_Source\PSoC6\pdl\middleware\ble/cy_ble_event_handler.c ****             }
 245:Generated_Source\PSoC6\pdl\middleware\ble/cy_ble_event_handler.c ****         }
 246:Generated_Source\PSoC6\pdl\middleware\ble/cy_ble_event_handler.c ****     #endif /* CY_BLE_GATT_ROLE_CLIENT */
 247:Generated_Source\PSoC6\pdl\middleware\ble/cy_ble_event_handler.c ****     }
 248:Generated_Source\PSoC6\pdl\middleware\ble/cy_ble_event_handler.c **** 
 249:Generated_Source\PSoC6\pdl\middleware\ble/cy_ble_event_handler.c ****     #if (CY_BLE_GAP_ROLE_CENTRAL)
 250:Generated_Source\PSoC6\pdl\middleware\ble/cy_ble_event_handler.c ****     /* Connection procedure timeout */
 251:Generated_Source\PSoC6\pdl\middleware\ble/cy_ble_event_handler.c ****     if((eventParam->reasonCode == CY_BLE_GENERIC_APP_TO) &&
 252:Generated_Source\PSoC6\pdl\middleware\ble/cy_ble_event_handler.c ****        (cy_ble_connectingTimeout.timerHandle == eventParam->timerHandle))
 253:Generated_Source\PSoC6\pdl\middleware\ble/cy_ble_event_handler.c ****     {
 254:Generated_Source\PSoC6\pdl\middleware\ble/cy_ble_event_handler.c ****         if(Cy_BLE_GetState() == CY_BLE_STATE_CONNECTING)
 255:Generated_Source\PSoC6\pdl\middleware\ble/cy_ble_event_handler.c ****         {
 256:Generated_Source\PSoC6\pdl\middleware\ble/cy_ble_event_handler.c ****             (void)Cy_BLE_GAPC_CancelDeviceConnection();
 257:Generated_Source\PSoC6\pdl\middleware\ble/cy_ble_event_handler.c ****         }
 258:Generated_Source\PSoC6\pdl\middleware\ble/cy_ble_event_handler.c ****     }
 259:Generated_Source\PSoC6\pdl\middleware\ble/cy_ble_event_handler.c ****     #endif /* CY_BLE_GAP_ROLE_CENTRAL */
 260:Generated_Source\PSoC6\pdl\middleware\ble/cy_ble_event_handler.c **** }
 261:Generated_Source\PSoC6\pdl\middleware\ble/cy_ble_event_handler.c **** 
 262:Generated_Source\PSoC6\pdl\middleware\ble/cy_ble_event_handler.c **** 
 263:Generated_Source\PSoC6\pdl\middleware\ble/cy_ble_event_handler.c **** /******************************************************************************
 264:Generated_Source\PSoC6\pdl\middleware\ble/cy_ble_event_handler.c **** * Function Name: Cy_BLE_IsDeviceAddressValid
 265:Generated_Source\PSoC6\pdl\middleware\ble/cy_ble_event_handler.c **** ***************************************************************************//**
 266:Generated_Source\PSoC6\pdl\middleware\ble/cy_ble_event_handler.c **** *
 267:Generated_Source\PSoC6\pdl\middleware\ble/cy_ble_event_handler.c **** *  This function verifies that the device address is valid (not equal zero)
 268:Generated_Source\PSoC6\pdl\middleware\ble/cy_ble_event_handler.c **** *    
ARM GAS  C:\Users\D4DE~1\AppData\Local\Temp\cccuUyWy.s 			page 11


 269:Generated_Source\PSoC6\pdl\middleware\ble/cy_ble_event_handler.c **** *  \param deviceAddress: The pointer to the BD address of
 270:Generated_Source\PSoC6\pdl\middleware\ble/cy_ble_event_handler.c **** *                        type #cy_stc_ble_gap_bd_addr_t.
 271:Generated_Source\PSoC6\pdl\middleware\ble/cy_ble_event_handler.c **** *
 272:Generated_Source\PSoC6\pdl\middleware\ble/cy_ble_event_handler.c **** *  \return
 273:Generated_Source\PSoC6\pdl\middleware\ble/cy_ble_event_handler.c **** *   A non-zero value when a device address is valid
 274:Generated_Source\PSoC6\pdl\middleware\ble/cy_ble_event_handler.c **** *
 275:Generated_Source\PSoC6\pdl\middleware\ble/cy_ble_event_handler.c **** ******************************************************************************/
 276:Generated_Source\PSoC6\pdl\middleware\ble/cy_ble_event_handler.c **** uint8_t Cy_BLE_IsDeviceAddressValid(const cy_stc_ble_gap_bd_addr_t *deviceAddress)
 277:Generated_Source\PSoC6\pdl\middleware\ble/cy_ble_event_handler.c **** {
 276              		.loc 1 277 0
 277              		.cfi_startproc
 278              		@ args = 0, pretend = 0, frame = 0
 279              		@ frame_needed = 0, uses_anonymous_args = 0
 280              		@ link register save eliminated.
 281              	.LVL30:
 278:Generated_Source\PSoC6\pdl\middleware\ble/cy_ble_event_handler.c ****     uint8_t addressValid = 0u;
 279:Generated_Source\PSoC6\pdl\middleware\ble/cy_ble_event_handler.c ****     uint32_t i;
 280:Generated_Source\PSoC6\pdl\middleware\ble/cy_ble_event_handler.c **** 
 281:Generated_Source\PSoC6\pdl\middleware\ble/cy_ble_event_handler.c ****     if(deviceAddress->type == CY_BLE_GAP_ADDR_TYPE_PUBLIC)
 282              		.loc 1 281 0
 283 0000 8379     		ldrb	r3, [r0, #6]
 284 0002 002B     		cmp	r3, #0
 285 0004 06D0     		beq	.L28
 278:Generated_Source\PSoC6\pdl\middleware\ble/cy_ble_event_handler.c ****     uint8_t addressValid = 0u;
 286              		.loc 1 278 0
 287 0006 0020     		movs	r0, #0
 288              	.LVL31:
 289 0008 0AE0     		b	.L26
 290              	.LVL32:
 291              	.L27:
 282:Generated_Source\PSoC6\pdl\middleware\ble/cy_ble_event_handler.c ****     {
 283:Generated_Source\PSoC6\pdl\middleware\ble/cy_ble_event_handler.c ****         for(i = 0u; i < CY_BLE_GAP_BD_ADDR_SIZE; i++)
 284:Generated_Source\PSoC6\pdl\middleware\ble/cy_ble_event_handler.c ****         {
 285:Generated_Source\PSoC6\pdl\middleware\ble/cy_ble_event_handler.c ****             if(deviceAddress->bdAddr[i] != 0u)
 292              		.loc 1 285 0
 293 000a C25C     		ldrb	r2, [r0, r3]
 294 000c 002A     		cmp	r2, #0
 295 000e 06D1     		bne	.L29
 283:Generated_Source\PSoC6\pdl\middleware\ble/cy_ble_event_handler.c ****         {
 296              		.loc 1 283 0 discriminator 2
 297 0010 0133     		adds	r3, r3, #1
 298              	.LVL33:
 299 0012 00E0     		b	.L25
 300              	.LVL34:
 301              	.L28:
 302 0014 0023     		movs	r3, #0
 303              	.L25:
 304              	.LVL35:
 283:Generated_Source\PSoC6\pdl\middleware\ble/cy_ble_event_handler.c ****         {
 305              		.loc 1 283 0 is_stmt 0 discriminator 1
 306 0016 052B     		cmp	r3, #5
 307 0018 F7D9     		bls	.L27
 278:Generated_Source\PSoC6\pdl\middleware\ble/cy_ble_event_handler.c ****     uint8_t addressValid = 0u;
 308              		.loc 1 278 0 is_stmt 1
 309 001a 0020     		movs	r0, #0
 310              	.LVL36:
 311 001c 00E0     		b	.L26
ARM GAS  C:\Users\D4DE~1\AppData\Local\Temp\cccuUyWy.s 			page 12


 312              	.LVL37:
 313              	.L29:
 286:Generated_Source\PSoC6\pdl\middleware\ble/cy_ble_event_handler.c ****             {
 287:Generated_Source\PSoC6\pdl\middleware\ble/cy_ble_event_handler.c ****                 addressValid = 1u;
 314              		.loc 1 287 0
 315 001e 0120     		movs	r0, #1
 316              	.LVL38:
 317              	.L26:
 288:Generated_Source\PSoC6\pdl\middleware\ble/cy_ble_event_handler.c ****                 break;
 289:Generated_Source\PSoC6\pdl\middleware\ble/cy_ble_event_handler.c ****             }
 290:Generated_Source\PSoC6\pdl\middleware\ble/cy_ble_event_handler.c ****         }
 291:Generated_Source\PSoC6\pdl\middleware\ble/cy_ble_event_handler.c ****     }
 292:Generated_Source\PSoC6\pdl\middleware\ble/cy_ble_event_handler.c **** 
 293:Generated_Source\PSoC6\pdl\middleware\ble/cy_ble_event_handler.c ****     return(addressValid);
 294:Generated_Source\PSoC6\pdl\middleware\ble/cy_ble_event_handler.c **** }
 318              		.loc 1 294 0
 319              		@ sp needed
 320 0020 7047     		bx	lr
 321              		.cfi_endproc
 322              	.LFE172:
 323              		.size	Cy_BLE_IsDeviceAddressValid, .-Cy_BLE_IsDeviceAddressValid
 324 0022 C046     		.section	.text.Cy_BLE_EventHandler,"ax",%progbits
 325              		.align	2
 326              		.global	Cy_BLE_EventHandler
 327              		.code	16
 328              		.thumb_func
 329              		.type	Cy_BLE_EventHandler, %function
 330              	Cy_BLE_EventHandler:
 331              	.LFB173:
 295:Generated_Source\PSoC6\pdl\middleware\ble/cy_ble_event_handler.c **** 
 296:Generated_Source\PSoC6\pdl\middleware\ble/cy_ble_event_handler.c **** 
 297:Generated_Source\PSoC6\pdl\middleware\ble/cy_ble_event_handler.c **** /******************************************************************************
 298:Generated_Source\PSoC6\pdl\middleware\ble/cy_ble_event_handler.c **** * Function Name: Cy_BLE_EventHandler
 299:Generated_Source\PSoC6\pdl\middleware\ble/cy_ble_event_handler.c **** ***************************************************************************//**
 300:Generated_Source\PSoC6\pdl\middleware\ble/cy_ble_event_handler.c **** *
 301:Generated_Source\PSoC6\pdl\middleware\ble/cy_ble_event_handler.c **** *  Handles events from the BLE Stack.
 302:Generated_Source\PSoC6\pdl\middleware\ble/cy_ble_event_handler.c **** *
 303:Generated_Source\PSoC6\pdl\middleware\ble/cy_ble_event_handler.c **** *  \param event:   The event code.
 304:Generated_Source\PSoC6\pdl\middleware\ble/cy_ble_event_handler.c **** *  \param evParam: The event parameters.
 305:Generated_Source\PSoC6\pdl\middleware\ble/cy_ble_event_handler.c **** *
 306:Generated_Source\PSoC6\pdl\middleware\ble/cy_ble_event_handler.c **** * \return
 307:Generated_Source\PSoC6\pdl\middleware\ble/cy_ble_event_handler.c **** *  None.
 308:Generated_Source\PSoC6\pdl\middleware\ble/cy_ble_event_handler.c **** *
 309:Generated_Source\PSoC6\pdl\middleware\ble/cy_ble_event_handler.c **** ******************************************************************************/
 310:Generated_Source\PSoC6\pdl\middleware\ble/cy_ble_event_handler.c **** void Cy_BLE_EventHandler(cy_en_ble_event_t event,
 311:Generated_Source\PSoC6\pdl\middleware\ble/cy_ble_event_handler.c ****                          void *evParam)
 312:Generated_Source\PSoC6\pdl\middleware\ble/cy_ble_event_handler.c **** {
 332              		.loc 1 312 0
 333              		.cfi_startproc
 334              		@ args = 0, pretend = 0, frame = 48
 335              		@ frame_needed = 0, uses_anonymous_args = 0
 336              	.LVL39:
 337 0000 F0B5     		push	{r4, r5, r6, r7, lr}
 338              		.cfi_def_cfa_offset 20
 339              		.cfi_offset 4, -20
 340              		.cfi_offset 5, -16
 341              		.cfi_offset 6, -12
ARM GAS  C:\Users\D4DE~1\AppData\Local\Temp\cccuUyWy.s 			page 13


 342              		.cfi_offset 7, -8
 343              		.cfi_offset 14, -4
 344 0002 4746     		mov	r7, r8
 345 0004 80B4     		push	{r7}
 346              		.cfi_def_cfa_offset 24
 347              		.cfi_offset 8, -24
 348 0006 8CB0     		sub	sp, sp, #48
 349              		.cfi_def_cfa_offset 72
 350 0008 0400     		movs	r4, r0
 351 000a 0D00     		movs	r5, r1
 313:Generated_Source\PSoC6\pdl\middleware\ble/cy_ble_event_handler.c ****     cy_ble_eventHandlerFlag |= CY_BLE_CALLBACK;
 352              		.loc 1 313 0
 353 000c C74A     		ldr	r2, .L108
 354 000e 1178     		ldrb	r1, [r2]
 355              	.LVL40:
 356 0010 0123     		movs	r3, #1
 357 0012 0B43     		orrs	r3, r1
 358 0014 DBB2     		uxtb	r3, r3
 359 0016 1370     		strb	r3, [r2]
 314:Generated_Source\PSoC6\pdl\middleware\ble/cy_ble_event_handler.c **** 
 315:Generated_Source\PSoC6\pdl\middleware\ble/cy_ble_event_handler.c ****     /* Common Profile event handling */
 316:Generated_Source\PSoC6\pdl\middleware\ble/cy_ble_event_handler.c ****     switch(event)
 360              		.loc 1 316 0
 361 0018 C54B     		ldr	r3, .L108+4
 362 001a 9842     		cmp	r0, r3
 363 001c 00D1     		bne	.LCB358
 364 001e 7CE2     		b	.L32	@long jump
 365              	.LCB358:
 366 0020 32D8     		bhi	.L33
 367 0022 C44B     		ldr	r3, .L108+8
 368 0024 9842     		cmp	r0, r3
 369 0026 00D1     		bne	.LCB363
 370 0028 DDE0     		b	.L34	@long jump
 371              	.LCB363:
 372 002a 15D8     		bhi	.L35
 373 002c C24B     		ldr	r3, .L108+12
 374 002e 9842     		cmp	r0, r3
 375 0030 00D1     		bne	.LCB368
 376 0032 01E1     		b	.L36	@long jump
 377              	.LCB368:
 378 0034 07D8     		bhi	.L37
 379 0036 023B     		subs	r3, r3, #2
 380 0038 9842     		cmp	r0, r3
 381 003a 65D0     		beq	.L38
 382 003c BF4B     		ldr	r3, .L108+16
 383 003e 9842     		cmp	r0, r3
 384 0040 00D1     		bne	.LCB376
 385 0042 F5E0     		b	.L39	@long jump
 386              	.LCB376:
 387 0044 99E3     		b	.L31
 388              	.L37:
 389 0046 BE4B     		ldr	r3, .L108+20
 390 0048 9842     		cmp	r0, r3
 391 004a 00D1     		bne	.LCB383
 392 004c 32E1     		b	.L40	@long jump
 393              	.LCB383:
 394 004e BD4B     		ldr	r3, .L108+24
ARM GAS  C:\Users\D4DE~1\AppData\Local\Temp\cccuUyWy.s 			page 14


 395 0050 9842     		cmp	r0, r3
 396 0052 00D1     		bne	.LCB386
 397 0054 8CE3     		b	.L41	@long jump
 398              	.LCB386:
 399 0056 90E3     		b	.L31
 400              	.L35:
 401 0058 BB4B     		ldr	r3, .L108+28
 402 005a 9842     		cmp	r0, r3
 403 005c 4BD0     		beq	.L42
 404 005e 08D8     		bhi	.L43
 405 0060 BA4B     		ldr	r3, .L108+32
 406 0062 9842     		cmp	r0, r3
 407 0064 00D1     		bne	.LCB398
 408 0066 ADE0     		b	.L44	@long jump
 409              	.LCB398:
 410 0068 B94B     		ldr	r3, .L108+36
 411 006a 9842     		cmp	r0, r3
 412 006c 00D1     		bne	.LCB401
 413 006e A9E0     		b	.L44	@long jump
 414              	.LCB401:
 415 0070 83E3     		b	.L31
 416              	.L43:
 417 0072 B84B     		ldr	r3, .L108+40
 418 0074 9842     		cmp	r0, r3
 419 0076 00D1     		bne	.LCB408
 420 0078 53E2     		b	.L45	@long jump
 421              	.LCB408:
 422 007a 00D9     		bls	.LCB410
 423 007c 02E2     		b	.L46	@long jump
 424              	.LCB410:
 425 007e B64B     		ldr	r3, .L108+44
 426 0080 9842     		cmp	r0, r3
 427 0082 00D1     		bne	.LCB413
 428 0084 2AE1     		b	.L47	@long jump
 429              	.LCB413:
 430 0086 78E3     		b	.L31
 431              	.L33:
 432 0088 B44B     		ldr	r3, .L108+48
 433 008a 9842     		cmp	r0, r3
 434 008c 00D1     		bne	.LCB420
 435 008e FFE2     		b	.L48	@long jump
 436              	.LCB420:
 437 0090 16D8     		bhi	.L49
 438 0092 B34B     		ldr	r3, .L108+52
 439 0094 9842     		cmp	r0, r3
 440 0096 00D1     		bne	.LCB425
 441 0098 83E2     		b	.L50	@long jump
 442              	.LCB425:
 443 009a 08D8     		bhi	.L51
 444 009c B14B     		ldr	r3, .L108+56
 445 009e 9842     		cmp	r0, r3
 446 00a0 00D1     		bne	.LCB430
 447 00a2 EBE1     		b	.L52	@long jump
 448              	.LCB430:
 449 00a4 B04B     		ldr	r3, .L108+60
 450 00a6 9842     		cmp	r0, r3
 451 00a8 00D1     		bne	.LCB433
ARM GAS  C:\Users\D4DE~1\AppData\Local\Temp\cccuUyWy.s 			page 15


 452 00aa EBE1     		b	.L46	@long jump
 453              	.LCB433:
 454 00ac 65E3     		b	.L31
 455              	.L51:
 456 00ae AF4B     		ldr	r3, .L108+64
 457 00b0 9842     		cmp	r0, r3
 458 00b2 00D1     		bne	.LCB440
 459 00b4 C8E2     		b	.L53	@long jump
 460              	.LCB440:
 461 00b6 AE4B     		ldr	r3, .L108+68
 462 00b8 9842     		cmp	r0, r3
 463 00ba 00D1     		bne	.LCB443
 464 00bc E0E2     		b	.L54	@long jump
 465              	.LCB443:
 466 00be 5CE3     		b	.L31
 467              	.L49:
 468 00c0 AC4B     		ldr	r3, .L108+72
 469 00c2 9842     		cmp	r0, r3
 470 00c4 00D1     		bne	.LCB450
 471 00c6 1BE3     		b	.L55	@long jump
 472              	.LCB450:
 473 00c8 08D8     		bhi	.L56
 474 00ca AB4B     		ldr	r3, .L108+76
 475 00cc 9842     		cmp	r0, r3
 476 00ce 00D1     		bne	.LCB455
 477 00d0 0EE3     		b	.L57	@long jump
 478              	.LCB455:
 479 00d2 AA4B     		ldr	r3, .L108+80
 480 00d4 9842     		cmp	r0, r3
 481 00d6 00D1     		bne	.LCB458
 482 00d8 0EE3     		b	.L58	@long jump
 483              	.LCB458:
 484 00da 4EE3     		b	.L31
 485              	.L56:
 486 00dc A84B     		ldr	r3, .L108+84
 487 00de 9842     		cmp	r0, r3
 488 00e0 00D1     		bne	.LCB465
 489 00e2 3DE3     		b	.L59	@long jump
 490              	.LCB465:
 491 00e4 A74B     		ldr	r3, .L108+88
 492 00e6 9842     		cmp	r0, r3
 493 00e8 00D1     		bne	.LCB468
 494 00ea 56E2     		b	.L60	@long jump
 495              	.LCB468:
 496 00ec A64B     		ldr	r3, .L108+92
 497 00ee 9842     		cmp	r0, r3
 498 00f0 00D0     		beq	.LCB471
 499 00f2 42E3     		b	.L31	@long jump
 500              	.LCB471:
 501 00f4 08E3     		b	.L61
 502              	.L42:
 503              	.LVL41:
 504              	.LBB90:
 317:Generated_Source\PSoC6\pdl\middleware\ble/cy_ble_event_handler.c ****     {
 318:Generated_Source\PSoC6\pdl\middleware\ble/cy_ble_event_handler.c ****         /**********************************************************
 319:Generated_Source\PSoC6\pdl\middleware\ble/cy_ble_event_handler.c ****          * General events
 320:Generated_Source\PSoC6\pdl\middleware\ble/cy_ble_event_handler.c ****          ************************************************************/
ARM GAS  C:\Users\D4DE~1\AppData\Local\Temp\cccuUyWy.s 			page 16


 321:Generated_Source\PSoC6\pdl\middleware\ble/cy_ble_event_handler.c ****         case CY_BLE_EVT_HCI_PKT_RCVD:
 322:Generated_Source\PSoC6\pdl\middleware\ble/cy_ble_event_handler.c ****         {
 323:Generated_Source\PSoC6\pdl\middleware\ble/cy_ble_event_handler.c ****             #if (CY_BLE_MODE_PROFILE) && (!CY_BLE_STACK_MODE_IPC)
 324:Generated_Source\PSoC6\pdl\middleware\ble/cy_ble_event_handler.c ****             cy_stc_ble_hci_tx_packet_info_t *HciPktParams = (cy_stc_ble_hci_tx_packet_info_t*)evPar
 325:Generated_Source\PSoC6\pdl\middleware\ble/cy_ble_event_handler.c ****             
 326:Generated_Source\PSoC6\pdl\middleware\ble/cy_ble_event_handler.c ****             Cy_BLE_HAL_SoftHciHostReceiveControllerPkt(HciPktParams);
 505              		.loc 1 326 0
 506 00f6 2800     		movs	r0, r5
 507              	.LVL42:
 508 00f8 FFF7FEFF 		bl	Cy_BLE_HAL_SoftHciHostReceiveControllerPkt
 509              	.LVL43:
 327:Generated_Source\PSoC6\pdl\middleware\ble/cy_ble_event_handler.c ****             #endif /* (CY_BLE_MODE_PROFILE) && (!CY_BLE_STACK_MODE_IPC) */
 328:Generated_Source\PSoC6\pdl\middleware\ble/cy_ble_event_handler.c **** 
 329:Generated_Source\PSoC6\pdl\middleware\ble/cy_ble_event_handler.c ****             /* Clear the CY_BLE_CALLBACK flag not to provide a handled event to the application */
 330:Generated_Source\PSoC6\pdl\middleware\ble/cy_ble_event_handler.c ****             cy_ble_eventHandlerFlag &= (uint8_t) ~CY_BLE_CALLBACK;
 510              		.loc 1 330 0
 511 00fc 8B4A     		ldr	r2, .L108
 512 00fe 1378     		ldrb	r3, [r2]
 513 0100 0121     		movs	r1, #1
 514 0102 8B43     		bics	r3, r1
 515 0104 1370     		strb	r3, [r2]
 516              	.LBE90:
 331:Generated_Source\PSoC6\pdl\middleware\ble/cy_ble_event_handler.c ****         }
 332:Generated_Source\PSoC6\pdl\middleware\ble/cy_ble_event_handler.c ****         break;
 517              		.loc 1 332 0
 518 0106 38E3     		b	.L31
 519              	.LVL44:
 520              	.L38:
 333:Generated_Source\PSoC6\pdl\middleware\ble/cy_ble_event_handler.c ****         
 334:Generated_Source\PSoC6\pdl\middleware\ble/cy_ble_event_handler.c ****         case CY_BLE_EVT_STACK_ON:
 335:Generated_Source\PSoC6\pdl\middleware\ble/cy_ble_event_handler.c **** 
 336:Generated_Source\PSoC6\pdl\middleware\ble/cy_ble_event_handler.c ****             /* Set a device address  */
 337:Generated_Source\PSoC6\pdl\middleware\ble/cy_ble_event_handler.c ****             if(Cy_BLE_IsDeviceAddressValid(cy_ble_sflashDeviceAddress) != 0u)
 521              		.loc 1 337 0
 522 0108 A04B     		ldr	r3, .L108+96
 523 010a 1E68     		ldr	r6, [r3]
 524 010c 3000     		movs	r0, r6
 525              	.LVL45:
 526 010e FFF7FEFF 		bl	Cy_BLE_IsDeviceAddressValid
 527              	.LVL46:
 528 0112 0028     		cmp	r0, #0
 529 0114 0CD0     		beq	.L62
 338:Generated_Source\PSoC6\pdl\middleware\ble/cy_ble_event_handler.c ****             {
 339:Generated_Source\PSoC6\pdl\middleware\ble/cy_ble_event_handler.c ****                 (void)Cy_BLE_GAP_SetBdAddress(cy_ble_sflashDeviceAddress);
 530              		.loc 1 339 0
 531 0116 3000     		movs	r0, r6
 532 0118 FFF7FEFF 		bl	Cy_BLE_GAP_SetBdAddress
 533              	.LVL47:
 340:Generated_Source\PSoC6\pdl\middleware\ble/cy_ble_event_handler.c ****                 
 341:Generated_Source\PSoC6\pdl\middleware\ble/cy_ble_event_handler.c ****                 #if (CY_BLE_GAP_ROLE_PERIPHERAL || CY_BLE_GAP_ROLE_BROADCASTER)
 342:Generated_Source\PSoC6\pdl\middleware\ble/cy_ble_event_handler.c ****                 Cy_BLE_ChangeAdDeviceAddress(cy_ble_sflashDeviceAddress, 0u);
 534              		.loc 1 342 0
 535 011c 9B4E     		ldr	r6, .L108+96
 536 011e 0021     		movs	r1, #0
 537 0120 3068     		ldr	r0, [r6]
 538 0122 FFF7FEFF 		bl	Cy_BLE_ChangeAdDeviceAddress
 539              	.LVL48:
ARM GAS  C:\Users\D4DE~1\AppData\Local\Temp\cccuUyWy.s 			page 17


 343:Generated_Source\PSoC6\pdl\middleware\ble/cy_ble_event_handler.c ****                 Cy_BLE_ChangeAdDeviceAddress(cy_ble_sflashDeviceAddress, 1u);
 540              		.loc 1 343 0
 541 0126 3068     		ldr	r0, [r6]
 542 0128 0121     		movs	r1, #1
 543 012a FFF7FEFF 		bl	Cy_BLE_ChangeAdDeviceAddress
 544              	.LVL49:
 545 012e 37E0     		b	.L63
 546              	.L62:
 344:Generated_Source\PSoC6\pdl\middleware\ble/cy_ble_event_handler.c ****                 #endif /* CY_BLE_GAP_ROLE_PERIPHERAL || CY_BLE_GAP_ROLE_BROADCASTER */
 345:Generated_Source\PSoC6\pdl\middleware\ble/cy_ble_event_handler.c ****             }
 346:Generated_Source\PSoC6\pdl\middleware\ble/cy_ble_event_handler.c ****             else
 347:Generated_Source\PSoC6\pdl\middleware\ble/cy_ble_event_handler.c ****             {
 348:Generated_Source\PSoC6\pdl\middleware\ble/cy_ble_event_handler.c ****                 if(cy_ble_configPtr->params->siliconDeviceAddressEnabled != 0u)
 547              		.loc 1 348 0
 548 0130 974B     		ldr	r3, .L108+100
 549 0132 1968     		ldr	r1, [r3]
 550 0134 8B6A     		ldr	r3, [r1, #40]
 551 0136 1B79     		ldrb	r3, [r3, #4]
 552 0138 002B     		cmp	r3, #0
 553 013a 22D0     		beq	.L64
 554              	.LBB91:
 349:Generated_Source\PSoC6\pdl\middleware\ble/cy_ble_event_handler.c ****                 {
 350:Generated_Source\PSoC6\pdl\middleware\ble/cy_ble_event_handler.c ****                     uint32_t bdAddrLoc;
 351:Generated_Source\PSoC6\pdl\middleware\ble/cy_ble_event_handler.c ****                     bdAddrLoc = ((uint32_t)SFLASH->DIE_X & (uint32_t)CY_BLE_SFLASH_DIE_X_MASK) |
 555              		.loc 1 351 0
 556 013c B020     		movs	r0, #176
 557 013e 4005     		lsls	r0, r0, #21
 558 0140 944B     		ldr	r3, .L108+104
 559 0142 C35C     		ldrb	r3, [r0, r3]
 560 0144 3F22     		movs	r2, #63
 561 0146 1340     		ands	r3, r2
 352:Generated_Source\PSoC6\pdl\middleware\ble/cy_ble_event_handler.c ****                                 ((uint32_t)(((uint32_t)SFLASH->DIE_Y) & ((uint32_t)CY_BLE_SFLASH_DI
 562              		.loc 1 352 0
 563 0148 934E     		ldr	r6, .L108+108
 564 014a 865D     		ldrb	r6, [r0, r6]
 565 014c 3240     		ands	r2, r6
 566 014e 9201     		lsls	r2, r2, #6
 351:Generated_Source\PSoC6\pdl\middleware\ble/cy_ble_event_handler.c ****                                 ((uint32_t)(((uint32_t)SFLASH->DIE_Y) & ((uint32_t)CY_BLE_SFLASH_DI
 567              		.loc 1 351 0
 568 0150 1A43     		orrs	r2, r3
 353:Generated_Source\PSoC6\pdl\middleware\ble/cy_ble_event_handler.c ****                                  CY_BLE_SFLASH_DIE_X_BITS) |
 354:Generated_Source\PSoC6\pdl\middleware\ble/cy_ble_event_handler.c ****                                 ((uint32_t)(((uint32_t)SFLASH->DIE_WAFER) & ((uint32_t)CY_BLE_SFLAS
 569              		.loc 1 354 0
 570 0152 924B     		ldr	r3, .L108+112
 571 0154 C65C     		ldrb	r6, [r0, r3]
 572 0156 1F23     		movs	r3, #31
 573 0158 3340     		ands	r3, r6
 574 015a 1B03     		lsls	r3, r3, #12
 353:Generated_Source\PSoC6\pdl\middleware\ble/cy_ble_event_handler.c ****                                  CY_BLE_SFLASH_DIE_X_BITS) |
 575              		.loc 1 353 0
 576 015c 1343     		orrs	r3, r2
 355:Generated_Source\PSoC6\pdl\middleware\ble/cy_ble_event_handler.c ****                                  CY_BLE_SFLASH_DIE_XY_BITS) |
 356:Generated_Source\PSoC6\pdl\middleware\ble/cy_ble_event_handler.c ****                                 ((uint32_t)(((uint32_t)SFLASH->DIE_LOT[0]) & ((uint32_t)CY_BLE_SFLA
 577              		.loc 1 356 0
 578 015e C022     		movs	r2, #192
 579 0160 D200     		lsls	r2, r2, #3
 580 0162 805C     		ldrb	r0, [r0, r2]
ARM GAS  C:\Users\D4DE~1\AppData\Local\Temp\cccuUyWy.s 			page 18


 581 0164 7F22     		movs	r2, #127
 582 0166 0240     		ands	r2, r0
 583 0168 5204     		lsls	r2, r2, #17
 351:Generated_Source\PSoC6\pdl\middleware\ble/cy_ble_event_handler.c ****                                 ((uint32_t)(((uint32_t)SFLASH->DIE_Y) & ((uint32_t)CY_BLE_SFLASH_DI
 584              		.loc 1 351 0
 585 016a 1343     		orrs	r3, r2
 586              	.LVL50:
 357:Generated_Source\PSoC6\pdl\middleware\ble/cy_ble_event_handler.c ****                                  CY_BLE_SFLASH_DIE_XYWAFER_BITS);
 358:Generated_Source\PSoC6\pdl\middleware\ble/cy_ble_event_handler.c **** 
 359:Generated_Source\PSoC6\pdl\middleware\ble/cy_ble_event_handler.c ****                     cy_ble_configPtr->deviceAddress->bdAddr[0] = (uint8_t)bdAddrLoc;
 587              		.loc 1 359 0
 588 016c 0A6B     		ldr	r2, [r1, #48]
 589 016e 1370     		strb	r3, [r2]
 360:Generated_Source\PSoC6\pdl\middleware\ble/cy_ble_event_handler.c ****                     cy_ble_configPtr->deviceAddress->bdAddr[1] = (uint8_t)(bdAddrLoc >> 8u);
 590              		.loc 1 360 0
 591 0170 874A     		ldr	r2, .L108+100
 592 0172 1168     		ldr	r1, [r2]
 593 0174 096B     		ldr	r1, [r1, #48]
 594 0176 180A     		lsrs	r0, r3, #8
 595 0178 4870     		strb	r0, [r1, #1]
 361:Generated_Source\PSoC6\pdl\middleware\ble/cy_ble_event_handler.c ****                     cy_ble_configPtr->deviceAddress->bdAddr[2] = (uint8_t)(bdAddrLoc >> 16u);
 596              		.loc 1 361 0
 597 017a 1268     		ldr	r2, [r2]
 598 017c 126B     		ldr	r2, [r2, #48]
 599 017e 1B0C     		lsrs	r3, r3, #16
 600              	.LVL51:
 601 0180 9370     		strb	r3, [r2, #2]
 602              	.L64:
 603              	.LBE91:
 362:Generated_Source\PSoC6\pdl\middleware\ble/cy_ble_event_handler.c ****                 }
 363:Generated_Source\PSoC6\pdl\middleware\ble/cy_ble_event_handler.c ****                 (void)Cy_BLE_GAP_SetBdAddress(cy_ble_configPtr->deviceAddress);
 604              		.loc 1 363 0
 605 0182 834E     		ldr	r6, .L108+100
 606 0184 3368     		ldr	r3, [r6]
 607 0186 186B     		ldr	r0, [r3, #48]
 608 0188 FFF7FEFF 		bl	Cy_BLE_GAP_SetBdAddress
 609              	.LVL52:
 364:Generated_Source\PSoC6\pdl\middleware\ble/cy_ble_event_handler.c **** 
 365:Generated_Source\PSoC6\pdl\middleware\ble/cy_ble_event_handler.c ****                 #if (CY_BLE_GAP_ROLE_PERIPHERAL || CY_BLE_GAP_ROLE_BROADCASTER)
 366:Generated_Source\PSoC6\pdl\middleware\ble/cy_ble_event_handler.c ****                 Cy_BLE_ChangeAdDeviceAddress(cy_ble_configPtr->deviceAddress, 0u);
 610              		.loc 1 366 0
 611 018c 3368     		ldr	r3, [r6]
 612 018e 186B     		ldr	r0, [r3, #48]
 613 0190 0021     		movs	r1, #0
 614 0192 FFF7FEFF 		bl	Cy_BLE_ChangeAdDeviceAddress
 615              	.LVL53:
 367:Generated_Source\PSoC6\pdl\middleware\ble/cy_ble_event_handler.c ****                 Cy_BLE_ChangeAdDeviceAddress(cy_ble_configPtr->deviceAddress, 1u);
 616              		.loc 1 367 0
 617 0196 3368     		ldr	r3, [r6]
 618 0198 186B     		ldr	r0, [r3, #48]
 619 019a 0121     		movs	r1, #1
 620 019c FFF7FEFF 		bl	Cy_BLE_ChangeAdDeviceAddress
 621              	.LVL54:
 622              	.L63:
 368:Generated_Source\PSoC6\pdl\middleware\ble/cy_ble_event_handler.c ****                 #endif /* CY_BLE_GAP_ROLE_PERIPHERAL || CY_BLE_GAP_ROLE_BROADCASTER */
 369:Generated_Source\PSoC6\pdl\middleware\ble/cy_ble_event_handler.c ****             }
 370:Generated_Source\PSoC6\pdl\middleware\ble/cy_ble_event_handler.c ****             
ARM GAS  C:\Users\D4DE~1\AppData\Local\Temp\cccuUyWy.s 			page 19


 371:Generated_Source\PSoC6\pdl\middleware\ble/cy_ble_event_handler.c ****             /* Set the device IO Capability  */
 372:Generated_Source\PSoC6\pdl\middleware\ble/cy_ble_event_handler.c ****             (void)Cy_BLE_GAP_SetIoCap((cy_en_ble_gap_iocap_t*)&cy_ble_configPtr->params->securityIo
 623              		.loc 1 372 0
 624 01a0 7B4B     		ldr	r3, .L108+100
 625 01a2 1B68     		ldr	r3, [r3]
 626 01a4 986A     		ldr	r0, [r3, #40]
 627 01a6 0230     		adds	r0, r0, #2
 628 01a8 FFF7FEFF 		bl	Cy_BLE_GAP_SetIoCap
 629              	.LVL55:
 630              	.LBB92:
 373:Generated_Source\PSoC6\pdl\middleware\ble/cy_ble_event_handler.c ****             
 374:Generated_Source\PSoC6\pdl\middleware\ble/cy_ble_event_handler.c ****             /* Enable all 4.1 events and configured 4.2 events */  
 375:Generated_Source\PSoC6\pdl\middleware\ble/cy_ble_event_handler.c ****             {
 376:Generated_Source\PSoC6\pdl\middleware\ble/cy_ble_event_handler.c ****                 uint8_t leMask[CY_BLE_LE_MASK_LENGTH] = { CY_LO8(CY_BLE_LE_MASK),
 631              		.loc 1 376 0
 632 01ac 0822     		movs	r2, #8
 633 01ae 7C49     		ldr	r1, .L108+116
 634 01b0 05A8     		add	r0, sp, #20
 635 01b2 FFF7FEFF 		bl	memcpy
 636              	.LVL56:
 377:Generated_Source\PSoC6\pdl\middleware\ble/cy_ble_event_handler.c ****                                                           CY_HI8(CY_BLE_LE_MASK),0u,  0u, 0u, 0u, 0
 378:Generated_Source\PSoC6\pdl\middleware\ble/cy_ble_event_handler.c ****                 (void)Cy_BLE_SetLeEventMask(leMask);
 637              		.loc 1 378 0
 638 01b6 05A8     		add	r0, sp, #20
 639 01b8 FFF7FEFF 		bl	Cy_BLE_SetLeEventMask
 640              	.LVL57:
 641              	.LBE92:
 379:Generated_Source\PSoC6\pdl\middleware\ble/cy_ble_event_handler.c ****             }
 380:Generated_Source\PSoC6\pdl\middleware\ble/cy_ble_event_handler.c ****         
 381:Generated_Source\PSoC6\pdl\middleware\ble/cy_ble_event_handler.c ****             /* Update BLE state  */
 382:Generated_Source\PSoC6\pdl\middleware\ble/cy_ble_event_handler.c ****             Cy_BLE_SetState(CY_BLE_STATE_ON);
 642              		.loc 1 382 0
 643 01bc 0222     		movs	r2, #2
 644 01be 794B     		ldr	r3, .L108+120
 645 01c0 1A70     		strb	r2, [r3]
 383:Generated_Source\PSoC6\pdl\middleware\ble/cy_ble_event_handler.c ****             break;
 646              		.loc 1 383 0
 647 01c2 DAE2     		b	.L31
 648              	.LVL58:
 649              	.L44:
 384:Generated_Source\PSoC6\pdl\middleware\ble/cy_ble_event_handler.c **** 
 385:Generated_Source\PSoC6\pdl\middleware\ble/cy_ble_event_handler.c **** 
 386:Generated_Source\PSoC6\pdl\middleware\ble/cy_ble_event_handler.c ****         case CY_BLE_EVT_SOFT_RESET_COMPLETE:
 387:Generated_Source\PSoC6\pdl\middleware\ble/cy_ble_event_handler.c ****         case CY_BLE_EVT_STACK_SHUTDOWN_COMPLETE:
 388:Generated_Source\PSoC6\pdl\middleware\ble/cy_ble_event_handler.c ****             
 389:Generated_Source\PSoC6\pdl\middleware\ble/cy_ble_event_handler.c ****             /* Update BLE / Adv. / Scan states  */
 390:Generated_Source\PSoC6\pdl\middleware\ble/cy_ble_event_handler.c ****             Cy_BLE_SetState(CY_BLE_STATE_STOPPED);
 650              		.loc 1 390 0
 651 01c4 0023     		movs	r3, #0
 652 01c6 774A     		ldr	r2, .L108+120
 653 01c8 1370     		strb	r3, [r2]
 654              	.LVL59:
 655              	.LBB93:
 656              	.LBB94:
 657              		.file 2 "Generated_Source\\PSoC6\\pdl\\middleware\\ble\\cy_ble_gap.h"
   1:Generated_Source\PSoC6\pdl\middleware\ble/cy_ble_gap.h **** /***************************************************************************//**
   2:Generated_Source\PSoC6\pdl\middleware\ble/cy_ble_gap.h **** * \file cy_ble_gap.h
ARM GAS  C:\Users\D4DE~1\AppData\Local\Temp\cccuUyWy.s 			page 20


   3:Generated_Source\PSoC6\pdl\middleware\ble/cy_ble_gap.h **** * \version 2.60
   4:Generated_Source\PSoC6\pdl\middleware\ble/cy_ble_gap.h **** *
   5:Generated_Source\PSoC6\pdl\middleware\ble/cy_ble_gap.h **** * \brief
   6:Generated_Source\PSoC6\pdl\middleware\ble/cy_ble_gap.h **** *  Contains the prototypes and constants used in the BLE GAP profile.
   7:Generated_Source\PSoC6\pdl\middleware\ble/cy_ble_gap.h **** *
   8:Generated_Source\PSoC6\pdl\middleware\ble/cy_ble_gap.h **** ********************************************************************************
   9:Generated_Source\PSoC6\pdl\middleware\ble/cy_ble_gap.h **** * \copyright
  10:Generated_Source\PSoC6\pdl\middleware\ble/cy_ble_gap.h **** * Copyright 2017-2020, Cypress Semiconductor Corporation.  All rights reserved.
  11:Generated_Source\PSoC6\pdl\middleware\ble/cy_ble_gap.h **** * You may use this file only in accordance with the license, terms, conditions,
  12:Generated_Source\PSoC6\pdl\middleware\ble/cy_ble_gap.h **** * disclaimers, and limitations in the end user license agreement accompanying
  13:Generated_Source\PSoC6\pdl\middleware\ble/cy_ble_gap.h **** * the software package with which this file was provided.
  14:Generated_Source\PSoC6\pdl\middleware\ble/cy_ble_gap.h **** *******************************************************************************/
  15:Generated_Source\PSoC6\pdl\middleware\ble/cy_ble_gap.h **** 
  16:Generated_Source\PSoC6\pdl\middleware\ble/cy_ble_gap.h **** 
  17:Generated_Source\PSoC6\pdl\middleware\ble/cy_ble_gap.h **** #ifndef CY_BLE_GAP_H
  18:Generated_Source\PSoC6\pdl\middleware\ble/cy_ble_gap.h **** #define CY_BLE_GAP_H
  19:Generated_Source\PSoC6\pdl\middleware\ble/cy_ble_gap.h ****     
  20:Generated_Source\PSoC6\pdl\middleware\ble/cy_ble_gap.h **** #include "cy_ble_config.h"
  21:Generated_Source\PSoC6\pdl\middleware\ble/cy_ble_gap.h **** 
  22:Generated_Source\PSoC6\pdl\middleware\ble/cy_ble_gap.h **** /***************************************
  23:Generated_Source\PSoC6\pdl\middleware\ble/cy_ble_gap.h **** * BLE Stack includes
  24:Generated_Source\PSoC6\pdl\middleware\ble/cy_ble_gap.h **** ***************************************/
  25:Generated_Source\PSoC6\pdl\middleware\ble/cy_ble_gap.h **** #include "cy_ble_stack_gatt.h"    
  26:Generated_Source\PSoC6\pdl\middleware\ble/cy_ble_gap.h **** #include "cy_ble_stack_gap.h"
  27:Generated_Source\PSoC6\pdl\middleware\ble/cy_ble_gap.h **** #include "cy_ble_stack_gap_central.h"
  28:Generated_Source\PSoC6\pdl\middleware\ble/cy_ble_gap.h **** #include "cy_ble_stack_gap_peripheral.h"
  29:Generated_Source\PSoC6\pdl\middleware\ble/cy_ble_gap.h **** 
  30:Generated_Source\PSoC6\pdl\middleware\ble/cy_ble_gap.h **** /* C binding of definitions if building with C++ compiler */
  31:Generated_Source\PSoC6\pdl\middleware\ble/cy_ble_gap.h **** #ifdef __cplusplus
  32:Generated_Source\PSoC6\pdl\middleware\ble/cy_ble_gap.h **** extern "C" {
  33:Generated_Source\PSoC6\pdl\middleware\ble/cy_ble_gap.h **** #endif /* __cplusplus */
  34:Generated_Source\PSoC6\pdl\middleware\ble/cy_ble_gap.h **** 
  35:Generated_Source\PSoC6\pdl\middleware\ble/cy_ble_gap.h **** /***************************************
  36:Generated_Source\PSoC6\pdl\middleware\ble/cy_ble_gap.h **** * Conditional Compilation Parameters
  37:Generated_Source\PSoC6\pdl\middleware\ble/cy_ble_gap.h **** ***************************************/
  38:Generated_Source\PSoC6\pdl\middleware\ble/cy_ble_gap.h **** /**
  39:Generated_Source\PSoC6\pdl\middleware\ble/cy_ble_gap.h ****  * The BLE operation mode.
  40:Generated_Source\PSoC6\pdl\middleware\ble/cy_ble_gap.h ****  */
  41:Generated_Source\PSoC6\pdl\middleware\ble/cy_ble_gap.h **** #define CY_BLE_MODE                          (CY_BLE_CONFIG_MODE)
  42:Generated_Source\PSoC6\pdl\middleware\ble/cy_ble_gap.h **** 
  43:Generated_Source\PSoC6\pdl\middleware\ble/cy_ble_gap.h **** /** 
  44:Generated_Source\PSoC6\pdl\middleware\ble/cy_ble_gap.h ****  * Maximum number of BLE connections
  45:Generated_Source\PSoC6\pdl\middleware\ble/cy_ble_gap.h ****  * This parameter displays how many BLE connections (both Central and 
  46:Generated_Source\PSoC6\pdl\middleware\ble/cy_ble_gap.h ****  * Peripheral) are allowed. Valid range is from 1 to 4.
  47:Generated_Source\PSoC6\pdl\middleware\ble/cy_ble_gap.h ****  */
  48:Generated_Source\PSoC6\pdl\middleware\ble/cy_ble_gap.h **** #define CY_BLE_CONN_COUNT                    (CY_BLE_CONFIG_CONN_COUNT)
  49:Generated_Source\PSoC6\pdl\middleware\ble/cy_ble_gap.h ****  
  50:Generated_Source\PSoC6\pdl\middleware\ble/cy_ble_gap.h **** /**
  51:Generated_Source\PSoC6\pdl\middleware\ble/cy_ble_gap.h ****  * The GAP Role 
  52:Generated_Source\PSoC6\pdl\middleware\ble/cy_ble_gap.h ****  * The following defined mask can be used:
  53:Generated_Source\PSoC6\pdl\middleware\ble/cy_ble_gap.h ****  * CY_BLE_GAP_PERIPHERAL  (0x01u) - device operates as peripheral.
  54:Generated_Source\PSoC6\pdl\middleware\ble/cy_ble_gap.h ****  * CY_BLE_GAP_CENTRAL     (0x02u) - device operates as central. 
  55:Generated_Source\PSoC6\pdl\middleware\ble/cy_ble_gap.h ****  * CY_BLE_GAP_BROADCASTER (0x04u) - device operates as broadcaster.
  56:Generated_Source\PSoC6\pdl\middleware\ble/cy_ble_gap.h ****  * CY_BLE_GAP_OBSERVER    (0x08u) - device operates as observer.
  57:Generated_Source\PSoC6\pdl\middleware\ble/cy_ble_gap.h ****  * CY_BLE_GAP_HCI         (0x00u) - used when BLE operates in HCI mode.
  58:Generated_Source\PSoC6\pdl\middleware\ble/cy_ble_gap.h ****  */ 
  59:Generated_Source\PSoC6\pdl\middleware\ble/cy_ble_gap.h **** #define CY_BLE_GAP_ROLE                       (CY_BLE_CONFIG_GAP_ROLE)
ARM GAS  C:\Users\D4DE~1\AppData\Local\Temp\cccuUyWy.s 			page 21


  60:Generated_Source\PSoC6\pdl\middleware\ble/cy_ble_gap.h **** 
  61:Generated_Source\PSoC6\pdl\middleware\ble/cy_ble_gap.h **** /** The number of GAP Peripheral configurations structures */
  62:Generated_Source\PSoC6\pdl\middleware\ble/cy_ble_gap.h **** #define CY_BLE_GAP_PERIPHERAL_COUNT           (CY_BLE_CONFIG_GAP_PERIPHERAL_COUNT)
  63:Generated_Source\PSoC6\pdl\middleware\ble/cy_ble_gap.h **** 
  64:Generated_Source\PSoC6\pdl\middleware\ble/cy_ble_gap.h **** /** The number of GAP Broadcaster configurations structures */
  65:Generated_Source\PSoC6\pdl\middleware\ble/cy_ble_gap.h **** #define CY_BLE_GAP_BROADCASTER_COUNT          (CY_BLE_CONFIG_GAP_BROADCASTER_COUNT)
  66:Generated_Source\PSoC6\pdl\middleware\ble/cy_ble_gap.h **** 
  67:Generated_Source\PSoC6\pdl\middleware\ble/cy_ble_gap.h **** /** The number of GAP Central configurations structures */
  68:Generated_Source\PSoC6\pdl\middleware\ble/cy_ble_gap.h **** #define CY_BLE_GAP_CENTRAL_COUNT              (CY_BLE_CONFIG_GAP_CENTRAL_COUNT)
  69:Generated_Source\PSoC6\pdl\middleware\ble/cy_ble_gap.h **** 
  70:Generated_Source\PSoC6\pdl\middleware\ble/cy_ble_gap.h **** /** The number of GAP Observer configurations structures */
  71:Generated_Source\PSoC6\pdl\middleware\ble/cy_ble_gap.h **** #define CY_BLE_GAP_OBSERVER_COUNT             (CY_BLE_CONFIG_GAP_OBSERVER_COUNT)
  72:Generated_Source\PSoC6\pdl\middleware\ble/cy_ble_gap.h **** 
  73:Generated_Source\PSoC6\pdl\middleware\ble/cy_ble_gap.h **** /** The number of Security configurations structures */
  74:Generated_Source\PSoC6\pdl\middleware\ble/cy_ble_gap.h **** #define CY_BLE_AUTH_INFO_COUNT                (CY_BLE_CONFIG_AUTH_INFO_COUNT)
  75:Generated_Source\PSoC6\pdl\middleware\ble/cy_ble_gap.h **** 
  76:Generated_Source\PSoC6\pdl\middleware\ble/cy_ble_gap.h **** /** The Bonding Requirement structures */
  77:Generated_Source\PSoC6\pdl\middleware\ble/cy_ble_gap.h **** #define CY_BLE_BONDING_REQUIREMENT            (CY_BLE_CONFIG_BONDING_REQUIREMENT)
  78:Generated_Source\PSoC6\pdl\middleware\ble/cy_ble_gap.h **** 
  79:Generated_Source\PSoC6\pdl\middleware\ble/cy_ble_gap.h **** /** The GAP Role defines */
  80:Generated_Source\PSoC6\pdl\middleware\ble/cy_ble_gap.h **** #define CY_BLE_GAP_ROLE_PERIPHERAL            (0u != (CY_BLE_GAP_ROLE & CY_BLE_GAP_PERIPHERAL))
  81:Generated_Source\PSoC6\pdl\middleware\ble/cy_ble_gap.h **** #define CY_BLE_GAP_ROLE_CENTRAL               (0u != (CY_BLE_GAP_ROLE & CY_BLE_GAP_CENTRAL))
  82:Generated_Source\PSoC6\pdl\middleware\ble/cy_ble_gap.h **** #define CY_BLE_GAP_ROLE_OBSERVER              (0u != (CY_BLE_GAP_ROLE & CY_BLE_GAP_OBSERVER))
  83:Generated_Source\PSoC6\pdl\middleware\ble/cy_ble_gap.h **** #define CY_BLE_GAP_ROLE_BROADCASTER           (0u != (CY_BLE_GAP_ROLE & CY_BLE_GAP_BROADCASTER))
  84:Generated_Source\PSoC6\pdl\middleware\ble/cy_ble_gap.h **** 
  85:Generated_Source\PSoC6\pdl\middleware\ble/cy_ble_gap.h **** #define CY_BLE_GAPP_CONF_COUNT                (CY_BLE_GAP_PERIPHERAL_COUNT + CY_BLE_GAP_BROADCASTER
  86:Generated_Source\PSoC6\pdl\middleware\ble/cy_ble_gap.h **** #define CY_BLE_GAPC_CONF_COUNT                (CY_BLE_GAP_CENTRAL_COUNT + CY_BLE_GAP_OBSERVER_COUNT
  87:Generated_Source\PSoC6\pdl\middleware\ble/cy_ble_gap.h **** 
  88:Generated_Source\PSoC6\pdl\middleware\ble/cy_ble_gap.h **** /***************************************
  89:Generated_Source\PSoC6\pdl\middleware\ble/cy_ble_gap.h **** * Type Definitions
  90:Generated_Source\PSoC6\pdl\middleware\ble/cy_ble_gap.h **** ***************************************/
  91:Generated_Source\PSoC6\pdl\middleware\ble/cy_ble_gap.h **** 
  92:Generated_Source\PSoC6\pdl\middleware\ble/cy_ble_gap.h **** #if (CY_BLE_MODE_PROFILE)
  93:Generated_Source\PSoC6\pdl\middleware\ble/cy_ble_gap.h **** 
  94:Generated_Source\PSoC6\pdl\middleware\ble/cy_ble_gap.h **** /***************************************
  95:Generated_Source\PSoC6\pdl\middleware\ble/cy_ble_gap.h **** * Enumerated Types and Structures
  96:Generated_Source\PSoC6\pdl\middleware\ble/cy_ble_gap.h **** ***************************************/
  97:Generated_Source\PSoC6\pdl\middleware\ble/cy_ble_gap.h **** 
  98:Generated_Source\PSoC6\pdl\middleware\ble/cy_ble_gap.h **** /**
  99:Generated_Source\PSoC6\pdl\middleware\ble/cy_ble_gap.h ****  * \addtogroup group_ble_common_api_gap_definitions
 100:Generated_Source\PSoC6\pdl\middleware\ble/cy_ble_gap.h ****  * @{
 101:Generated_Source\PSoC6\pdl\middleware\ble/cy_ble_gap.h ****  */
 102:Generated_Source\PSoC6\pdl\middleware\ble/cy_ble_gap.h **** 
 103:Generated_Source\PSoC6\pdl\middleware\ble/cy_ble_gap.h **** /** BLE state machine type */
 104:Generated_Source\PSoC6\pdl\middleware\ble/cy_ble_gap.h **** typedef enum
 105:Generated_Source\PSoC6\pdl\middleware\ble/cy_ble_gap.h **** {
 106:Generated_Source\PSoC6\pdl\middleware\ble/cy_ble_gap.h ****     CY_BLE_STATE_STOPPED,                             /**< BLE is turned off */
 107:Generated_Source\PSoC6\pdl\middleware\ble/cy_ble_gap.h ****     CY_BLE_STATE_INITIALIZING,                        /**< Initializing state */
 108:Generated_Source\PSoC6\pdl\middleware\ble/cy_ble_gap.h ****     CY_BLE_STATE_ON,                                  /**< BLE is turned on */
 109:Generated_Source\PSoC6\pdl\middleware\ble/cy_ble_gap.h **** #if (CY_BLE_GAP_ROLE_CENTRAL)
 110:Generated_Source\PSoC6\pdl\middleware\ble/cy_ble_gap.h ****     CY_BLE_STATE_CONNECTING,                          /**< Connecting */
 111:Generated_Source\PSoC6\pdl\middleware\ble/cy_ble_gap.h **** #endif /* CY_BLE_GAP_ROLE_CENTRAL */
 112:Generated_Source\PSoC6\pdl\middleware\ble/cy_ble_gap.h **** } cy_en_ble_state_t;
 113:Generated_Source\PSoC6\pdl\middleware\ble/cy_ble_gap.h **** 
 114:Generated_Source\PSoC6\pdl\middleware\ble/cy_ble_gap.h **** 
 115:Generated_Source\PSoC6\pdl\middleware\ble/cy_ble_gap.h **** /** Scanning state machine type */
 116:Generated_Source\PSoC6\pdl\middleware\ble/cy_ble_gap.h **** typedef enum
ARM GAS  C:\Users\D4DE~1\AppData\Local\Temp\cccuUyWy.s 			page 22


 117:Generated_Source\PSoC6\pdl\middleware\ble/cy_ble_gap.h **** {
 118:Generated_Source\PSoC6\pdl\middleware\ble/cy_ble_gap.h ****     CY_BLE_SCAN_STATE_STOPPED,                        /**< Scanning is stopped */
 119:Generated_Source\PSoC6\pdl\middleware\ble/cy_ble_gap.h ****     CY_BLE_SCAN_STATE_SCAN_INITIATED,                 /**< Scanning is initiated */
 120:Generated_Source\PSoC6\pdl\middleware\ble/cy_ble_gap.h ****     CY_BLE_SCAN_STATE_SCANNING,                       /**< Scanning process */
 121:Generated_Source\PSoC6\pdl\middleware\ble/cy_ble_gap.h ****     CY_BLE_SCAN_STATE_STOP_INITIATED                  /**< Stop scanning is initiated */
 122:Generated_Source\PSoC6\pdl\middleware\ble/cy_ble_gap.h **** } cy_en_ble_scan_state_t;
 123:Generated_Source\PSoC6\pdl\middleware\ble/cy_ble_gap.h **** 
 124:Generated_Source\PSoC6\pdl\middleware\ble/cy_ble_gap.h **** /** Advertising state machine type */
 125:Generated_Source\PSoC6\pdl\middleware\ble/cy_ble_gap.h **** typedef enum
 126:Generated_Source\PSoC6\pdl\middleware\ble/cy_ble_gap.h **** {
 127:Generated_Source\PSoC6\pdl\middleware\ble/cy_ble_gap.h ****     CY_BLE_ADV_STATE_STOPPED,                         /**< Advertising is stopped */
 128:Generated_Source\PSoC6\pdl\middleware\ble/cy_ble_gap.h ****     CY_BLE_ADV_STATE_ADV_INITIATED,                   /**< Advertising is initiated */
 129:Generated_Source\PSoC6\pdl\middleware\ble/cy_ble_gap.h ****     CY_BLE_ADV_STATE_ADVERTISING,                     /**< Advertising process */
 130:Generated_Source\PSoC6\pdl\middleware\ble/cy_ble_gap.h ****     CY_BLE_ADV_STATE_STOP_INITIATED                   /**< Stop advertising is initiated */
 131:Generated_Source\PSoC6\pdl\middleware\ble/cy_ble_gap.h **** } cy_en_ble_adv_state_t;
 132:Generated_Source\PSoC6\pdl\middleware\ble/cy_ble_gap.h **** 
 133:Generated_Source\PSoC6\pdl\middleware\ble/cy_ble_gap.h **** /** Connection state machine type */
 134:Generated_Source\PSoC6\pdl\middleware\ble/cy_ble_gap.h **** typedef enum
 135:Generated_Source\PSoC6\pdl\middleware\ble/cy_ble_gap.h **** {
 136:Generated_Source\PSoC6\pdl\middleware\ble/cy_ble_gap.h ****     CY_BLE_CONN_STATE_DISCONNECTED,                   /**< Essentially idle state */
 137:Generated_Source\PSoC6\pdl\middleware\ble/cy_ble_gap.h ****     CY_BLE_CONN_STATE_CLIENT_DISCONNECTED_DISCOVERED, /**< Server is disconnected but discovered */
 138:Generated_Source\PSoC6\pdl\middleware\ble/cy_ble_gap.h ****     CY_BLE_CONN_STATE_CONNECTED,                      /**< Peer device is connected for this and fo
 139:Generated_Source\PSoC6\pdl\middleware\ble/cy_ble_gap.h ****     CY_BLE_CONN_STATE_CLIENT_SRVC_DISCOVERING,        /**< Server services are being discovered */
 140:Generated_Source\PSoC6\pdl\middleware\ble/cy_ble_gap.h ****     CY_BLE_CONN_STATE_CLIENT_INCL_DISCOVERING,        /**< Server included services are being disco
 141:Generated_Source\PSoC6\pdl\middleware\ble/cy_ble_gap.h ****     CY_BLE_CONN_STATE_CLIENT_CHAR_DISCOVERING,        /**< Server characteristics are being discove
 142:Generated_Source\PSoC6\pdl\middleware\ble/cy_ble_gap.h ****     CY_BLE_CONN_STATE_CLIENT_DESCR_DISCOVERING,       /**< Server char. descriptors are being disco
 143:Generated_Source\PSoC6\pdl\middleware\ble/cy_ble_gap.h ****     CY_BLE_CONN_STATE_CLIENT_DISCOVERED               /**< Server is discovered */
 144:Generated_Source\PSoC6\pdl\middleware\ble/cy_ble_gap.h **** } cy_en_ble_conn_state_t;
 145:Generated_Source\PSoC6\pdl\middleware\ble/cy_ble_gap.h **** 
 146:Generated_Source\PSoC6\pdl\middleware\ble/cy_ble_gap.h **** /** Structure with Generic Access Profile Service (GAPS) attribute handles */
 147:Generated_Source\PSoC6\pdl\middleware\ble/cy_ble_gap.h **** typedef struct
 148:Generated_Source\PSoC6\pdl\middleware\ble/cy_ble_gap.h **** {
 149:Generated_Source\PSoC6\pdl\middleware\ble/cy_ble_gap.h ****     /** Service handle*/
 150:Generated_Source\PSoC6\pdl\middleware\ble/cy_ble_gap.h ****     cy_ble_gatt_db_attr_handle_t serviceHandle;
 151:Generated_Source\PSoC6\pdl\middleware\ble/cy_ble_gap.h **** 
 152:Generated_Source\PSoC6\pdl\middleware\ble/cy_ble_gap.h ****     /** Handle of the GAPS Device Name Characteristic */
 153:Generated_Source\PSoC6\pdl\middleware\ble/cy_ble_gap.h ****     cy_ble_gatt_db_attr_handle_t deviceNameCharHandle;
 154:Generated_Source\PSoC6\pdl\middleware\ble/cy_ble_gap.h **** 
 155:Generated_Source\PSoC6\pdl\middleware\ble/cy_ble_gap.h ****     /** Handle of the GAPS Appearance Characteristic */
 156:Generated_Source\PSoC6\pdl\middleware\ble/cy_ble_gap.h ****     cy_ble_gatt_db_attr_handle_t appearanceCharHandle;
 157:Generated_Source\PSoC6\pdl\middleware\ble/cy_ble_gap.h **** 
 158:Generated_Source\PSoC6\pdl\middleware\ble/cy_ble_gap.h ****     /** Handle of the GAPS Peripheral Preferred Connection Parameters Characteristic */
 159:Generated_Source\PSoC6\pdl\middleware\ble/cy_ble_gap.h ****     cy_ble_gatt_db_attr_handle_t prefConnParamCharHandle;
 160:Generated_Source\PSoC6\pdl\middleware\ble/cy_ble_gap.h **** 
 161:Generated_Source\PSoC6\pdl\middleware\ble/cy_ble_gap.h ****     /** Handle of the GAPS Central Address Resolution characteristic */
 162:Generated_Source\PSoC6\pdl\middleware\ble/cy_ble_gap.h ****     cy_ble_gatt_db_attr_handle_t centralAddrResolutionCharHandle;
 163:Generated_Source\PSoC6\pdl\middleware\ble/cy_ble_gap.h **** 
 164:Generated_Source\PSoC6\pdl\middleware\ble/cy_ble_gap.h ****     /** Handle of the GAPS Resolvable Private Address Only characteristic */
 165:Generated_Source\PSoC6\pdl\middleware\ble/cy_ble_gap.h ****     cy_ble_gatt_db_attr_handle_t resolvablePrivateAddressOnly;
 166:Generated_Source\PSoC6\pdl\middleware\ble/cy_ble_gap.h **** } cy_stc_ble_gaps_t;
 167:Generated_Source\PSoC6\pdl\middleware\ble/cy_ble_gap.h **** 
 168:Generated_Source\PSoC6\pdl\middleware\ble/cy_ble_gap.h **** /** GAP Service characteristics server's GATT DB handles structure type */
 169:Generated_Source\PSoC6\pdl\middleware\ble/cy_ble_gap.h **** typedef struct
 170:Generated_Source\PSoC6\pdl\middleware\ble/cy_ble_gap.h **** {
 171:Generated_Source\PSoC6\pdl\middleware\ble/cy_ble_gap.h ****     /** Handle of the GAPS Device Name Characteristic */
 172:Generated_Source\PSoC6\pdl\middleware\ble/cy_ble_gap.h ****     cy_ble_gatt_db_attr_handle_t deviceNameCharHandle;
 173:Generated_Source\PSoC6\pdl\middleware\ble/cy_ble_gap.h **** 
ARM GAS  C:\Users\D4DE~1\AppData\Local\Temp\cccuUyWy.s 			page 23


 174:Generated_Source\PSoC6\pdl\middleware\ble/cy_ble_gap.h ****     /** Handle of the GAPS Appearance Characteristic */
 175:Generated_Source\PSoC6\pdl\middleware\ble/cy_ble_gap.h ****     cy_ble_gatt_db_attr_handle_t appearanceCharHandle;
 176:Generated_Source\PSoC6\pdl\middleware\ble/cy_ble_gap.h **** 
 177:Generated_Source\PSoC6\pdl\middleware\ble/cy_ble_gap.h ****     /** Handle of the GAPS Peripheral Privacy Flag Parameters Characteristic */
 178:Generated_Source\PSoC6\pdl\middleware\ble/cy_ble_gap.h ****     cy_ble_gatt_db_attr_handle_t periphPrivacyCharHandle;
 179:Generated_Source\PSoC6\pdl\middleware\ble/cy_ble_gap.h **** 
 180:Generated_Source\PSoC6\pdl\middleware\ble/cy_ble_gap.h ****     /** Handle of the GAPS Reconnection Address Characteristic */
 181:Generated_Source\PSoC6\pdl\middleware\ble/cy_ble_gap.h ****     cy_ble_gatt_db_attr_handle_t reconnAddrCharHandle;
 182:Generated_Source\PSoC6\pdl\middleware\ble/cy_ble_gap.h **** 
 183:Generated_Source\PSoC6\pdl\middleware\ble/cy_ble_gap.h ****     /** Handle of the GAPS Peripheral Preferred Connection Parameters Characteristic */
 184:Generated_Source\PSoC6\pdl\middleware\ble/cy_ble_gap.h ****     cy_ble_gatt_db_attr_handle_t prefConnParamCharHandle;
 185:Generated_Source\PSoC6\pdl\middleware\ble/cy_ble_gap.h **** 
 186:Generated_Source\PSoC6\pdl\middleware\ble/cy_ble_gap.h ****     /** Handle of the GAPS Central Address Resolution characteristic */
 187:Generated_Source\PSoC6\pdl\middleware\ble/cy_ble_gap.h ****     cy_ble_gatt_db_attr_handle_t centralAddrResolutionCharHandle;
 188:Generated_Source\PSoC6\pdl\middleware\ble/cy_ble_gap.h **** 
 189:Generated_Source\PSoC6\pdl\middleware\ble/cy_ble_gap.h ****     /** Handle of the GAPS Resolvable Private Address Only characteristic */
 190:Generated_Source\PSoC6\pdl\middleware\ble/cy_ble_gap.h ****     cy_ble_gatt_db_attr_handle_t resolvablePrivateAddressOnly;
 191:Generated_Source\PSoC6\pdl\middleware\ble/cy_ble_gap.h **** }cy_stc_ble_gapc_t;
 192:Generated_Source\PSoC6\pdl\middleware\ble/cy_ble_gap.h **** 
 193:Generated_Source\PSoC6\pdl\middleware\ble/cy_ble_gap.h **** /* Stack mode defines */
 194:Generated_Source\PSoC6\pdl\middleware\ble/cy_ble_gap.h **** 
 195:Generated_Source\PSoC6\pdl\middleware\ble/cy_ble_gap.h **** /** Advertisement SIG assigned numbers */
 196:Generated_Source\PSoC6\pdl\middleware\ble/cy_ble_gap.h **** typedef enum
 197:Generated_Source\PSoC6\pdl\middleware\ble/cy_ble_gap.h **** {
 198:Generated_Source\PSoC6\pdl\middleware\ble/cy_ble_gap.h ****     /** Flags */
 199:Generated_Source\PSoC6\pdl\middleware\ble/cy_ble_gap.h ****     CY_BLE_GAP_ADV_FLAGS = 0x01u,
 200:Generated_Source\PSoC6\pdl\middleware\ble/cy_ble_gap.h **** 
 201:Generated_Source\PSoC6\pdl\middleware\ble/cy_ble_gap.h ****     /** Incomplete List of 16-bit Service Class UUIDs */
 202:Generated_Source\PSoC6\pdl\middleware\ble/cy_ble_gap.h ****     CY_BLE_GAP_ADV_INCOMPL_16UUID,
 203:Generated_Source\PSoC6\pdl\middleware\ble/cy_ble_gap.h **** 
 204:Generated_Source\PSoC6\pdl\middleware\ble/cy_ble_gap.h ****     /** Complete List of 16-bit Service Class UUIDs */
 205:Generated_Source\PSoC6\pdl\middleware\ble/cy_ble_gap.h ****     CY_BLE_GAP_ADV_COMPL_16UUID,
 206:Generated_Source\PSoC6\pdl\middleware\ble/cy_ble_gap.h **** 
 207:Generated_Source\PSoC6\pdl\middleware\ble/cy_ble_gap.h ****     /** Incomplete List of 32-bit Service Class UUIDs */
 208:Generated_Source\PSoC6\pdl\middleware\ble/cy_ble_gap.h ****     CY_BLE_GAP_ADV_INCOMPL_32_UUID,
 209:Generated_Source\PSoC6\pdl\middleware\ble/cy_ble_gap.h **** 
 210:Generated_Source\PSoC6\pdl\middleware\ble/cy_ble_gap.h ****     /** Complete List of 32-bit Service Class UUIDs */
 211:Generated_Source\PSoC6\pdl\middleware\ble/cy_ble_gap.h ****     CY_BLE_GAP_ADV_COMPL_32_UUID,
 212:Generated_Source\PSoC6\pdl\middleware\ble/cy_ble_gap.h **** 
 213:Generated_Source\PSoC6\pdl\middleware\ble/cy_ble_gap.h ****     /** Incomplete List of 128-bit Service Class UUIDs */
 214:Generated_Source\PSoC6\pdl\middleware\ble/cy_ble_gap.h ****     CY_BLE_GAP_ADV_INCOMPL_128_UUID,
 215:Generated_Source\PSoC6\pdl\middleware\ble/cy_ble_gap.h **** 
 216:Generated_Source\PSoC6\pdl\middleware\ble/cy_ble_gap.h ****     /** Complete List of 128-bit Service Class UUIDs */
 217:Generated_Source\PSoC6\pdl\middleware\ble/cy_ble_gap.h ****     CY_BLE_GAP_ADV_COMPL_128_UUID,
 218:Generated_Source\PSoC6\pdl\middleware\ble/cy_ble_gap.h **** 
 219:Generated_Source\PSoC6\pdl\middleware\ble/cy_ble_gap.h ****     /** Shortened Local Name */
 220:Generated_Source\PSoC6\pdl\middleware\ble/cy_ble_gap.h ****     CY_BLE_GAP_ADV_SHORT_NAME,
 221:Generated_Source\PSoC6\pdl\middleware\ble/cy_ble_gap.h **** 
 222:Generated_Source\PSoC6\pdl\middleware\ble/cy_ble_gap.h ****     /** Complete Local Name */
 223:Generated_Source\PSoC6\pdl\middleware\ble/cy_ble_gap.h ****     CY_BLE_GAP_ADV_COMPL_NAME,
 224:Generated_Source\PSoC6\pdl\middleware\ble/cy_ble_gap.h **** 
 225:Generated_Source\PSoC6\pdl\middleware\ble/cy_ble_gap.h ****     /** Tx Power Level */
 226:Generated_Source\PSoC6\pdl\middleware\ble/cy_ble_gap.h ****     CY_BLE_GAP_ADV_TX_PWR_LVL,
 227:Generated_Source\PSoC6\pdl\middleware\ble/cy_ble_gap.h **** 
 228:Generated_Source\PSoC6\pdl\middleware\ble/cy_ble_gap.h ****     /** Class of Device */
 229:Generated_Source\PSoC6\pdl\middleware\ble/cy_ble_gap.h ****     CY_BLE_GAP_ADV_CLASS_OF_DEVICE = 0x0Du,
 230:Generated_Source\PSoC6\pdl\middleware\ble/cy_ble_gap.h **** 
ARM GAS  C:\Users\D4DE~1\AppData\Local\Temp\cccuUyWy.s 			page 24


 231:Generated_Source\PSoC6\pdl\middleware\ble/cy_ble_gap.h ****     /** Simple Pairing Hash C */
 232:Generated_Source\PSoC6\pdl\middleware\ble/cy_ble_gap.h ****     CY_BLE_GAP_ADV_SMPL_PAIR_HASH_C,
 233:Generated_Source\PSoC6\pdl\middleware\ble/cy_ble_gap.h **** 
 234:Generated_Source\PSoC6\pdl\middleware\ble/cy_ble_gap.h ****     /** Simple Pairing Randomizer R */
 235:Generated_Source\PSoC6\pdl\middleware\ble/cy_ble_gap.h ****     CY_BLE_GAP_ADV_SMPL_PAIR_RANDOM_R,
 236:Generated_Source\PSoC6\pdl\middleware\ble/cy_ble_gap.h **** 
 237:Generated_Source\PSoC6\pdl\middleware\ble/cy_ble_gap.h ****     /** Device ID*/
 238:Generated_Source\PSoC6\pdl\middleware\ble/cy_ble_gap.h ****     CY_BLE_GAP_ADV_DEVICE_ID,
 239:Generated_Source\PSoC6\pdl\middleware\ble/cy_ble_gap.h **** 
 240:Generated_Source\PSoC6\pdl\middleware\ble/cy_ble_gap.h ****     /** Security Manager TK Value */
 241:Generated_Source\PSoC6\pdl\middleware\ble/cy_ble_gap.h ****     CY_BLE_GAP_ADV_SCRT_MNGR_TK_VAL = 0x10u,
 242:Generated_Source\PSoC6\pdl\middleware\ble/cy_ble_gap.h **** 
 243:Generated_Source\PSoC6\pdl\middleware\ble/cy_ble_gap.h ****     /** Security Manager Out of Band Flags */
 244:Generated_Source\PSoC6\pdl\middleware\ble/cy_ble_gap.h ****     CY_BLE_GAP_ADV_SCRT_MNGR_OOB_FLAGS,
 245:Generated_Source\PSoC6\pdl\middleware\ble/cy_ble_gap.h **** 
 246:Generated_Source\PSoC6\pdl\middleware\ble/cy_ble_gap.h ****     /** Slave Connection Interval Range */
 247:Generated_Source\PSoC6\pdl\middleware\ble/cy_ble_gap.h ****     CY_BLE_GAP_ADV_SLAVE_CONN_INTRV_RANGE,
 248:Generated_Source\PSoC6\pdl\middleware\ble/cy_ble_gap.h **** 
 249:Generated_Source\PSoC6\pdl\middleware\ble/cy_ble_gap.h ****     /** List of 16-bit Service Solicitation UUIDs */
 250:Generated_Source\PSoC6\pdl\middleware\ble/cy_ble_gap.h ****     CY_BLE_GAP_ADV_SOLICIT_16UUID = 0x14u,
 251:Generated_Source\PSoC6\pdl\middleware\ble/cy_ble_gap.h **** 
 252:Generated_Source\PSoC6\pdl\middleware\ble/cy_ble_gap.h ****     /** List of 128-bit Service Solicitation UUIDs */
 253:Generated_Source\PSoC6\pdl\middleware\ble/cy_ble_gap.h ****     CY_BLE_GAP_ADV_SOLICIT_128UUID,
 254:Generated_Source\PSoC6\pdl\middleware\ble/cy_ble_gap.h **** 
 255:Generated_Source\PSoC6\pdl\middleware\ble/cy_ble_gap.h ****     /** Service Data - 16-bit UUID */
 256:Generated_Source\PSoC6\pdl\middleware\ble/cy_ble_gap.h ****     CY_BLE_GAP_ADV_SRVC_DATA_16UUID,
 257:Generated_Source\PSoC6\pdl\middleware\ble/cy_ble_gap.h **** 
 258:Generated_Source\PSoC6\pdl\middleware\ble/cy_ble_gap.h ****     /** Public Target Address */
 259:Generated_Source\PSoC6\pdl\middleware\ble/cy_ble_gap.h ****     CY_BLE_GAP_ADV_PUBLIC_TARGET_ADDR,
 260:Generated_Source\PSoC6\pdl\middleware\ble/cy_ble_gap.h **** 
 261:Generated_Source\PSoC6\pdl\middleware\ble/cy_ble_gap.h ****     /** Random Target Address */
 262:Generated_Source\PSoC6\pdl\middleware\ble/cy_ble_gap.h ****     CY_BLE_GAP_ADV_RANDOM_TARGET_ADDR,
 263:Generated_Source\PSoC6\pdl\middleware\ble/cy_ble_gap.h **** 
 264:Generated_Source\PSoC6\pdl\middleware\ble/cy_ble_gap.h ****     /** Appearance */
 265:Generated_Source\PSoC6\pdl\middleware\ble/cy_ble_gap.h ****     CY_BLE_GAP_ADV_APPEARANCE,
 266:Generated_Source\PSoC6\pdl\middleware\ble/cy_ble_gap.h **** 
 267:Generated_Source\PSoC6\pdl\middleware\ble/cy_ble_gap.h ****     /** Advertising Interval */
 268:Generated_Source\PSoC6\pdl\middleware\ble/cy_ble_gap.h ****     CY_BLE_GAP_ADV_ADVERT_INTERVAL,
 269:Generated_Source\PSoC6\pdl\middleware\ble/cy_ble_gap.h **** 
 270:Generated_Source\PSoC6\pdl\middleware\ble/cy_ble_gap.h ****     /** LE Bluetooth Device Address */
 271:Generated_Source\PSoC6\pdl\middleware\ble/cy_ble_gap.h ****     CY_BLE_GAP_ADV_LE_BT_DEVICE_ADDR,
 272:Generated_Source\PSoC6\pdl\middleware\ble/cy_ble_gap.h **** 
 273:Generated_Source\PSoC6\pdl\middleware\ble/cy_ble_gap.h ****     /** LE Role */
 274:Generated_Source\PSoC6\pdl\middleware\ble/cy_ble_gap.h ****     CY_BLE_GAP_ADV_LE_ROLE,
 275:Generated_Source\PSoC6\pdl\middleware\ble/cy_ble_gap.h **** 
 276:Generated_Source\PSoC6\pdl\middleware\ble/cy_ble_gap.h ****     /** Simple Pairing Hash C-256 */
 277:Generated_Source\PSoC6\pdl\middleware\ble/cy_ble_gap.h ****     CY_BLE_GAP_ADV_SMPL_PAIR_HASH_C256,
 278:Generated_Source\PSoC6\pdl\middleware\ble/cy_ble_gap.h **** 
 279:Generated_Source\PSoC6\pdl\middleware\ble/cy_ble_gap.h ****     /** Simple Pairing Randomizer R-256 */
 280:Generated_Source\PSoC6\pdl\middleware\ble/cy_ble_gap.h ****     CY_BLE_GAP_ADV_SMPL_PAIR_RANDOM_R256,
 281:Generated_Source\PSoC6\pdl\middleware\ble/cy_ble_gap.h **** 
 282:Generated_Source\PSoC6\pdl\middleware\ble/cy_ble_gap.h ****     /** List of 32-bit Service Solicitation UUIDs */
 283:Generated_Source\PSoC6\pdl\middleware\ble/cy_ble_gap.h ****     CY_BLE_GAP_ADV_SOLICIT_32UUID,
 284:Generated_Source\PSoC6\pdl\middleware\ble/cy_ble_gap.h **** 
 285:Generated_Source\PSoC6\pdl\middleware\ble/cy_ble_gap.h ****     /** Service Data - 32-bit UUID */
 286:Generated_Source\PSoC6\pdl\middleware\ble/cy_ble_gap.h ****     CY_BLE_GAP_ADV_SRVC_DATA_32UUID,
 287:Generated_Source\PSoC6\pdl\middleware\ble/cy_ble_gap.h **** 
ARM GAS  C:\Users\D4DE~1\AppData\Local\Temp\cccuUyWy.s 			page 25


 288:Generated_Source\PSoC6\pdl\middleware\ble/cy_ble_gap.h ****     /** Service Data - 128-bit UUID */
 289:Generated_Source\PSoC6\pdl\middleware\ble/cy_ble_gap.h ****     CY_BLE_GAP_ADV_SRVC_DATA_128UUID,
 290:Generated_Source\PSoC6\pdl\middleware\ble/cy_ble_gap.h **** 
 291:Generated_Source\PSoC6\pdl\middleware\ble/cy_ble_gap.h ****     /** 3D Information Data */
 292:Generated_Source\PSoC6\pdl\middleware\ble/cy_ble_gap.h ****     CY_BLE_GAP_ADV_3D_INFO_DATA = 0x3D,
 293:Generated_Source\PSoC6\pdl\middleware\ble/cy_ble_gap.h **** 
 294:Generated_Source\PSoC6\pdl\middleware\ble/cy_ble_gap.h ****     /** Manufacturer Specific Data */
 295:Generated_Source\PSoC6\pdl\middleware\ble/cy_ble_gap.h ****     CY_BLE_GAP_ADV_MANUFACTURER_SPECIFIC_DATA = 0xFF
 296:Generated_Source\PSoC6\pdl\middleware\ble/cy_ble_gap.h **** }cy_en_ble_gap_adv_assign_numbers_t;
 297:Generated_Source\PSoC6\pdl\middleware\ble/cy_ble_gap.h **** 
 298:Generated_Source\PSoC6\pdl\middleware\ble/cy_ble_gap.h **** /** GAPP advertising configuration parameters structure */
 299:Generated_Source\PSoC6\pdl\middleware\ble/cy_ble_gap.h **** typedef struct
 300:Generated_Source\PSoC6\pdl\middleware\ble/cy_ble_gap.h **** {
 301:Generated_Source\PSoC6\pdl\middleware\ble/cy_ble_gap.h ****     /** The minimum interval for fast advertising the data and establishing the LE Connection */
 302:Generated_Source\PSoC6\pdl\middleware\ble/cy_ble_gap.h ****     uint16_t fastAdvIntervalMin;
 303:Generated_Source\PSoC6\pdl\middleware\ble/cy_ble_gap.h **** 
 304:Generated_Source\PSoC6\pdl\middleware\ble/cy_ble_gap.h ****     /** The maximum interval for fast advertising the data and establishing the LE Connection */
 305:Generated_Source\PSoC6\pdl\middleware\ble/cy_ble_gap.h ****     uint16_t fastAdvIntervalMax;
 306:Generated_Source\PSoC6\pdl\middleware\ble/cy_ble_gap.h **** 
 307:Generated_Source\PSoC6\pdl\middleware\ble/cy_ble_gap.h ****     /** The timeout value of  fast advertising with fast advertising interval parameters */
 308:Generated_Source\PSoC6\pdl\middleware\ble/cy_ble_gap.h ****     uint16_t fastAdvTimeOut;
 309:Generated_Source\PSoC6\pdl\middleware\ble/cy_ble_gap.h **** 
 310:Generated_Source\PSoC6\pdl\middleware\ble/cy_ble_gap.h ****     /** Slow advertising enable */
 311:Generated_Source\PSoC6\pdl\middleware\ble/cy_ble_gap.h ****     uint8_t  slowAdvEnable;
 312:Generated_Source\PSoC6\pdl\middleware\ble/cy_ble_gap.h **** 
 313:Generated_Source\PSoC6\pdl\middleware\ble/cy_ble_gap.h ****     /** The minimum interval for slow advertising the data and establishing the LE Connection */
 314:Generated_Source\PSoC6\pdl\middleware\ble/cy_ble_gap.h ****     uint16_t slowAdvIntervalMin;
 315:Generated_Source\PSoC6\pdl\middleware\ble/cy_ble_gap.h **** 
 316:Generated_Source\PSoC6\pdl\middleware\ble/cy_ble_gap.h ****     /** The maximum interval for slow  advertising the data and establishing the LE Connection */
 317:Generated_Source\PSoC6\pdl\middleware\ble/cy_ble_gap.h ****     uint16_t slowAdvIntervalMax;
 318:Generated_Source\PSoC6\pdl\middleware\ble/cy_ble_gap.h **** 
 319:Generated_Source\PSoC6\pdl\middleware\ble/cy_ble_gap.h ****     /** The timeout value of slow advertising with slow advertising interval parameters */
 320:Generated_Source\PSoC6\pdl\middleware\ble/cy_ble_gap.h ****     uint16_t slowAdvTimeOut;
 321:Generated_Source\PSoC6\pdl\middleware\ble/cy_ble_gap.h **** }cy_stc_ble_gapp_adv_params_t;
 322:Generated_Source\PSoC6\pdl\middleware\ble/cy_ble_gap.h **** 
 323:Generated_Source\PSoC6\pdl\middleware\ble/cy_ble_gap.h **** /** GAPC advertising configuration parameters structure */
 324:Generated_Source\PSoC6\pdl\middleware\ble/cy_ble_gap.h **** typedef struct
 325:Generated_Source\PSoC6\pdl\middleware\ble/cy_ble_gap.h **** {
 326:Generated_Source\PSoC6\pdl\middleware\ble/cy_ble_gap.h ****     /** The scan interval when operating in Fast connection */
 327:Generated_Source\PSoC6\pdl\middleware\ble/cy_ble_gap.h ****     uint16_t fastScanInterval;
 328:Generated_Source\PSoC6\pdl\middleware\ble/cy_ble_gap.h **** 
 329:Generated_Source\PSoC6\pdl\middleware\ble/cy_ble_gap.h ****     /** Defines the scan window when operating in Fast connection */
 330:Generated_Source\PSoC6\pdl\middleware\ble/cy_ble_gap.h ****     uint16_t fastScanWindow;
 331:Generated_Source\PSoC6\pdl\middleware\ble/cy_ble_gap.h **** 
 332:Generated_Source\PSoC6\pdl\middleware\ble/cy_ble_gap.h ****     /** The timeout value of scanning with fast scan parameters */
 333:Generated_Source\PSoC6\pdl\middleware\ble/cy_ble_gap.h ****     uint16_t fastScanTimeOut;
 334:Generated_Source\PSoC6\pdl\middleware\ble/cy_ble_gap.h **** 
 335:Generated_Source\PSoC6\pdl\middleware\ble/cy_ble_gap.h ****     /** Slow scan enable/disable */
 336:Generated_Source\PSoC6\pdl\middleware\ble/cy_ble_gap.h ****     uint8_t  slowScanEnabled;
 337:Generated_Source\PSoC6\pdl\middleware\ble/cy_ble_gap.h **** 
 338:Generated_Source\PSoC6\pdl\middleware\ble/cy_ble_gap.h ****     /** The scan interval when operating in Slow connection */
 339:Generated_Source\PSoC6\pdl\middleware\ble/cy_ble_gap.h ****     uint16_t slowScanInterval;
 340:Generated_Source\PSoC6\pdl\middleware\ble/cy_ble_gap.h **** 
 341:Generated_Source\PSoC6\pdl\middleware\ble/cy_ble_gap.h ****     /** Defines the scan window when operating in Slow connection */
 342:Generated_Source\PSoC6\pdl\middleware\ble/cy_ble_gap.h ****     uint16_t slowScanWindow;
 343:Generated_Source\PSoC6\pdl\middleware\ble/cy_ble_gap.h **** 
 344:Generated_Source\PSoC6\pdl\middleware\ble/cy_ble_gap.h ****     /** The timeout value of scanning with Slow scan parameters */
ARM GAS  C:\Users\D4DE~1\AppData\Local\Temp\cccuUyWy.s 			page 26


 345:Generated_Source\PSoC6\pdl\middleware\ble/cy_ble_gap.h ****     uint16_t slowScanTimeOut;
 346:Generated_Source\PSoC6\pdl\middleware\ble/cy_ble_gap.h **** 
 347:Generated_Source\PSoC6\pdl\middleware\ble/cy_ble_gap.h ****     /** The minimum permissible connection time value to be used during a connection event */
 348:Generated_Source\PSoC6\pdl\middleware\ble/cy_ble_gap.h ****     uint16_t gapcConnectionIntervalMin;
 349:Generated_Source\PSoC6\pdl\middleware\ble/cy_ble_gap.h **** 
 350:Generated_Source\PSoC6\pdl\middleware\ble/cy_ble_gap.h ****     /** The maximum permissible connection time value to be used during a connection event */
 351:Generated_Source\PSoC6\pdl\middleware\ble/cy_ble_gap.h ****     uint16_t gapcConnectionIntervalMax;
 352:Generated_Source\PSoC6\pdl\middleware\ble/cy_ble_gap.h **** 
 353:Generated_Source\PSoC6\pdl\middleware\ble/cy_ble_gap.h ****     /** Defines the maximum time between two received Data Packet PDUs before
 354:Generated_Source\PSoC6\pdl\middleware\ble/cy_ble_gap.h ****      *  the connection is considered lost */
 355:Generated_Source\PSoC6\pdl\middleware\ble/cy_ble_gap.h ****     uint16_t gapcConnectionSlaveLatency;
 356:Generated_Source\PSoC6\pdl\middleware\ble/cy_ble_gap.h **** 
 357:Generated_Source\PSoC6\pdl\middleware\ble/cy_ble_gap.h ****     /** Defines the LE link supervision timeout interval */
 358:Generated_Source\PSoC6\pdl\middleware\ble/cy_ble_gap.h ****     uint16_t gapcConnectionTimeOut;
 359:Generated_Source\PSoC6\pdl\middleware\ble/cy_ble_gap.h **** }cy_stc_ble_gapc_scan_params_t;
 360:Generated_Source\PSoC6\pdl\middleware\ble/cy_ble_gap.h **** 
 361:Generated_Source\PSoC6\pdl\middleware\ble/cy_ble_gap.h **** /** Store BLE Application Data parameter into flash */
 362:Generated_Source\PSoC6\pdl\middleware\ble/cy_ble_gap.h **** typedef struct
 363:Generated_Source\PSoC6\pdl\middleware\ble/cy_ble_gap.h **** {
 364:Generated_Source\PSoC6\pdl\middleware\ble/cy_ble_gap.h ****     /** Source buffer */
 365:Generated_Source\PSoC6\pdl\middleware\ble/cy_ble_gap.h ****     const uint8_t *srcBuff;
 366:Generated_Source\PSoC6\pdl\middleware\ble/cy_ble_gap.h **** 
 367:Generated_Source\PSoC6\pdl\middleware\ble/cy_ble_gap.h ****     /** Destination buffer */
 368:Generated_Source\PSoC6\pdl\middleware\ble/cy_ble_gap.h ****     const uint8_t *destAddr;
 369:Generated_Source\PSoC6\pdl\middleware\ble/cy_ble_gap.h **** 
 370:Generated_Source\PSoC6\pdl\middleware\ble/cy_ble_gap.h ****     /** Source buffer length */
 371:Generated_Source\PSoC6\pdl\middleware\ble/cy_ble_gap.h ****     uint32_t      buffLen;
 372:Generated_Source\PSoC6\pdl\middleware\ble/cy_ble_gap.h ****     
 373:Generated_Source\PSoC6\pdl\middleware\ble/cy_ble_gap.h ****     /** Write mode: blocking (default) / non-blocking */
 374:Generated_Source\PSoC6\pdl\middleware\ble/cy_ble_gap.h ****     uint32_t      writeMode;
 375:Generated_Source\PSoC6\pdl\middleware\ble/cy_ble_gap.h ****     
 376:Generated_Source\PSoC6\pdl\middleware\ble/cy_ble_gap.h **** } cy_stc_ble_app_flash_param_t;
 377:Generated_Source\PSoC6\pdl\middleware\ble/cy_ble_gap.h **** 
 378:Generated_Source\PSoC6\pdl\middleware\ble/cy_ble_gap.h **** /** @} group_ble_common_api_gap_definitions */
 379:Generated_Source\PSoC6\pdl\middleware\ble/cy_ble_gap.h ****  
 380:Generated_Source\PSoC6\pdl\middleware\ble/cy_ble_gap.h **** /***************************************
 381:Generated_Source\PSoC6\pdl\middleware\ble/cy_ble_gap.h **** * API Constants
 382:Generated_Source\PSoC6\pdl\middleware\ble/cy_ble_gap.h **** ***************************************/
 383:Generated_Source\PSoC6\pdl\middleware\ble/cy_ble_gap.h **** #define CY_BLE_AD_TYPE_MORE16UUID                  (0x02u)
 384:Generated_Source\PSoC6\pdl\middleware\ble/cy_ble_gap.h **** #define CY_BLE_AD_TYPE_CMPL16UUID                  (0x03u)
 385:Generated_Source\PSoC6\pdl\middleware\ble/cy_ble_gap.h **** #define CY_BLE_AD_TYPE_MORE32UUID                  (0x04u)
 386:Generated_Source\PSoC6\pdl\middleware\ble/cy_ble_gap.h **** #define CY_BLE_AD_TYPE_CMPL32UUID                  (0x05u)
 387:Generated_Source\PSoC6\pdl\middleware\ble/cy_ble_gap.h **** #define CY_BLE_AD_TYPE_MORE128UUID                 (0x06u)
 388:Generated_Source\PSoC6\pdl\middleware\ble/cy_ble_gap.h **** #define CY_BLE_AD_TYPE_CMPL128UUID                 (0x07u)
 389:Generated_Source\PSoC6\pdl\middleware\ble/cy_ble_gap.h **** 
 390:Generated_Source\PSoC6\pdl\middleware\ble/cy_ble_gap.h **** #define CY_BLE_AD_TYPE_SERVICE_DATA                (0x16u)
 391:Generated_Source\PSoC6\pdl\middleware\ble/cy_ble_gap.h **** #define CY_BLE_AD_SERVICE_DATA_OVERHEAD            (0x03u)
 392:Generated_Source\PSoC6\pdl\middleware\ble/cy_ble_gap.h **** 
 393:Generated_Source\PSoC6\pdl\middleware\ble/cy_ble_gap.h **** #define CY_BLE_DISCOVERY_IDLE                      (0x00u)
 394:Generated_Source\PSoC6\pdl\middleware\ble/cy_ble_gap.h **** #define CY_BLE_DISCOVERY_SERVICE                   (0x01u)
 395:Generated_Source\PSoC6\pdl\middleware\ble/cy_ble_gap.h **** #define CY_BLE_DISCOVERY_CHAR                      (0x02u)
 396:Generated_Source\PSoC6\pdl\middleware\ble/cy_ble_gap.h **** #define CY_BLE_DISCOVERY_DESCR                     (0x03u)
 397:Generated_Source\PSoC6\pdl\middleware\ble/cy_ble_gap.h **** #define CY_BLE_DISCOVERY_DONE                      (0x04u)
 398:Generated_Source\PSoC6\pdl\middleware\ble/cy_ble_gap.h **** 
 399:Generated_Source\PSoC6\pdl\middleware\ble/cy_ble_gap.h **** /* Cy_BLE_NextCharDscrDiscovery parameters */
 400:Generated_Source\PSoC6\pdl\middleware\ble/cy_ble_gap.h **** #define CY_BLE_DISCOVERY_INIT                      (0x00u)
 401:Generated_Source\PSoC6\pdl\middleware\ble/cy_ble_gap.h **** #define CY_BLE_DISCOVERY_CONTINUE                  (0x01u)
ARM GAS  C:\Users\D4DE~1\AppData\Local\Temp\cccuUyWy.s 			page 27


 402:Generated_Source\PSoC6\pdl\middleware\ble/cy_ble_gap.h **** 
 403:Generated_Source\PSoC6\pdl\middleware\ble/cy_ble_gap.h **** #define CY_BLE_SFLASH_DIE_X_MASK                   (0x3Fu)
 404:Generated_Source\PSoC6\pdl\middleware\ble/cy_ble_gap.h **** #define CY_BLE_SFLASH_DIE_X_BITS                   (6u)
 405:Generated_Source\PSoC6\pdl\middleware\ble/cy_ble_gap.h **** #define CY_BLE_SFLASH_DIE_Y_MASK                   (0x3Fu)
 406:Generated_Source\PSoC6\pdl\middleware\ble/cy_ble_gap.h **** #define CY_BLE_SFLASH_DIE_Y_BITS                   (6u)
 407:Generated_Source\PSoC6\pdl\middleware\ble/cy_ble_gap.h **** #define CY_BLE_SFLASH_DIE_XY_BITS                  (CY_BLE_SFLASH_DIE_X_BITS + CY_BLE_SFLASH_DIE_Y_
 408:Generated_Source\PSoC6\pdl\middleware\ble/cy_ble_gap.h **** #define CY_BLE_SFLASH_DIE_WAFER_MASK               (0x1Fu)
 409:Generated_Source\PSoC6\pdl\middleware\ble/cy_ble_gap.h **** #define CY_BLE_SFLASH_DIE_WAFER_BITS               (5u)
 410:Generated_Source\PSoC6\pdl\middleware\ble/cy_ble_gap.h **** #define CY_BLE_SFLASH_DIE_XYWAFER_BITS             (CY_BLE_SFLASH_DIE_XY_BITS + CY_BLE_SFLASH_DIE_W
 411:Generated_Source\PSoC6\pdl\middleware\ble/cy_ble_gap.h **** #define CY_BLE_SFLASH_DIE_LOT_MASK                 (0x7Fu)
 412:Generated_Source\PSoC6\pdl\middleware\ble/cy_ble_gap.h **** #define CY_BLE_SFLASH_DIE_LOT_BITS                 (7u)
 413:Generated_Source\PSoC6\pdl\middleware\ble/cy_ble_gap.h **** 
 414:Generated_Source\PSoC6\pdl\middleware\ble/cy_ble_gap.h **** /* Device address stored by user in ROW4 of the SFLASH */
 415:Generated_Source\PSoC6\pdl\middleware\ble/cy_ble_gap.h **** #define CY_BLE_SFLASH_DEVICE_ADDRESS_PTR           ((cy_stc_ble_gap_bd_addr_t*)(SFLASH->BLE_DEVICE_
 416:Generated_Source\PSoC6\pdl\middleware\ble/cy_ble_gap.h **** #define CY_BLE_AD_STRUCTURE_MAX_LENGTH             (31u)
 417:Generated_Source\PSoC6\pdl\middleware\ble/cy_ble_gap.h **** 
 418:Generated_Source\PSoC6\pdl\middleware\ble/cy_ble_gap.h **** /* AD types for complete, shortened local name and device address */
 419:Generated_Source\PSoC6\pdl\middleware\ble/cy_ble_gap.h **** #define CY_BLE_SHORT_LOCAL_NAME                    (0x08u)  /**< Shortened Local Name */
 420:Generated_Source\PSoC6\pdl\middleware\ble/cy_ble_gap.h **** #define CY_BLE_COMPLETE_LOCAL_NAME                 (0x09u)  /**< Complete Local Name */
 421:Generated_Source\PSoC6\pdl\middleware\ble/cy_ble_gap.h **** #define CY_BLE_ADV_DEVICE_ADDR                     (0x1Bu)  /**< LE Bluetooth Device Address */
 422:Generated_Source\PSoC6\pdl\middleware\ble/cy_ble_gap.h **** 
 423:Generated_Source\PSoC6\pdl\middleware\ble/cy_ble_gap.h **** #define CY_BLE_ADVERTISING_FAST                    (0x00u)
 424:Generated_Source\PSoC6\pdl\middleware\ble/cy_ble_gap.h **** #define CY_BLE_ADVERTISING_SLOW                    (0x01u)
 425:Generated_Source\PSoC6\pdl\middleware\ble/cy_ble_gap.h **** #define CY_BLE_ADVERTISING_CUSTOM                  (0x02u)
 426:Generated_Source\PSoC6\pdl\middleware\ble/cy_ble_gap.h **** 
 427:Generated_Source\PSoC6\pdl\middleware\ble/cy_ble_gap.h **** #define CY_BLE_SCANNING_FAST                       (0x00u)
 428:Generated_Source\PSoC6\pdl\middleware\ble/cy_ble_gap.h **** #define CY_BLE_SCANNING_SLOW                       (0x01u)
 429:Generated_Source\PSoC6\pdl\middleware\ble/cy_ble_gap.h **** #define CY_BLE_SCANNING_CUSTOM                     (0x02u)
 430:Generated_Source\PSoC6\pdl\middleware\ble/cy_ble_gap.h **** 
 431:Generated_Source\PSoC6\pdl\middleware\ble/cy_ble_gap.h **** #define CY_BLE_PENDING_STACK_FLASH_WRITE_BIT       (0x01u)
 432:Generated_Source\PSoC6\pdl\middleware\ble/cy_ble_gap.h **** #define CY_BLE_PENDING_CCCD_FLASH_WRITE_BIT        (0x02u)
 433:Generated_Source\PSoC6\pdl\middleware\ble/cy_ble_gap.h **** #define CY_BLE_PENDING_CCCD_FLASH_CLEAR_BIT        (0x04u)
 434:Generated_Source\PSoC6\pdl\middleware\ble/cy_ble_gap.h **** #define CY_BLE_PENDING_CCCD_FLASH_CLEAR_ALL_BIT    (0x08u)
 435:Generated_Source\PSoC6\pdl\middleware\ble/cy_ble_gap.h **** #define CY_BLE_PENDING_CCCD_FLASH_CLEAR_MASK \
 436:Generated_Source\PSoC6\pdl\middleware\ble/cy_ble_gap.h ****     (CY_BLE_PENDING_CCCD_FLASH_CLEAR_BIT | CY_BLE_PENDING_CCCD_FLASH_CLEAR_ALL_BIT)
 437:Generated_Source\PSoC6\pdl\middleware\ble/cy_ble_gap.h ****   
 438:Generated_Source\PSoC6\pdl\middleware\ble/cy_ble_gap.h **** /**
 439:Generated_Source\PSoC6\pdl\middleware\ble/cy_ble_gap.h ****  * \addtogroup group_ble_common_api_macros
 440:Generated_Source\PSoC6\pdl\middleware\ble/cy_ble_gap.h ****  * @{
 441:Generated_Source\PSoC6\pdl\middleware\ble/cy_ble_gap.h ****  */
 442:Generated_Source\PSoC6\pdl\middleware\ble/cy_ble_gap.h ****  
 443:Generated_Source\PSoC6\pdl\middleware\ble/cy_ble_gap.h **** /* GAP Advertisement Flags */
 444:Generated_Source\PSoC6\pdl\middleware\ble/cy_ble_gap.h **** #define CY_BLE_GAP_ADV_FLAG_LE_LIMITED_DISC_MODE        (0x01u)     /**< LE Limited Discoverable Mo
 445:Generated_Source\PSoC6\pdl\middleware\ble/cy_ble_gap.h **** #define CY_BLE_GAP_ADV_FLAG_LE_GENERAL_DISC_MODE        (0x02u)     /**< LE General Discoverable Mo
 446:Generated_Source\PSoC6\pdl\middleware\ble/cy_ble_gap.h **** #define CY_BLE_GAP_ADV_FLAG_BR_EDR_NOT_SUPPORTED        (0x04u)     /**< BR/EDR not supported. */
 447:Generated_Source\PSoC6\pdl\middleware\ble/cy_ble_gap.h **** #define CY_BLE_GAP_ADV_FLAG_LE_BR_EDR_CONTROLLER        (0x08u)     /**< Simultaneous LE and BR/EDR
 448:Generated_Source\PSoC6\pdl\middleware\ble/cy_ble_gap.h **** #define CY_BLE_GAP_ADV_FLAG_LE_BR_EDR_HOST              (0x10u)     /**< Simultaneous LE and BR/EDR
 449:Generated_Source\PSoC6\pdl\middleware\ble/cy_ble_gap.h **** #define CY_BLE_GAP_ADV_FLAGS_PACKET_LENGTH              (0x02u)     /**< Length of flags in an adve
 450:Generated_Source\PSoC6\pdl\middleware\ble/cy_ble_gap.h **** 
 451:Generated_Source\PSoC6\pdl\middleware\ble/cy_ble_gap.h **** /* GAP Advertising interval min and max */
 452:Generated_Source\PSoC6\pdl\middleware\ble/cy_ble_gap.h **** #define CY_BLE_GAP_ADV_ADVERT_INTERVAL_MIN              (0x0020u)   /**< Minimum Advertising interv
 453:Generated_Source\PSoC6\pdl\middleware\ble/cy_ble_gap.h ****                                                                      *   i.e. 20 ms. */
 454:Generated_Source\PSoC6\pdl\middleware\ble/cy_ble_gap.h **** #define CY_BLE_GAP_ADV_ADVERT_INTERVAL_NONCON_MIN       (0x00A0u)   /**< Minimum Advertising interv
 455:Generated_Source\PSoC6\pdl\middleware\ble/cy_ble_gap.h ****                                                                      *   for non connectable mode, 
 456:Generated_Source\PSoC6\pdl\middleware\ble/cy_ble_gap.h **** #define CY_BLE_GAP_ADV_ADVERT_INTERVAL_MAX              (0x4000u)   /**< Maximum Advertising interv
 457:Generated_Source\PSoC6\pdl\middleware\ble/cy_ble_gap.h ****                                                                      *   i.e. 10.24 s. */
 458:Generated_Source\PSoC6\pdl\middleware\ble/cy_ble_gap.h **** #define CY_BLE_GAP_ADV_ADVERT_INTERVAL_PACKET_LENGTH    (0x03u)     /**< Length of the Advertising 
ARM GAS  C:\Users\D4DE~1\AppData\Local\Temp\cccuUyWy.s 			page 28


 459:Generated_Source\PSoC6\pdl\middleware\ble/cy_ble_gap.h ****                                                                      *   an advertisement packet */
 460:Generated_Source\PSoC6\pdl\middleware\ble/cy_ble_gap.h **** #define CY_BLE_GAPC_CONNECTING_TIMEOUT                  (30u)       /**< Seconds */
 461:Generated_Source\PSoC6\pdl\middleware\ble/cy_ble_gap.h **** #define CY_BLE_INVALID_CONN_HANDLE_VALUE                (0xFFu)     /**< Invalid Connection Handle 
 462:Generated_Source\PSoC6\pdl\middleware\ble/cy_ble_gap.h **** 
 463:Generated_Source\PSoC6\pdl\middleware\ble/cy_ble_gap.h **** /* Write mode for Cy_BLE_StoreAppData */
 464:Generated_Source\PSoC6\pdl\middleware\ble/cy_ble_gap.h **** #define CY_BLE_STORE_DATA_MODE_BLOCKING                 (0x0u)      /**< Blocking write */
 465:Generated_Source\PSoC6\pdl\middleware\ble/cy_ble_gap.h **** #define CY_BLE_STORE_DATA_MODE_NON_BLOCKING             (0x1u)      /**< Non-blocking write */
 466:Generated_Source\PSoC6\pdl\middleware\ble/cy_ble_gap.h **** 
 467:Generated_Source\PSoC6\pdl\middleware\ble/cy_ble_gap.h **** /** @} group_ble_common_api_macros */
 468:Generated_Source\PSoC6\pdl\middleware\ble/cy_ble_gap.h **** 
 469:Generated_Source\PSoC6\pdl\middleware\ble/cy_ble_gap.h **** /***************************************
 470:Generated_Source\PSoC6\pdl\middleware\ble/cy_ble_gap.h **** * Private Function Prototypes
 471:Generated_Source\PSoC6\pdl\middleware\ble/cy_ble_gap.h **** ***************************************/
 472:Generated_Source\PSoC6\pdl\middleware\ble/cy_ble_gap.h **** void Cy_BLE_ServiceInit(void);
 473:Generated_Source\PSoC6\pdl\middleware\ble/cy_ble_gap.h **** uint32_t Cy_BLE_GetDiscoveryIdx(cy_stc_ble_conn_handle_t connHandle);
 474:Generated_Source\PSoC6\pdl\middleware\ble/cy_ble_gap.h **** 
 475:Generated_Source\PSoC6\pdl\middleware\ble/cy_ble_gap.h **** /***************************************
 476:Generated_Source\PSoC6\pdl\middleware\ble/cy_ble_gap.h **** * Function Prototypes
 477:Generated_Source\PSoC6\pdl\middleware\ble/cy_ble_gap.h **** ***************************************/
 478:Generated_Source\PSoC6\pdl\middleware\ble/cy_ble_gap.h **** /**
 479:Generated_Source\PSoC6\pdl\middleware\ble/cy_ble_gap.h ****  * \addtogroup group_ble_common_api_functions
 480:Generated_Source\PSoC6\pdl\middleware\ble/cy_ble_gap.h ****  * @{
 481:Generated_Source\PSoC6\pdl\middleware\ble/cy_ble_gap.h ****  */
 482:Generated_Source\PSoC6\pdl\middleware\ble/cy_ble_gap.h **** 
 483:Generated_Source\PSoC6\pdl\middleware\ble/cy_ble_gap.h **** cy_en_ble_api_result_t Cy_BLE_StoreAppData(const cy_stc_ble_app_flash_param_t *param);
 484:Generated_Source\PSoC6\pdl\middleware\ble/cy_ble_gap.h **** 
 485:Generated_Source\PSoC6\pdl\middleware\ble/cy_ble_gap.h **** #if ((CY_BLE_GAP_ROLE_PERIPHERAL || CY_BLE_GAP_ROLE_CENTRAL) && (CY_BLE_BONDING_REQUIREMENT == CY_B
 486:Generated_Source\PSoC6\pdl\middleware\ble/cy_ble_gap.h **** cy_en_ble_api_result_t Cy_BLE_StoreBondingData(void);
 487:Generated_Source\PSoC6\pdl\middleware\ble/cy_ble_gap.h **** cy_en_ble_api_result_t Cy_BLE_GAP_RemoveBondedDevice(cy_stc_ble_gap_bd_addr_t* bdAddr);
 488:Generated_Source\PSoC6\pdl\middleware\ble/cy_ble_gap.h **** #endif /* (CY_BLE_GAP_ROLE_PERIPHERAL || CY_BLE_GAP_ROLE_CENTRAL) && (CY_BLE_BONDING_REQUIREMENT ==
 489:Generated_Source\PSoC6\pdl\middleware\ble/cy_ble_gap.h **** 
 490:Generated_Source\PSoC6\pdl\middleware\ble/cy_ble_gap.h **** #if (CY_BLE_GAP_ROLE_PERIPHERAL || CY_BLE_GAP_ROLE_CENTRAL)
 491:Generated_Source\PSoC6\pdl\middleware\ble/cy_ble_gap.h **** bool Cy_BLE_IsPeerConnected(uint8_t *bdAddr);
 492:Generated_Source\PSoC6\pdl\middleware\ble/cy_ble_gap.h **** bool Cy_BLE_IsDevicePaired(cy_stc_ble_conn_handle_t *connHandle);
 493:Generated_Source\PSoC6\pdl\middleware\ble/cy_ble_gap.h **** uint8_t Cy_BLE_GetDeviceRole(cy_stc_ble_conn_handle_t *connHandle);
 494:Generated_Source\PSoC6\pdl\middleware\ble/cy_ble_gap.h **** 
 495:Generated_Source\PSoC6\pdl\middleware\ble/cy_ble_gap.h **** cy_en_ble_api_result_t Cy_BLE_GetRssiPeer(uint8_t  bdHandle);
 496:Generated_Source\PSoC6\pdl\middleware\ble/cy_ble_gap.h **** #endif /* (CY_BLE_GAP_ROLE_PERIPHERAL || CY_BLE_GAP_ROLE_CENTRAL) */
 497:Generated_Source\PSoC6\pdl\middleware\ble/cy_ble_gap.h **** /** @} group_ble_common_api_functions */
 498:Generated_Source\PSoC6\pdl\middleware\ble/cy_ble_gap.h **** 
 499:Generated_Source\PSoC6\pdl\middleware\ble/cy_ble_gap.h **** /**
 500:Generated_Source\PSoC6\pdl\middleware\ble/cy_ble_gap.h ****  * \addtogroup group_ble_common_api_gap_peripheral_functions
 501:Generated_Source\PSoC6\pdl\middleware\ble/cy_ble_gap.h ****  * @{
 502:Generated_Source\PSoC6\pdl\middleware\ble/cy_ble_gap.h ****  */
 503:Generated_Source\PSoC6\pdl\middleware\ble/cy_ble_gap.h ****  
 504:Generated_Source\PSoC6\pdl\middleware\ble/cy_ble_gap.h **** #if (CY_BLE_GAP_ROLE_PERIPHERAL || CY_BLE_GAP_ROLE_BROADCASTER)
 505:Generated_Source\PSoC6\pdl\middleware\ble/cy_ble_gap.h **** cy_en_ble_api_result_t Cy_BLE_GAPP_StartAdvertisement(uint8_t advertisingIntervalType, uint8_t adve
 506:Generated_Source\PSoC6\pdl\middleware\ble/cy_ble_gap.h **** cy_en_ble_api_result_t Cy_BLE_GAPP_StopAdvertisement(void);
 507:Generated_Source\PSoC6\pdl\middleware\ble/cy_ble_gap.h **** 
 508:Generated_Source\PSoC6\pdl\middleware\ble/cy_ble_gap.h **** /** \cond IGNORE */
 509:Generated_Source\PSoC6\pdl\middleware\ble/cy_ble_gap.h **** void Cy_BLE_ChangeAdDeviceAddress(const cy_stc_ble_gap_bd_addr_t* bdAddr, uint8_t dest);
 510:Generated_Source\PSoC6\pdl\middleware\ble/cy_ble_gap.h **** /** \endcond */
 511:Generated_Source\PSoC6\pdl\middleware\ble/cy_ble_gap.h **** 
 512:Generated_Source\PSoC6\pdl\middleware\ble/cy_ble_gap.h **** #endif /* CY_BLE_GAP_ROLE_PERIPHERAL */
 513:Generated_Source\PSoC6\pdl\middleware\ble/cy_ble_gap.h **** 
 514:Generated_Source\PSoC6\pdl\middleware\ble/cy_ble_gap.h **** /** @} group_ble_common_api_gap_peripheral_functions */
 515:Generated_Source\PSoC6\pdl\middleware\ble/cy_ble_gap.h **** 
ARM GAS  C:\Users\D4DE~1\AppData\Local\Temp\cccuUyWy.s 			page 29


 516:Generated_Source\PSoC6\pdl\middleware\ble/cy_ble_gap.h **** /**
 517:Generated_Source\PSoC6\pdl\middleware\ble/cy_ble_gap.h ****  * \addtogroup group_ble_common_api_gap_central_functions
 518:Generated_Source\PSoC6\pdl\middleware\ble/cy_ble_gap.h ****  * @{
 519:Generated_Source\PSoC6\pdl\middleware\ble/cy_ble_gap.h ****  */
 520:Generated_Source\PSoC6\pdl\middleware\ble/cy_ble_gap.h ****  
 521:Generated_Source\PSoC6\pdl\middleware\ble/cy_ble_gap.h **** #if (CY_BLE_GAP_ROLE_CENTRAL || CY_BLE_GAP_ROLE_OBSERVER)
 522:Generated_Source\PSoC6\pdl\middleware\ble/cy_ble_gap.h **** cy_en_ble_api_result_t Cy_BLE_GAPC_StartScan(uint8_t scanningIntervalType, uint8_t scanParamIndex);
 523:Generated_Source\PSoC6\pdl\middleware\ble/cy_ble_gap.h **** cy_en_ble_api_result_t Cy_BLE_GAPC_StopScan(void);
 524:Generated_Source\PSoC6\pdl\middleware\ble/cy_ble_gap.h **** #endif /* CY_BLE_GAP_ROLE_CENTRAL || CY_BLE_GAP_ROLE_OBSERVER */
 525:Generated_Source\PSoC6\pdl\middleware\ble/cy_ble_gap.h **** 
 526:Generated_Source\PSoC6\pdl\middleware\ble/cy_ble_gap.h **** #if (CY_BLE_GAP_ROLE_CENTRAL)
 527:Generated_Source\PSoC6\pdl\middleware\ble/cy_ble_gap.h **** cy_en_ble_api_result_t Cy_BLE_GAPC_ConnectDevice(const cy_stc_ble_gap_bd_addr_t * address, uint8_t 
 528:Generated_Source\PSoC6\pdl\middleware\ble/cy_ble_gap.h **** cy_en_ble_api_result_t Cy_BLE_GAPC_CancelDeviceConnection(void);
 529:Generated_Source\PSoC6\pdl\middleware\ble/cy_ble_gap.h **** #endif /* CY_BLE_GAP_ROLE_CENTRAL */
 530:Generated_Source\PSoC6\pdl\middleware\ble/cy_ble_gap.h **** 
 531:Generated_Source\PSoC6\pdl\middleware\ble/cy_ble_gap.h **** /** @} group_ble_common_api_gap_central_functions */
 532:Generated_Source\PSoC6\pdl\middleware\ble/cy_ble_gap.h **** 
 533:Generated_Source\PSoC6\pdl\middleware\ble/cy_ble_gap.h **** /***************************************
 534:Generated_Source\PSoC6\pdl\middleware\ble/cy_ble_gap.h **** * External data references
 535:Generated_Source\PSoC6\pdl\middleware\ble/cy_ble_gap.h **** ***************************************/
 536:Generated_Source\PSoC6\pdl\middleware\ble/cy_ble_gap.h **** extern volatile uint8_t cy_ble_eventHandlerFlag;
 537:Generated_Source\PSoC6\pdl\middleware\ble/cy_ble_gap.h **** extern cy_stc_ble_gap_bd_addr_t *cy_ble_sflashDeviceAddress;
 538:Generated_Source\PSoC6\pdl\middleware\ble/cy_ble_gap.h **** extern cy_stc_ble_gap_bd_addr_t cy_ble_deviceAddress;
 539:Generated_Source\PSoC6\pdl\middleware\ble/cy_ble_gap.h **** extern cy_en_ble_state_t cy_ble_state;
 540:Generated_Source\PSoC6\pdl\middleware\ble/cy_ble_gap.h **** 
 541:Generated_Source\PSoC6\pdl\middleware\ble/cy_ble_gap.h **** #if ((CY_BLE_GAP_ROLE_PERIPHERAL || CY_BLE_GAP_ROLE_CENTRAL))
 542:Generated_Source\PSoC6\pdl\middleware\ble/cy_ble_gap.h **** extern cy_stc_ble_gap_auth_info_t cy_ble_authInfo[CY_BLE_AUTH_INFO_COUNT];
 543:Generated_Source\PSoC6\pdl\middleware\ble/cy_ble_gap.h **** #endif /* ((CY_BLE_GAP_ROLE_PERIPHERAL || CY_BLE_GAP_ROLE_CENTRAL)) */
 544:Generated_Source\PSoC6\pdl\middleware\ble/cy_ble_gap.h **** 
 545:Generated_Source\PSoC6\pdl\middleware\ble/cy_ble_gap.h **** #if (CY_BLE_GAP_ROLE_PERIPHERAL || CY_BLE_GAP_ROLE_BROADCASTER)
 546:Generated_Source\PSoC6\pdl\middleware\ble/cy_ble_gap.h **** extern cy_en_ble_adv_state_t cy_ble_advState;
 547:Generated_Source\PSoC6\pdl\middleware\ble/cy_ble_gap.h **** extern uint8_t cy_ble_advIndex;
 548:Generated_Source\PSoC6\pdl\middleware\ble/cy_ble_gap.h **** #endif  /* (CY_BLE_GAP_ROLE_PERIPHERAL || CY_BLE_GAP_ROLE_BROADCASTER) */
 549:Generated_Source\PSoC6\pdl\middleware\ble/cy_ble_gap.h **** 
 550:Generated_Source\PSoC6\pdl\middleware\ble/cy_ble_gap.h **** #if (CY_BLE_GAP_ROLE_CENTRAL || CY_BLE_GAP_ROLE_OBSERVER)
 551:Generated_Source\PSoC6\pdl\middleware\ble/cy_ble_gap.h **** extern cy_en_ble_scan_state_t cy_ble_scanState;
 552:Generated_Source\PSoC6\pdl\middleware\ble/cy_ble_gap.h **** extern uint8_t cy_ble_scanIndex;
 553:Generated_Source\PSoC6\pdl\middleware\ble/cy_ble_gap.h **** #endif /* (CY_BLE_GAP_ROLE_CENTRAL || CY_BLE_GAP_ROLE_OBSERVER) */
 554:Generated_Source\PSoC6\pdl\middleware\ble/cy_ble_gap.h **** 
 555:Generated_Source\PSoC6\pdl\middleware\ble/cy_ble_gap.h **** #if ((CY_BLE_GAP_ROLE_PERIPHERAL || CY_BLE_GAP_ROLE_CENTRAL))
 556:Generated_Source\PSoC6\pdl\middleware\ble/cy_ble_gap.h **** extern cy_stc_ble_conn_handle_t cy_ble_connHandle[CY_BLE_CONN_COUNT];
 557:Generated_Source\PSoC6\pdl\middleware\ble/cy_ble_gap.h **** extern cy_en_ble_conn_state_t cy_ble_connState[CY_BLE_CONN_COUNT];
 558:Generated_Source\PSoC6\pdl\middleware\ble/cy_ble_gap.h **** 
 559:Generated_Source\PSoC6\pdl\middleware\ble/cy_ble_gap.h **** extern volatile uint8_t cy_ble_devConnRole[CY_BLE_CONN_COUNT];                                     
 560:Generated_Source\PSoC6\pdl\middleware\ble/cy_ble_gap.h **** extern volatile bool cy_ble_pairStatus[CY_BLE_CONN_COUNT];
 561:Generated_Source\PSoC6\pdl\middleware\ble/cy_ble_gap.h **** 
 562:Generated_Source\PSoC6\pdl\middleware\ble/cy_ble_gap.h **** #endif /* ((CY_BLE_GAP_ROLE_PERIPHERAL || CY_BLE_GAP_ROLE_CENTRAL)) */
 563:Generated_Source\PSoC6\pdl\middleware\ble/cy_ble_gap.h **** 
 564:Generated_Source\PSoC6\pdl\middleware\ble/cy_ble_gap.h **** #if (CY_BLE_GAP_ROLE_CENTRAL || CY_BLE_GAP_ROLE_OBSERVER)
 565:Generated_Source\PSoC6\pdl\middleware\ble/cy_ble_gap.h **** extern cy_stc_ble_gapc_disc_info_t cy_ble_discoveryInfo[CY_BLE_GAPC_CONF_COUNT];
 566:Generated_Source\PSoC6\pdl\middleware\ble/cy_ble_gap.h **** #endif /* CY_BLE_GAP_ROLE_CENTRAL || CY_BLE_GAP_ROLE_OBSERVER */
 567:Generated_Source\PSoC6\pdl\middleware\ble/cy_ble_gap.h **** 
 568:Generated_Source\PSoC6\pdl\middleware\ble/cy_ble_gap.h **** #if (CY_BLE_GAP_ROLE_CENTRAL)
 569:Generated_Source\PSoC6\pdl\middleware\ble/cy_ble_gap.h **** extern cy_stc_ble_gapc_conn_info_t cy_ble_connectionParameters;
 570:Generated_Source\PSoC6\pdl\middleware\ble/cy_ble_gap.h **** extern cy_stc_ble_timer_info_t cy_ble_connectingTimeout;
 571:Generated_Source\PSoC6\pdl\middleware\ble/cy_ble_gap.h **** #endif /* CY_BLE_GAP_ROLE_CENTRAL */
 572:Generated_Source\PSoC6\pdl\middleware\ble/cy_ble_gap.h **** 
ARM GAS  C:\Users\D4DE~1\AppData\Local\Temp\cccuUyWy.s 			page 30


 573:Generated_Source\PSoC6\pdl\middleware\ble/cy_ble_gap.h **** #if (CY_BLE_GAP_ROLE_PERIPHERAL || CY_BLE_GAP_ROLE_BROADCASTER)
 574:Generated_Source\PSoC6\pdl\middleware\ble/cy_ble_gap.h **** extern cy_stc_ble_gapp_disc_mode_info_t cy_ble_discoveryModeInfo[CY_BLE_GAPP_CONF_COUNT];
 575:Generated_Source\PSoC6\pdl\middleware\ble/cy_ble_gap.h **** extern cy_stc_ble_gapp_disc_param_t cy_ble_discoveryParam[CY_BLE_GAPP_CONF_COUNT];
 576:Generated_Source\PSoC6\pdl\middleware\ble/cy_ble_gap.h **** extern cy_stc_ble_gapp_disc_data_t cy_ble_discoveryData[CY_BLE_GAPP_CONF_COUNT];
 577:Generated_Source\PSoC6\pdl\middleware\ble/cy_ble_gap.h **** extern cy_stc_ble_gapp_scan_rsp_data_t cy_ble_scanRspData[CY_BLE_GAPP_CONF_COUNT];
 578:Generated_Source\PSoC6\pdl\middleware\ble/cy_ble_gap.h **** #endif /* CY_BLE_GAP_ROLE_PERIPHERAL || CY_BLE_GAP_ROLE_BROADCASTER */
 579:Generated_Source\PSoC6\pdl\middleware\ble/cy_ble_gap.h **** 
 580:Generated_Source\PSoC6\pdl\middleware\ble/cy_ble_gap.h **** #if ((CY_BLE_GAP_ROLE_PERIPHERAL || CY_BLE_GAP_ROLE_CENTRAL) && (CY_BLE_BONDING_REQUIREMENT == CY_B
 581:Generated_Source\PSoC6\pdl\middleware\ble/cy_ble_gap.h **** 
 582:Generated_Source\PSoC6\pdl\middleware\ble/cy_ble_gap.h **** /**
 583:Generated_Source\PSoC6\pdl\middleware\ble/cy_ble_gap.h ****  * \addtogroup group_ble_common_api_global_variables
 584:Generated_Source\PSoC6\pdl\middleware\ble/cy_ble_gap.h ****  * @{
 585:Generated_Source\PSoC6\pdl\middleware\ble/cy_ble_gap.h ****  */  
 586:Generated_Source\PSoC6\pdl\middleware\ble/cy_ble_gap.h **** /** This is a two-bit variable that contains status of pending write to flash operation.
 587:Generated_Source\PSoC6\pdl\middleware\ble/cy_ble_gap.h ****  * This variable is initialized to zero in Cy_BLE_Init().
 588:Generated_Source\PSoC6\pdl\middleware\ble/cy_ble_gap.h ****  * CY_BLE_PENDING_CCCD_FLASH_WRITE_BIT flag is set after write to CCCD event when a
 589:Generated_Source\PSoC6\pdl\middleware\ble/cy_ble_gap.h ****  * peer device supports bonding (cy_ble_peerBonding[eventParam->connHandle.attId] == CY_BLE_GAP_BON
 590:Generated_Source\PSoC6\pdl\middleware\ble/cy_ble_gap.h ****  * CY_BLE_PENDING_STACK_FLASH_WRITE_BIT flag is set after CY_BLE_EVT_PENDING_FLASH_WRITE event.
 591:Generated_Source\PSoC6\pdl\middleware\ble/cy_ble_gap.h ****  * Cy_BLE_StoreBondingData() should be called to store pending bonding data.
 592:Generated_Source\PSoC6\pdl\middleware\ble/cy_ble_gap.h ****  * This function automatically clears pending bits after write operation is complete.
 593:Generated_Source\PSoC6\pdl\middleware\ble/cy_ble_gap.h ****  */
 594:Generated_Source\PSoC6\pdl\middleware\ble/cy_ble_gap.h **** extern uint8_t cy_ble_pendingFlashWrite;
 595:Generated_Source\PSoC6\pdl\middleware\ble/cy_ble_gap.h **** /** @} group_ble_common_api_global_variables */
 596:Generated_Source\PSoC6\pdl\middleware\ble/cy_ble_gap.h ****     
 597:Generated_Source\PSoC6\pdl\middleware\ble/cy_ble_gap.h **** /** Bonding type setting of peer device, CY_BLE_GAP_BONDING_NONE or CY_BLE_GAP_BONDING.
 598:Generated_Source\PSoC6\pdl\middleware\ble/cy_ble_gap.h ****  * It is initialized after pairing with peer device and used for cy_ble_pendingFlashWrite variable
 599:Generated_Source\PSoC6\pdl\middleware\ble/cy_ble_gap.h ****  * setting.
 600:Generated_Source\PSoC6\pdl\middleware\ble/cy_ble_gap.h ****  */
 601:Generated_Source\PSoC6\pdl\middleware\ble/cy_ble_gap.h **** extern uint8_t cy_ble_peerBonding[CY_BLE_CONN_COUNT];
 602:Generated_Source\PSoC6\pdl\middleware\ble/cy_ble_gap.h **** 
 603:Generated_Source\PSoC6\pdl\middleware\ble/cy_ble_gap.h **** #endif  /* (CY_BLE_BONDING_REQUIREMENT == CY_BLE_BONDING_YES) */
 604:Generated_Source\PSoC6\pdl\middleware\ble/cy_ble_gap.h **** 
 605:Generated_Source\PSoC6\pdl\middleware\ble/cy_ble_gap.h **** 
 606:Generated_Source\PSoC6\pdl\middleware\ble/cy_ble_gap.h **** /***************************************
 607:Generated_Source\PSoC6\pdl\middleware\ble/cy_ble_gap.h **** * Exported Functions (MACROS)
 608:Generated_Source\PSoC6\pdl\middleware\ble/cy_ble_gap.h **** ***************************************/
 609:Generated_Source\PSoC6\pdl\middleware\ble/cy_ble_gap.h **** #if ((CY_BLE_GAP_ROLE_PERIPHERAL || CY_BLE_GAP_ROLE_CENTRAL))
 610:Generated_Source\PSoC6\pdl\middleware\ble/cy_ble_gap.h ****    
 611:Generated_Source\PSoC6\pdl\middleware\ble/cy_ble_gap.h **** /******************************************************************************
 612:Generated_Source\PSoC6\pdl\middleware\ble/cy_ble_gap.h **** * Function Name: Cy_BLE_GetConnHandleIdx
 613:Generated_Source\PSoC6\pdl\middleware\ble/cy_ble_gap.h **** ***************************************************************************//**
 614:Generated_Source\PSoC6\pdl\middleware\ble/cy_ble_gap.h **** *
 615:Generated_Source\PSoC6\pdl\middleware\ble/cy_ble_gap.h **** *  This function searches the array of connection handles (cy_ble_connHandle[])
 616:Generated_Source\PSoC6\pdl\middleware\ble/cy_ble_gap.h **** *  for the location (index) of a handle that corresponds to the input parameter
 617:Generated_Source\PSoC6\pdl\middleware\ble/cy_ble_gap.h **** *  connHandle. bdHandle.
 618:Generated_Source\PSoC6\pdl\middleware\ble/cy_ble_gap.h **** *
 619:Generated_Source\PSoC6\pdl\middleware\ble/cy_ble_gap.h **** *  This function is designated for internal usage. 
 620:Generated_Source\PSoC6\pdl\middleware\ble/cy_ble_gap.h **** *    
 621:Generated_Source\PSoC6\pdl\middleware\ble/cy_ble_gap.h **** *  \param connHandle: The connection handle.
 622:Generated_Source\PSoC6\pdl\middleware\ble/cy_ble_gap.h **** *
 623:Generated_Source\PSoC6\pdl\middleware\ble/cy_ble_gap.h **** *  \return
 624:Generated_Source\PSoC6\pdl\middleware\ble/cy_ble_gap.h **** *  retValue: the index of connHandle  
 625:Generated_Source\PSoC6\pdl\middleware\ble/cy_ble_gap.h **** *    
 626:Generated_Source\PSoC6\pdl\middleware\ble/cy_ble_gap.h **** ******************************************************************************/
 627:Generated_Source\PSoC6\pdl\middleware\ble/cy_ble_gap.h **** __STATIC_INLINE uint8_t Cy_BLE_GetConnHandleIdx(cy_stc_ble_conn_handle_t connHandle)
 628:Generated_Source\PSoC6\pdl\middleware\ble/cy_ble_gap.h **** {
 629:Generated_Source\PSoC6\pdl\middleware\ble/cy_ble_gap.h ****     uint8_t idx;
ARM GAS  C:\Users\D4DE~1\AppData\Local\Temp\cccuUyWy.s 			page 31


 630:Generated_Source\PSoC6\pdl\middleware\ble/cy_ble_gap.h ****     uint8_t retValue = CY_BLE_CONN_COUNT;
 631:Generated_Source\PSoC6\pdl\middleware\ble/cy_ble_gap.h **** 
 632:Generated_Source\PSoC6\pdl\middleware\ble/cy_ble_gap.h ****     for(idx = 0u; idx < CY_BLE_CONN_COUNT; idx++)
 633:Generated_Source\PSoC6\pdl\middleware\ble/cy_ble_gap.h ****     {
 634:Generated_Source\PSoC6\pdl\middleware\ble/cy_ble_gap.h ****         if(cy_ble_connHandle[idx].bdHandle == connHandle.bdHandle)
 635:Generated_Source\PSoC6\pdl\middleware\ble/cy_ble_gap.h ****         {
 636:Generated_Source\PSoC6\pdl\middleware\ble/cy_ble_gap.h ****             retValue = idx;
 637:Generated_Source\PSoC6\pdl\middleware\ble/cy_ble_gap.h ****             break;
 638:Generated_Source\PSoC6\pdl\middleware\ble/cy_ble_gap.h ****         }
 639:Generated_Source\PSoC6\pdl\middleware\ble/cy_ble_gap.h ****     }
 640:Generated_Source\PSoC6\pdl\middleware\ble/cy_ble_gap.h ****     if(retValue == CY_BLE_CONN_COUNT)
 641:Generated_Source\PSoC6\pdl\middleware\ble/cy_ble_gap.h ****     {
 642:Generated_Source\PSoC6\pdl\middleware\ble/cy_ble_gap.h ****         /* HALT in debug mode */
 643:Generated_Source\PSoC6\pdl\middleware\ble/cy_ble_gap.h ****         CY_ASSERT(retValue != CY_BLE_CONN_COUNT);
 644:Generated_Source\PSoC6\pdl\middleware\ble/cy_ble_gap.h ****         retValue = 0u;
 645:Generated_Source\PSoC6\pdl\middleware\ble/cy_ble_gap.h ****     }
 646:Generated_Source\PSoC6\pdl\middleware\ble/cy_ble_gap.h **** 
 647:Generated_Source\PSoC6\pdl\middleware\ble/cy_ble_gap.h ****     return(retValue);
 648:Generated_Source\PSoC6\pdl\middleware\ble/cy_ble_gap.h **** }
 649:Generated_Source\PSoC6\pdl\middleware\ble/cy_ble_gap.h **** #endif  /* ((CY_BLE_GAP_ROLE_PERIPHERAL || CY_BLE_GAP_ROLE_CENTRAL)) */
 650:Generated_Source\PSoC6\pdl\middleware\ble/cy_ble_gap.h **** 
 651:Generated_Source\PSoC6\pdl\middleware\ble/cy_ble_gap.h **** /**
 652:Generated_Source\PSoC6\pdl\middleware\ble/cy_ble_gap.h ****  * \addtogroup group_ble_common_api_functions
 653:Generated_Source\PSoC6\pdl\middleware\ble/cy_ble_gap.h ****  * @{
 654:Generated_Source\PSoC6\pdl\middleware\ble/cy_ble_gap.h **** */
 655:Generated_Source\PSoC6\pdl\middleware\ble/cy_ble_gap.h **** /******************************************************************************
 656:Generated_Source\PSoC6\pdl\middleware\ble/cy_ble_gap.h **** * Function Name: Cy_BLE_GetState
 657:Generated_Source\PSoC6\pdl\middleware\ble/cy_ble_gap.h **** ***************************************************************************//**
 658:Generated_Source\PSoC6\pdl\middleware\ble/cy_ble_gap.h **** *
 659:Generated_Source\PSoC6\pdl\middleware\ble/cy_ble_gap.h **** *  This function is used to determine the current state of the BLE Middleware
 660:Generated_Source\PSoC6\pdl\middleware\ble/cy_ble_gap.h **** *  state machine :
 661:Generated_Source\PSoC6\pdl\middleware\ble/cy_ble_gap.h **** *
 662:Generated_Source\PSoC6\pdl\middleware\ble/cy_ble_gap.h **** *  \image html ble_middleware_state_machine.png
 663:Generated_Source\PSoC6\pdl\middleware\ble/cy_ble_gap.h **** *
 664:Generated_Source\PSoC6\pdl\middleware\ble/cy_ble_gap.h **** *  The BLE Middleware is in the state #CY_BLE_STATE_INITIALIZING after the 
 665:Generated_Source\PSoC6\pdl\middleware\ble/cy_ble_gap.h **** *  Cy_BLE_Enable() is called and until the #CY_BLE_EVT_STACK_ON event is not 
 666:Generated_Source\PSoC6\pdl\middleware\ble/cy_ble_gap.h **** *  received. After successful initialization the state is changed to 
 667:Generated_Source\PSoC6\pdl\middleware\ble/cy_ble_gap.h **** *  #CY_BLE_STATE_ON.
 668:Generated_Source\PSoC6\pdl\middleware\ble/cy_ble_gap.h **** *
 669:Generated_Source\PSoC6\pdl\middleware\ble/cy_ble_gap.h **** *  The BLE Middleware is in the state #CY_BLE_STATE_STOPPED 
 670:Generated_Source\PSoC6\pdl\middleware\ble/cy_ble_gap.h **** *  when the #CY_BLE_EVT_STACK_SHUTDOWN_COMPLETE event is received (after the 
 671:Generated_Source\PSoC6\pdl\middleware\ble/cy_ble_gap.h **** *  Cy_BLE_Disable() is called).
 672:Generated_Source\PSoC6\pdl\middleware\ble/cy_ble_gap.h **** *  
 673:Generated_Source\PSoC6\pdl\middleware\ble/cy_ble_gap.h **** *  For GAP Central role when the Cy_BLE_GAPC_ConnectDevice() is called, the state
 674:Generated_Source\PSoC6\pdl\middleware\ble/cy_ble_gap.h **** *  is changed to #CY_BLE_STATE_CONNECTING. After successful connection indicated
 675:Generated_Source\PSoC6\pdl\middleware\ble/cy_ble_gap.h **** *  by #CY_BLE_EVT_GAP_DEVICE_CONNECTED or #CY_BLE_EVT_GAP_ENHANCE_CONN_COMPLETE
 676:Generated_Source\PSoC6\pdl\middleware\ble/cy_ble_gap.h **** *  event or the timeout indicated by #CY_BLE_EVT_TIMEOUT event, the state is
 677:Generated_Source\PSoC6\pdl\middleware\ble/cy_ble_gap.h **** *  changed to #CY_BLE_STATE_ON.
 678:Generated_Source\PSoC6\pdl\middleware\ble/cy_ble_gap.h **** *
 679:Generated_Source\PSoC6\pdl\middleware\ble/cy_ble_gap.h **** * \return
 680:Generated_Source\PSoC6\pdl\middleware\ble/cy_ble_gap.h **** * \ref cy_en_ble_state_t : The current BLE Middleware state. The following are 
 681:Generated_Source\PSoC6\pdl\middleware\ble/cy_ble_gap.h **** *                         possible states:
 682:Generated_Source\PSoC6\pdl\middleware\ble/cy_ble_gap.h **** *
 683:Generated_Source\PSoC6\pdl\middleware\ble/cy_ble_gap.h **** *   State                      | Description
 684:Generated_Source\PSoC6\pdl\middleware\ble/cy_ble_gap.h **** *   -------------------------- | -----------
 685:Generated_Source\PSoC6\pdl\middleware\ble/cy_ble_gap.h **** *   CY_BLE_STATE_STOPPED       | BLE is turned off.
 686:Generated_Source\PSoC6\pdl\middleware\ble/cy_ble_gap.h **** *   CY_BLE_STATE_INITIALIZING  | BLE is initializing (waiting for #CY_BLE_EVT_STACK_ON event).
ARM GAS  C:\Users\D4DE~1\AppData\Local\Temp\cccuUyWy.s 			page 32


 687:Generated_Source\PSoC6\pdl\middleware\ble/cy_ble_gap.h **** *   CY_BLE_STATE_ON            | BLE is turned on.
 688:Generated_Source\PSoC6\pdl\middleware\ble/cy_ble_gap.h **** *   CY_BLE_STATE_CONNECTING    | BLE is connecting.
 689:Generated_Source\PSoC6\pdl\middleware\ble/cy_ble_gap.h **** 
 690:Generated_Source\PSoC6\pdl\middleware\ble/cy_ble_gap.h **** ******************************************************************************/
 691:Generated_Source\PSoC6\pdl\middleware\ble/cy_ble_gap.h **** #define Cy_BLE_GetState()    (cy_ble_state)
 692:Generated_Source\PSoC6\pdl\middleware\ble/cy_ble_gap.h **** 
 693:Generated_Source\PSoC6\pdl\middleware\ble/cy_ble_gap.h **** /** \cond IGNORE */
 694:Generated_Source\PSoC6\pdl\middleware\ble/cy_ble_gap.h **** /******************************************************************************
 695:Generated_Source\PSoC6\pdl\middleware\ble/cy_ble_gap.h **** * Function Name: Cy_BLE_SetState
 696:Generated_Source\PSoC6\pdl\middleware\ble/cy_ble_gap.h **** ***************************************************************************//**
 697:Generated_Source\PSoC6\pdl\middleware\ble/cy_ble_gap.h **** *
 698:Generated_Source\PSoC6\pdl\middleware\ble/cy_ble_gap.h **** *  Used to set the BLE Middleware state machine's state.
 699:Generated_Source\PSoC6\pdl\middleware\ble/cy_ble_gap.h **** *
 700:Generated_Source\PSoC6\pdl\middleware\ble/cy_ble_gap.h **** *  \param state: The desired state to which the event handler's
 701:Generated_Source\PSoC6\pdl\middleware\ble/cy_ble_gap.h **** *   state machine should be set. The parameter state is a variable
 702:Generated_Source\PSoC6\pdl\middleware\ble/cy_ble_gap.h **** *   of type cy_en_ble_state_t.
 703:Generated_Source\PSoC6\pdl\middleware\ble/cy_ble_gap.h **** *
 704:Generated_Source\PSoC6\pdl\middleware\ble/cy_ble_gap.h **** * \return
 705:Generated_Source\PSoC6\pdl\middleware\ble/cy_ble_gap.h **** *  None
 706:Generated_Source\PSoC6\pdl\middleware\ble/cy_ble_gap.h **** *
 707:Generated_Source\PSoC6\pdl\middleware\ble/cy_ble_gap.h **** ******************************************************************************/
 708:Generated_Source\PSoC6\pdl\middleware\ble/cy_ble_gap.h **** #define Cy_BLE_SetState(state)    (cy_ble_state = (state))
 709:Generated_Source\PSoC6\pdl\middleware\ble/cy_ble_gap.h **** /** \endcond */
 710:Generated_Source\PSoC6\pdl\middleware\ble/cy_ble_gap.h **** 
 711:Generated_Source\PSoC6\pdl\middleware\ble/cy_ble_gap.h **** #if (CY_BLE_GAP_ROLE_PERIPHERAL || CY_BLE_GAP_ROLE_BROADCASTER)
 712:Generated_Source\PSoC6\pdl\middleware\ble/cy_ble_gap.h **** 
 713:Generated_Source\PSoC6\pdl\middleware\ble/cy_ble_gap.h **** 
 714:Generated_Source\PSoC6\pdl\middleware\ble/cy_ble_gap.h **** /******************************************************************************
 715:Generated_Source\PSoC6\pdl\middleware\ble/cy_ble_gap.h **** * Function Name: Cy_BLE_GetAdvertisementState
 716:Generated_Source\PSoC6\pdl\middleware\ble/cy_ble_gap.h **** ***************************************************************************//**
 717:Generated_Source\PSoC6\pdl\middleware\ble/cy_ble_gap.h **** *    
 718:Generated_Source\PSoC6\pdl\middleware\ble/cy_ble_gap.h **** *  This function returns the state of the link layer hardware advertisement
 719:Generated_Source\PSoC6\pdl\middleware\ble/cy_ble_gap.h **** *  engine.
 720:Generated_Source\PSoC6\pdl\middleware\ble/cy_ble_gap.h **** *
 721:Generated_Source\PSoC6\pdl\middleware\ble/cy_ble_gap.h **** *  \image html ble_advertisement_state_machine.png
 722:Generated_Source\PSoC6\pdl\middleware\ble/cy_ble_gap.h **** *
 723:Generated_Source\PSoC6\pdl\middleware\ble/cy_ble_gap.h **** *  When Cy_BLE_GAPP_StartAdvertisement() is called, the state is set to
 724:Generated_Source\PSoC6\pdl\middleware\ble/cy_ble_gap.h **** *  #CY_BLE_ADV_STATE_ADV_INITIATED. It automatically changes to
 725:Generated_Source\PSoC6\pdl\middleware\ble/cy_ble_gap.h **** *  #CY_BLE_ADV_STATE_ADVERTISING when #CY_BLE_EVT_GAPP_ADVERTISEMENT_START_STOP
 726:Generated_Source\PSoC6\pdl\middleware\ble/cy_ble_gap.h **** *  event is received. When Cy_BLE_GAPP_StopAdvertisement() is called, the
 727:Generated_Source\PSoC6\pdl\middleware\ble/cy_ble_gap.h **** *  state is set to #CY_BLE_ADV_STATE_STOP_INITIATED. It automatically changes
 728:Generated_Source\PSoC6\pdl\middleware\ble/cy_ble_gap.h **** *  to #CY_BLE_ADV_STATE_STOPPED when the #CY_BLE_EVT_GAPP_ADVERTISEMENT_START_STOP
 729:Generated_Source\PSoC6\pdl\middleware\ble/cy_ble_gap.h **** *  event is received.
 730:Generated_Source\PSoC6\pdl\middleware\ble/cy_ble_gap.h **** *
 731:Generated_Source\PSoC6\pdl\middleware\ble/cy_ble_gap.h **** * \return
 732:Generated_Source\PSoC6\pdl\middleware\ble/cy_ble_gap.h **** * \ref cy_en_ble_adv_state_t :The current advertising state. The following are 
 733:Generated_Source\PSoC6\pdl\middleware\ble/cy_ble_gap.h **** *                              possible states.
 734:Generated_Source\PSoC6\pdl\middleware\ble/cy_ble_gap.h **** *
 735:Generated_Source\PSoC6\pdl\middleware\ble/cy_ble_gap.h **** *               State                |         Description
 736:Generated_Source\PSoC6\pdl\middleware\ble/cy_ble_gap.h **** *   -------------------------------- | -----------------------------
 737:Generated_Source\PSoC6\pdl\middleware\ble/cy_ble_gap.h **** *   CY_BLE_ADV_STATE_STOPPED         | Advertising is stopped.
 738:Generated_Source\PSoC6\pdl\middleware\ble/cy_ble_gap.h **** *   CY_BLE_ADV_STATE_ADV_INITIATED   | Advertising is initiated.
 739:Generated_Source\PSoC6\pdl\middleware\ble/cy_ble_gap.h **** *   CY_BLE_ADV_STATE_ADVERTISING     | Advertising is initiated.
 740:Generated_Source\PSoC6\pdl\middleware\ble/cy_ble_gap.h **** *   CY_BLE_ADV_STATE_STOP_INITIATED  | Stop advertising is initiated.
 741:Generated_Source\PSoC6\pdl\middleware\ble/cy_ble_gap.h **** *
 742:Generated_Source\PSoC6\pdl\middleware\ble/cy_ble_gap.h **** ******************************************************************************/
 743:Generated_Source\PSoC6\pdl\middleware\ble/cy_ble_gap.h **** __STATIC_INLINE cy_en_ble_adv_state_t Cy_BLE_GetAdvertisementState(void)
ARM GAS  C:\Users\D4DE~1\AppData\Local\Temp\cccuUyWy.s 			page 33


 744:Generated_Source\PSoC6\pdl\middleware\ble/cy_ble_gap.h **** {
 745:Generated_Source\PSoC6\pdl\middleware\ble/cy_ble_gap.h ****     return(cy_ble_advState);
 746:Generated_Source\PSoC6\pdl\middleware\ble/cy_ble_gap.h **** }
 747:Generated_Source\PSoC6\pdl\middleware\ble/cy_ble_gap.h **** 
 748:Generated_Source\PSoC6\pdl\middleware\ble/cy_ble_gap.h **** /** \cond IGNORE */
 749:Generated_Source\PSoC6\pdl\middleware\ble/cy_ble_gap.h **** /******************************************************************************
 750:Generated_Source\PSoC6\pdl\middleware\ble/cy_ble_gap.h **** * Function Name: Cy_BLE_SetAdvertisementState
 751:Generated_Source\PSoC6\pdl\middleware\ble/cy_ble_gap.h **** ***************************************************************************//**
 752:Generated_Source\PSoC6\pdl\middleware\ble/cy_ble_gap.h **** *
 753:Generated_Source\PSoC6\pdl\middleware\ble/cy_ble_gap.h **** *  Used to set the state of the link layer hardware advertisement engine.
 754:Generated_Source\PSoC6\pdl\middleware\ble/cy_ble_gap.h **** *
 755:Generated_Source\PSoC6\pdl\middleware\ble/cy_ble_gap.h **** *  \param state: The desired state.
 756:Generated_Source\PSoC6\pdl\middleware\ble/cy_ble_gap.h **** *
 757:Generated_Source\PSoC6\pdl\middleware\ble/cy_ble_gap.h **** * \return
 758:Generated_Source\PSoC6\pdl\middleware\ble/cy_ble_gap.h **** *  None
 759:Generated_Source\PSoC6\pdl\middleware\ble/cy_ble_gap.h **** *
 760:Generated_Source\PSoC6\pdl\middleware\ble/cy_ble_gap.h **** ******************************************************************************/
 761:Generated_Source\PSoC6\pdl\middleware\ble/cy_ble_gap.h **** __STATIC_INLINE void Cy_BLE_SetAdvertisementState(cy_en_ble_adv_state_t state)
 762:Generated_Source\PSoC6\pdl\middleware\ble/cy_ble_gap.h **** {
 763:Generated_Source\PSoC6\pdl\middleware\ble/cy_ble_gap.h ****     cy_ble_advState = state;
 658              		.loc 2 763 0
 659 01ca 774A     		ldr	r2, .L108+124
 660 01cc 1370     		strb	r3, [r2]
 661              	.LVL60:
 662              	.LBE94:
 663              	.LBE93:
 391:Generated_Source\PSoC6\pdl\middleware\ble/cy_ble_event_handler.c **** 
 392:Generated_Source\PSoC6\pdl\middleware\ble/cy_ble_event_handler.c ****             #if (CY_BLE_GAP_ROLE_PERIPHERAL || CY_BLE_GAP_ROLE_BROADCASTER)
 393:Generated_Source\PSoC6\pdl\middleware\ble/cy_ble_event_handler.c ****             Cy_BLE_SetAdvertisementState(CY_BLE_ADV_STATE_STOPPED);
 394:Generated_Source\PSoC6\pdl\middleware\ble/cy_ble_event_handler.c ****             #endif  /* (CY_BLE_GAP_ROLE_PERIPHERAL || CY_BLE_GAP_ROLE_BROADCASTER) */
 395:Generated_Source\PSoC6\pdl\middleware\ble/cy_ble_event_handler.c **** 
 396:Generated_Source\PSoC6\pdl\middleware\ble/cy_ble_event_handler.c ****             #if (CY_BLE_GAP_ROLE_CENTRAL || CY_BLE_GAP_ROLE_OBSERVER)
 397:Generated_Source\PSoC6\pdl\middleware\ble/cy_ble_event_handler.c ****             Cy_BLE_SetScanState(CY_BLE_SCAN_STATE_STOPPED);
 398:Generated_Source\PSoC6\pdl\middleware\ble/cy_ble_event_handler.c ****             #endif /* (CY_BLE_GAP_ROLE_CENTRAL || CY_BLE_GAP_ROLE_OBSERVER) */
 399:Generated_Source\PSoC6\pdl\middleware\ble/cy_ble_event_handler.c ****             
 400:Generated_Source\PSoC6\pdl\middleware\ble/cy_ble_event_handler.c ****             /* Clean pair status */
 401:Generated_Source\PSoC6\pdl\middleware\ble/cy_ble_event_handler.c ****             #if ((CY_BLE_GAP_ROLE_PERIPHERAL || CY_BLE_GAP_ROLE_CENTRAL))
 402:Generated_Source\PSoC6\pdl\middleware\ble/cy_ble_event_handler.c ****             (void)memset((uint8_t*)cy_ble_pairStatus, 0, sizeof(cy_ble_pairStatus));
 664              		.loc 1 402 0
 665 01ce 0222     		movs	r2, #2
 666 01d0 0021     		movs	r1, #0
 667 01d2 7648     		ldr	r0, .L108+128
 668              	.LVL61:
 669 01d4 FFF7FEFF 		bl	memset
 670              	.LVL62:
 403:Generated_Source\PSoC6\pdl\middleware\ble/cy_ble_event_handler.c ****             #endif /*((CY_BLE_GAP_ROLE_PERIPHERAL || CY_BLE_GAP_ROLE_CENTRAL))*/
 404:Generated_Source\PSoC6\pdl\middleware\ble/cy_ble_event_handler.c **** 
 405:Generated_Source\PSoC6\pdl\middleware\ble/cy_ble_event_handler.c ****             /* Adding a delay of 10ms to ensure that the controller is completely 
 406:Generated_Source\PSoC6\pdl\middleware\ble/cy_ble_event_handler.c ****              * shut-down before generating the event to the application.
 407:Generated_Source\PSoC6\pdl\middleware\ble/cy_ble_event_handler.c ****              * Refer to CY_BLE_EVT_STACK_SHUTDOWN_COMPLETE event documentation. */
 408:Generated_Source\PSoC6\pdl\middleware\ble/cy_ble_event_handler.c ****             #if(CY_BLE_STACK_MODE_HOST_IPC)
 409:Generated_Source\PSoC6\pdl\middleware\ble/cy_ble_event_handler.c ****                 Cy_SysLib_Delay(10u);
 410:Generated_Source\PSoC6\pdl\middleware\ble/cy_ble_event_handler.c ****             #endif /* CY_BLE_STACK_MODE_HOST_IPC */  
 411:Generated_Source\PSoC6\pdl\middleware\ble/cy_ble_event_handler.c **** 
 412:Generated_Source\PSoC6\pdl\middleware\ble/cy_ble_event_handler.c ****             if ( event == CY_BLE_EVT_STACK_SHUTDOWN_COMPLETE)
 671              		.loc 1 412 0
 672 01d8 5D4B     		ldr	r3, .L108+36
ARM GAS  C:\Users\D4DE~1\AppData\Local\Temp\cccuUyWy.s 			page 34


 673 01da 9C42     		cmp	r4, r3
 674 01dc 00D0     		beq	.LCB643
 675 01de CCE2     		b	.L31	@long jump
 676              	.LCB643:
 413:Generated_Source\PSoC6\pdl\middleware\ble/cy_ble_event_handler.c ****             {
 414:Generated_Source\PSoC6\pdl\middleware\ble/cy_ble_event_handler.c ****                 /* Unregister BLE callback for Deepsleep/Sleep */
 415:Generated_Source\PSoC6\pdl\middleware\ble/cy_ble_event_handler.c ****                 Cy_BLE_UnregisterHostPMCallbacks();
 677              		.loc 1 415 0
 678 01e0 FFF7FEFF 		bl	Cy_BLE_UnregisterHostPMCallbacks
 679              	.LVL63:
 680 01e4 C9E2     		b	.L31
 681              	.LVL64:
 682              	.L34:
 416:Generated_Source\PSoC6\pdl\middleware\ble/cy_ble_event_handler.c ****             }
 417:Generated_Source\PSoC6\pdl\middleware\ble/cy_ble_event_handler.c ****             break;
 418:Generated_Source\PSoC6\pdl\middleware\ble/cy_ble_event_handler.c **** 
 419:Generated_Source\PSoC6\pdl\middleware\ble/cy_ble_event_handler.c ****         case CY_BLE_EVT_LE_SET_EVENT_MASK_COMPLETE:
 420:Generated_Source\PSoC6\pdl\middleware\ble/cy_ble_event_handler.c ****         #if (CY_BLE_MODE_PROFILE)
 421:Generated_Source\PSoC6\pdl\middleware\ble/cy_ble_event_handler.c ****             {
 422:Generated_Source\PSoC6\pdl\middleware\ble/cy_ble_event_handler.c ****                 if((cy_ble_cmdStatus & CY_BLE_STATUS_SET_TX_PWR_LVL) == 0u)
 683              		.loc 1 422 0
 684 01e6 724B     		ldr	r3, .L108+132
 685 01e8 1B68     		ldr	r3, [r3]
 686 01ea DB07     		lsls	r3, r3, #31
 687 01ec 00D5     		bpl	.LCB656
 688 01ee C4E2     		b	.L31	@long jump
 689              	.LCB656:
 690              	.LBB95:
 423:Generated_Source\PSoC6\pdl\middleware\ble/cy_ble_event_handler.c ****                 {
 424:Generated_Source\PSoC6\pdl\middleware\ble/cy_ble_event_handler.c ****                     cy_stc_ble_tx_pwr_lvl_info_t bleSsPowerLevel = { .pwrConfigParam.bdHandle = 0x0
 691              		.loc 1 424 0
 692 01f0 05AE     		add	r6, sp, #20
 693 01f2 0322     		movs	r2, #3
 694 01f4 0021     		movs	r1, #0
 695 01f6 3000     		movs	r0, r6
 696              	.LVL65:
 697 01f8 FFF7FEFF 		bl	memset
 698              	.LVL66:
 425:Generated_Source\PSoC6\pdl\middleware\ble/cy_ble_event_handler.c **** 
 426:Generated_Source\PSoC6\pdl\middleware\ble/cy_ble_event_handler.c ****                     /* Set the Tx Power Level for advertising and connection channels */
 427:Generated_Source\PSoC6\pdl\middleware\ble/cy_ble_event_handler.c ****                     bleSsPowerLevel.blePwrLevel = cy_ble_configPtr->params->txPowerLevelAdv;
 699              		.loc 1 427 0
 700 01fc 644F     		ldr	r7, .L108+100
 701 01fe 3B68     		ldr	r3, [r7]
 702 0200 9B6A     		ldr	r3, [r3, #40]
 703 0202 1B78     		ldrb	r3, [r3]
 704 0204 5BB2     		sxtb	r3, r3
 705 0206 3370     		strb	r3, [r6]
 428:Generated_Source\PSoC6\pdl\middleware\ble/cy_ble_event_handler.c ****                     bleSsPowerLevel.pwrConfigParam.bleSsChId = CY_BLE_LL_ADV_CH_TYPE;
 429:Generated_Source\PSoC6\pdl\middleware\ble/cy_ble_event_handler.c ****                     (void)Cy_BLE_SetTxPowerLevel(&bleSsPowerLevel);
 706              		.loc 1 429 0
 707 0208 3000     		movs	r0, r6
 708 020a FFF7FEFF 		bl	Cy_BLE_SetTxPowerLevel
 709              	.LVL67:
 430:Generated_Source\PSoC6\pdl\middleware\ble/cy_ble_event_handler.c **** 
 431:Generated_Source\PSoC6\pdl\middleware\ble/cy_ble_event_handler.c ****                     bleSsPowerLevel.blePwrLevel = cy_ble_configPtr->params->txPowerLevelConn;
 710              		.loc 1 431 0
ARM GAS  C:\Users\D4DE~1\AppData\Local\Temp\cccuUyWy.s 			page 35


 711 020e 3B68     		ldr	r3, [r7]
 712 0210 9B6A     		ldr	r3, [r3, #40]
 713 0212 5B78     		ldrb	r3, [r3, #1]
 714 0214 5BB2     		sxtb	r3, r3
 715 0216 3370     		strb	r3, [r6]
 432:Generated_Source\PSoC6\pdl\middleware\ble/cy_ble_event_handler.c ****                     bleSsPowerLevel.pwrConfigParam.bleSsChId = CY_BLE_LL_CONN_CH_TYPE;
 716              		.loc 1 432 0
 717 0218 0127     		movs	r7, #1
 718 021a 7770     		strb	r7, [r6, #1]
 433:Generated_Source\PSoC6\pdl\middleware\ble/cy_ble_event_handler.c ****                     bleSsPowerLevel.pwrConfigParam.bdHandle = 0xFFu; /* Set the tx power level valu
 719              		.loc 1 433 0
 720 021c FF23     		movs	r3, #255
 721 021e B370     		strb	r3, [r6, #2]
 434:Generated_Source\PSoC6\pdl\middleware\ble/cy_ble_event_handler.c ****                     (void)Cy_BLE_SetTxPowerLevel(&bleSsPowerLevel);
 722              		.loc 1 434 0
 723 0220 3000     		movs	r0, r6
 724 0222 FFF7FEFF 		bl	Cy_BLE_SetTxPowerLevel
 725              	.LVL68:
 435:Generated_Source\PSoC6\pdl\middleware\ble/cy_ble_event_handler.c ****                     
 436:Generated_Source\PSoC6\pdl\middleware\ble/cy_ble_event_handler.c ****                     /* Set flag that executed Cy_BLE_SetTxPowerLevel during BLE start-up  */
 437:Generated_Source\PSoC6\pdl\middleware\ble/cy_ble_event_handler.c ****                     cy_ble_cmdStatus |= CY_BLE_STATUS_SET_TX_PWR_LVL;
 726              		.loc 1 437 0
 727 0226 624B     		ldr	r3, .L108+132
 728 0228 1A68     		ldr	r2, [r3]
 729 022a 1743     		orrs	r7, r2
 730 022c 1F60     		str	r7, [r3]
 731 022e A4E2     		b	.L31
 732              	.LVL69:
 733              	.L39:
 734              	.LBE95:
 438:Generated_Source\PSoC6\pdl\middleware\ble/cy_ble_event_handler.c ****                 }
 439:Generated_Source\PSoC6\pdl\middleware\ble/cy_ble_event_handler.c ****             }
 440:Generated_Source\PSoC6\pdl\middleware\ble/cy_ble_event_handler.c ****         #endif /* CY_BLE_MODE_PROFILE */
 441:Generated_Source\PSoC6\pdl\middleware\ble/cy_ble_event_handler.c ****             break;
 442:Generated_Source\PSoC6\pdl\middleware\ble/cy_ble_event_handler.c ****             
 443:Generated_Source\PSoC6\pdl\middleware\ble/cy_ble_event_handler.c ****         case CY_BLE_EVT_TIMEOUT:
 444:Generated_Source\PSoC6\pdl\middleware\ble/cy_ble_event_handler.c ****             Cy_BLE_TimeOutEventHandler((cy_stc_ble_timeout_param_t*)evParam);
 445:Generated_Source\PSoC6\pdl\middleware\ble/cy_ble_event_handler.c ****         #if (CY_BLE_GAP_ROLE_PERIPHERAL || CY_BLE_GAP_ROLE_CENTRAL)
 446:Generated_Source\PSoC6\pdl\middleware\ble/cy_ble_event_handler.c ****             (void)Cy_BLE_InvokeServiceEventHandler((uint32_t)event, (void*)evParam);
 735              		.loc 1 446 0
 736 0230 2900     		movs	r1, r5
 737 0232 FFF7FEFF 		bl	Cy_BLE_InvokeServiceEventHandler
 738              	.LVL70:
 447:Generated_Source\PSoC6\pdl\middleware\ble/cy_ble_event_handler.c ****         #endif /*(CY_BLE_GAP_ROLE_PERIPHERAL || CY_BLE_GAP_ROLE_CENTRAL)*/
 448:Generated_Source\PSoC6\pdl\middleware\ble/cy_ble_event_handler.c ****             break;
 739              		.loc 1 448 0
 740 0236 A0E2     		b	.L31
 741              	.LVL71:
 742              	.L36:
 449:Generated_Source\PSoC6\pdl\middleware\ble/cy_ble_event_handler.c **** 
 450:Generated_Source\PSoC6\pdl\middleware\ble/cy_ble_event_handler.c ****         case CY_BLE_EVT_STACK_BUSY_STATUS:
 451:Generated_Source\PSoC6\pdl\middleware\ble/cy_ble_event_handler.c ****         #if (CY_BLE_GAP_ROLE_PERIPHERAL || CY_BLE_GAP_ROLE_CENTRAL)
 452:Generated_Source\PSoC6\pdl\middleware\ble/cy_ble_event_handler.c ****             cy_ble_busyStatus[Cy_BLE_GetConnHandleByBdHandle(((cy_stc_ble_l2cap_state_info_t*)evPar
 743              		.loc 1 452 0
 744 0238 6B78     		ldrb	r3, [r5, #1]
 745 023a 9846     		mov	r8, r3
 746              	.LVL72:
ARM GAS  C:\Users\D4DE~1\AppData\Local\Temp\cccuUyWy.s 			page 36


 747              	.LBB96:
 748              	.LBB97:
 764:Generated_Source\PSoC6\pdl\middleware\ble/cy_ble_gap.h **** }
 765:Generated_Source\PSoC6\pdl\middleware\ble/cy_ble_gap.h **** /** \endcond */
 766:Generated_Source\PSoC6\pdl\middleware\ble/cy_ble_gap.h **** 
 767:Generated_Source\PSoC6\pdl\middleware\ble/cy_ble_gap.h **** #endif /* (CY_BLE_GAP_ROLE_PERIPHERAL || CY_BLE_GAP_ROLE_BROADCASTER) */
 768:Generated_Source\PSoC6\pdl\middleware\ble/cy_ble_gap.h **** 
 769:Generated_Source\PSoC6\pdl\middleware\ble/cy_ble_gap.h **** #if (CY_BLE_GAP_ROLE_CENTRAL || CY_BLE_GAP_ROLE_OBSERVER)
 770:Generated_Source\PSoC6\pdl\middleware\ble/cy_ble_gap.h **** 
 771:Generated_Source\PSoC6\pdl\middleware\ble/cy_ble_gap.h **** /******************************************************************************
 772:Generated_Source\PSoC6\pdl\middleware\ble/cy_ble_gap.h **** * Function Name: Cy_BLE_GetScanState
 773:Generated_Source\PSoC6\pdl\middleware\ble/cy_ble_gap.h **** ***************************************************************************//**
 774:Generated_Source\PSoC6\pdl\middleware\ble/cy_ble_gap.h **** *    
 775:Generated_Source\PSoC6\pdl\middleware\ble/cy_ble_gap.h **** *  This returns the state of the link layer hardware scan engine.
 776:Generated_Source\PSoC6\pdl\middleware\ble/cy_ble_gap.h **** *
 777:Generated_Source\PSoC6\pdl\middleware\ble/cy_ble_gap.h **** *  \image html ble_scanning_state_machine.png
 778:Generated_Source\PSoC6\pdl\middleware\ble/cy_ble_gap.h **** *   
 779:Generated_Source\PSoC6\pdl\middleware\ble/cy_ble_gap.h **** *  When Cy_BLE_GAPC_StartScan() is called the state is set to
 780:Generated_Source\PSoC6\pdl\middleware\ble/cy_ble_gap.h **** *  #CY_BLE_SCAN_STATE_SCAN_INITIATED. It automatically changes to
 781:Generated_Source\PSoC6\pdl\middleware\ble/cy_ble_gap.h **** *  #CY_BLE_SCAN_STATE_SCANNING when the #CY_BLE_EVT_GAPC_SCAN_START_STOP event is
 782:Generated_Source\PSoC6\pdl\middleware\ble/cy_ble_gap.h **** *  received. 
 783:Generated_Source\PSoC6\pdl\middleware\ble/cy_ble_gap.h **** *  When Cy_BLE_GAPC_StopScan() is called, the state is set to
 784:Generated_Source\PSoC6\pdl\middleware\ble/cy_ble_gap.h **** *  #CY_BLE_SCAN_STATE_STOP_INITIATED. It automatically changes to
 785:Generated_Source\PSoC6\pdl\middleware\ble/cy_ble_gap.h **** *  #CY_BLE_SCAN_STATE_STOPPED when the #CY_BLE_EVT_GAPC_SCAN_START_STOP event is
 786:Generated_Source\PSoC6\pdl\middleware\ble/cy_ble_gap.h **** *  received.
 787:Generated_Source\PSoC6\pdl\middleware\ble/cy_ble_gap.h **** *
 788:Generated_Source\PSoC6\pdl\middleware\ble/cy_ble_gap.h **** *  \return
 789:Generated_Source\PSoC6\pdl\middleware\ble/cy_ble_gap.h **** *  \ref cy_en_ble_scan_state_t : The current scan state. The following are 
 790:Generated_Source\PSoC6\pdl\middleware\ble/cy_ble_gap.h **** *                                possible states.
 791:Generated_Source\PSoC6\pdl\middleware\ble/cy_ble_gap.h **** *
 792:Generated_Source\PSoC6\pdl\middleware\ble/cy_ble_gap.h **** *               State                |         Description
 793:Generated_Source\PSoC6\pdl\middleware\ble/cy_ble_gap.h **** *   -------------------------------- | -----------------------------
 794:Generated_Source\PSoC6\pdl\middleware\ble/cy_ble_gap.h **** *   CY_BLE_SCAN_STATE_STOPPED        | Scanning is stopped.
 795:Generated_Source\PSoC6\pdl\middleware\ble/cy_ble_gap.h **** *   CY_BLE_SCAN_STATE_SCAN_INITIATED | Scanning is initiated.
 796:Generated_Source\PSoC6\pdl\middleware\ble/cy_ble_gap.h **** *   CY_BLE_SCAN_STATE_SCANNING       | Scanning process.
 797:Generated_Source\PSoC6\pdl\middleware\ble/cy_ble_gap.h **** *   CY_BLE_SCAN_STATE_STOP_INITIATED | Stop scanning is initiated.
 798:Generated_Source\PSoC6\pdl\middleware\ble/cy_ble_gap.h **** *
 799:Generated_Source\PSoC6\pdl\middleware\ble/cy_ble_gap.h **** ******************************************************************************/
 800:Generated_Source\PSoC6\pdl\middleware\ble/cy_ble_gap.h **** __STATIC_INLINE cy_en_ble_scan_state_t Cy_BLE_GetScanState(void)
 801:Generated_Source\PSoC6\pdl\middleware\ble/cy_ble_gap.h **** {
 802:Generated_Source\PSoC6\pdl\middleware\ble/cy_ble_gap.h ****     return(cy_ble_scanState);
 803:Generated_Source\PSoC6\pdl\middleware\ble/cy_ble_gap.h **** }
 804:Generated_Source\PSoC6\pdl\middleware\ble/cy_ble_gap.h **** 
 805:Generated_Source\PSoC6\pdl\middleware\ble/cy_ble_gap.h **** /** \cond IGNORE */
 806:Generated_Source\PSoC6\pdl\middleware\ble/cy_ble_gap.h **** /******************************************************************************
 807:Generated_Source\PSoC6\pdl\middleware\ble/cy_ble_gap.h **** * Function Name: Cy_BLE_SetScanState
 808:Generated_Source\PSoC6\pdl\middleware\ble/cy_ble_gap.h **** ***************************************************************************//**
 809:Generated_Source\PSoC6\pdl\middleware\ble/cy_ble_gap.h **** *
 810:Generated_Source\PSoC6\pdl\middleware\ble/cy_ble_gap.h **** *  Used to set the state of the link layer hardware scan engine.
 811:Generated_Source\PSoC6\pdl\middleware\ble/cy_ble_gap.h **** *
 812:Generated_Source\PSoC6\pdl\middleware\ble/cy_ble_gap.h **** *  \param state: The desired state.
 813:Generated_Source\PSoC6\pdl\middleware\ble/cy_ble_gap.h **** *
 814:Generated_Source\PSoC6\pdl\middleware\ble/cy_ble_gap.h **** *  \return
 815:Generated_Source\PSoC6\pdl\middleware\ble/cy_ble_gap.h **** *  None
 816:Generated_Source\PSoC6\pdl\middleware\ble/cy_ble_gap.h **** *
 817:Generated_Source\PSoC6\pdl\middleware\ble/cy_ble_gap.h **** ******************************************************************************/
 818:Generated_Source\PSoC6\pdl\middleware\ble/cy_ble_gap.h **** __STATIC_INLINE void Cy_BLE_SetScanState(cy_en_ble_scan_state_t state)
ARM GAS  C:\Users\D4DE~1\AppData\Local\Temp\cccuUyWy.s 			page 37


 819:Generated_Source\PSoC6\pdl\middleware\ble/cy_ble_gap.h **** {
 820:Generated_Source\PSoC6\pdl\middleware\ble/cy_ble_gap.h ****     cy_ble_scanState = state;
 821:Generated_Source\PSoC6\pdl\middleware\ble/cy_ble_gap.h **** }
 822:Generated_Source\PSoC6\pdl\middleware\ble/cy_ble_gap.h **** /** \endcond */
 823:Generated_Source\PSoC6\pdl\middleware\ble/cy_ble_gap.h **** 
 824:Generated_Source\PSoC6\pdl\middleware\ble/cy_ble_gap.h **** #endif  /* (CY_BLE_GAP_ROLE_CENTRAL || CY_BLE_GAP_ROLE_OBSERVER) */
 825:Generated_Source\PSoC6\pdl\middleware\ble/cy_ble_gap.h **** 
 826:Generated_Source\PSoC6\pdl\middleware\ble/cy_ble_gap.h ****  
 827:Generated_Source\PSoC6\pdl\middleware\ble/cy_ble_gap.h **** #if ((CY_BLE_GAP_ROLE_PERIPHERAL || CY_BLE_GAP_ROLE_CENTRAL))
 828:Generated_Source\PSoC6\pdl\middleware\ble/cy_ble_gap.h **** 
 829:Generated_Source\PSoC6\pdl\middleware\ble/cy_ble_gap.h **** /******************************************************************************
 830:Generated_Source\PSoC6\pdl\middleware\ble/cy_ble_gap.h **** * Function Name: Cy_BLE_GetConnectionState
 831:Generated_Source\PSoC6\pdl\middleware\ble/cy_ble_gap.h **** ***************************************************************************//**
 832:Generated_Source\PSoC6\pdl\middleware\ble/cy_ble_gap.h **** *  This function returns the state of the BLE link for the specified connection
 833:Generated_Source\PSoC6\pdl\middleware\ble/cy_ble_gap.h **** *  handle.
 834:Generated_Source\PSoC6\pdl\middleware\ble/cy_ble_gap.h **** *
 835:Generated_Source\PSoC6\pdl\middleware\ble/cy_ble_gap.h **** *  The state is set to #CY_BLE_CONN_STATE_CONNECTED when #CY_BLE_EVT_GATT_CONNECT_IND
 836:Generated_Source\PSoC6\pdl\middleware\ble/cy_ble_gap.h **** *  event is received with the corresponding connection handle.
 837:Generated_Source\PSoC6\pdl\middleware\ble/cy_ble_gap.h **** *  The state is set to #CY_BLE_CONN_STATE_DISCONNECTED when the
 838:Generated_Source\PSoC6\pdl\middleware\ble/cy_ble_gap.h **** *  #CY_BLE_EVT_GATT_DISCONNECT_IND event is received.
 839:Generated_Source\PSoC6\pdl\middleware\ble/cy_ble_gap.h **** *
 840:Generated_Source\PSoC6\pdl\middleware\ble/cy_ble_gap.h **** *  For GATT Client role when Cy_BLE_GATTC_StartDiscovery() is called, the state
 841:Generated_Source\PSoC6\pdl\middleware\ble/cy_ble_gap.h **** *  indicates the current flow of the discovery procedure by
 842:Generated_Source\PSoC6\pdl\middleware\ble/cy_ble_gap.h **** *  #CY_BLE_CONN_STATE_CLIENT_SRVC_DISCOVERING,
 843:Generated_Source\PSoC6\pdl\middleware\ble/cy_ble_gap.h **** *  #CY_BLE_CONN_STATE_CLIENT_INCL_DISCOVERING,
 844:Generated_Source\PSoC6\pdl\middleware\ble/cy_ble_gap.h **** *  #CY_BLE_CONN_STATE_CLIENT_CHAR_DISCOVERING,
 845:Generated_Source\PSoC6\pdl\middleware\ble/cy_ble_gap.h **** *  #CY_BLE_CONN_STATE_CLIENT_DESCR_DISCOVERING and changes to
 846:Generated_Source\PSoC6\pdl\middleware\ble/cy_ble_gap.h **** *  #CY_BLE_CONN_STATE_CLIENT_DISCOVERED when the procedure successfully completes.
 847:Generated_Source\PSoC6\pdl\middleware\ble/cy_ble_gap.h **** *
 848:Generated_Source\PSoC6\pdl\middleware\ble/cy_ble_gap.h **** *  The state changes from #CY_BLE_CONN_STATE_CLIENT_DISCOVERED to
 849:Generated_Source\PSoC6\pdl\middleware\ble/cy_ble_gap.h **** *  #CY_BLE_CONN_STATE_CLIENT_DISCONNECTED_DISCOVERED when
 850:Generated_Source\PSoC6\pdl\middleware\ble/cy_ble_gap.h **** *  the #CY_BLE_EVT_GATT_DISCONNECT_IND event is received.
 851:Generated_Source\PSoC6\pdl\middleware\ble/cy_ble_gap.h **** *  The state comes backs to #CY_BLE_CONN_STATE_CLIENT_DISCOVERED when
 852:Generated_Source\PSoC6\pdl\middleware\ble/cy_ble_gap.h **** *  #CY_BLE_EVT_GATT_CONNECT_IND event is received and resolvable device
 853:Generated_Source\PSoC6\pdl\middleware\ble/cy_ble_gap.h **** *  address is not changed.
 854:Generated_Source\PSoC6\pdl\middleware\ble/cy_ble_gap.h **** *
 855:Generated_Source\PSoC6\pdl\middleware\ble/cy_ble_gap.h **** *  \param connHandle: The connection handle.
 856:Generated_Source\PSoC6\pdl\middleware\ble/cy_ble_gap.h **** *
 857:Generated_Source\PSoC6\pdl\middleware\ble/cy_ble_gap.h **** * \return
 858:Generated_Source\PSoC6\pdl\middleware\ble/cy_ble_gap.h **** * \ref cy_en_ble_conn_state_t : The current client state. The following are 
 859:Generated_Source\PSoC6\pdl\middleware\ble/cy_ble_gap.h **** *                               possible states.
 860:Generated_Source\PSoC6\pdl\middleware\ble/cy_ble_gap.h **** *
 861:Generated_Source\PSoC6\pdl\middleware\ble/cy_ble_gap.h **** *               State                                |         Description
 862:Generated_Source\PSoC6\pdl\middleware\ble/cy_ble_gap.h **** *   ------------------------------------------------ | -----------------------------
 863:Generated_Source\PSoC6\pdl\middleware\ble/cy_ble_gap.h **** *   CY_BLE_CONN_STATE_DISCONNECTED                   | Essentially idle state
 864:Generated_Source\PSoC6\pdl\middleware\ble/cy_ble_gap.h **** *   CY_BLE_CONN_STATE_CLIENT_DISCONNECTED_DISCOVERED | Server is disconnected but discovered.
 865:Generated_Source\PSoC6\pdl\middleware\ble/cy_ble_gap.h **** *   CY_BLE_CONN_STATE_CONNECTED                      | Peer device is connected for this and follow
 866:Generated_Source\PSoC6\pdl\middleware\ble/cy_ble_gap.h **** *   CY_BLE_CONN_STATE_CLIENT_SRVC_DISCOVERING        | Server services are being discovered.
 867:Generated_Source\PSoC6\pdl\middleware\ble/cy_ble_gap.h **** *   CY_BLE_CONN_STATE_CLIENT_INCL_DISCOVERING        | Server included services are being discovere
 868:Generated_Source\PSoC6\pdl\middleware\ble/cy_ble_gap.h **** *   CY_BLE_CONN_STATE_CLIENT_CHAR_DISCOVERING        | Server characteristics are being discovered
 869:Generated_Source\PSoC6\pdl\middleware\ble/cy_ble_gap.h **** *   CY_BLE_CONN_STATE_CLIENT_DESCR_DISCOVERING       | Server char. descriptors are being discovere
 870:Generated_Source\PSoC6\pdl\middleware\ble/cy_ble_gap.h **** *   CY_BLE_CONN_STATE_CLIENT_DISCOVERED              | Server is discovered   
 871:Generated_Source\PSoC6\pdl\middleware\ble/cy_ble_gap.h **** *
 872:Generated_Source\PSoC6\pdl\middleware\ble/cy_ble_gap.h **** *  \funcusage 
 873:Generated_Source\PSoC6\pdl\middleware\ble/cy_ble_gap.h **** *  \snippet ble\3.0\snippet\main.c BLE Common API: Cy_BLE_GetConnectionState()
 874:Generated_Source\PSoC6\pdl\middleware\ble/cy_ble_gap.h **** *
 875:Generated_Source\PSoC6\pdl\middleware\ble/cy_ble_gap.h **** ******************************************************************************/
ARM GAS  C:\Users\D4DE~1\AppData\Local\Temp\cccuUyWy.s 			page 38


 876:Generated_Source\PSoC6\pdl\middleware\ble/cy_ble_gap.h **** __STATIC_INLINE cy_en_ble_conn_state_t Cy_BLE_GetConnectionState(cy_stc_ble_conn_handle_t connHandl
 877:Generated_Source\PSoC6\pdl\middleware\ble/cy_ble_gap.h **** {
 878:Generated_Source\PSoC6\pdl\middleware\ble/cy_ble_gap.h ****     return((connHandle.attId < CY_BLE_CONN_COUNT) ? cy_ble_connState[connHandle.attId] : CY_BLE_CON
 879:Generated_Source\PSoC6\pdl\middleware\ble/cy_ble_gap.h **** }
 880:Generated_Source\PSoC6\pdl\middleware\ble/cy_ble_gap.h **** 
 881:Generated_Source\PSoC6\pdl\middleware\ble/cy_ble_gap.h **** /** \cond IGNORE */
 882:Generated_Source\PSoC6\pdl\middleware\ble/cy_ble_gap.h **** /******************************************************************************
 883:Generated_Source\PSoC6\pdl\middleware\ble/cy_ble_gap.h **** * Function Name: Cy_BLE_SetConnectionState
 884:Generated_Source\PSoC6\pdl\middleware\ble/cy_ble_gap.h **** ***************************************************************************//**
 885:Generated_Source\PSoC6\pdl\middleware\ble/cy_ble_gap.h **** *
 886:Generated_Source\PSoC6\pdl\middleware\ble/cy_ble_gap.h **** *  Used to set BLE link state for the specified connection handle.
 887:Generated_Source\PSoC6\pdl\middleware\ble/cy_ble_gap.h **** *
 888:Generated_Source\PSoC6\pdl\middleware\ble/cy_ble_gap.h **** *  \param connHandle: Peer device handle
 889:Generated_Source\PSoC6\pdl\middleware\ble/cy_ble_gap.h **** *  \param state:  The state that is desired to be set
 890:Generated_Source\PSoC6\pdl\middleware\ble/cy_ble_gap.h **** *
 891:Generated_Source\PSoC6\pdl\middleware\ble/cy_ble_gap.h **** ******************************************************************************/
 892:Generated_Source\PSoC6\pdl\middleware\ble/cy_ble_gap.h **** __STATIC_INLINE void Cy_BLE_SetConnectionState(cy_stc_ble_conn_handle_t connHandle,
 893:Generated_Source\PSoC6\pdl\middleware\ble/cy_ble_gap.h ****                                                cy_en_ble_conn_state_t state)
 894:Generated_Source\PSoC6\pdl\middleware\ble/cy_ble_gap.h **** {
 895:Generated_Source\PSoC6\pdl\middleware\ble/cy_ble_gap.h ****     if(connHandle.attId < CY_BLE_CONN_COUNT)
 896:Generated_Source\PSoC6\pdl\middleware\ble/cy_ble_gap.h ****     {
 897:Generated_Source\PSoC6\pdl\middleware\ble/cy_ble_gap.h ****         cy_ble_connState[connHandle.attId] = state;
 898:Generated_Source\PSoC6\pdl\middleware\ble/cy_ble_gap.h ****     }
 899:Generated_Source\PSoC6\pdl\middleware\ble/cy_ble_gap.h ****     else
 900:Generated_Source\PSoC6\pdl\middleware\ble/cy_ble_gap.h ****     {
 901:Generated_Source\PSoC6\pdl\middleware\ble/cy_ble_gap.h ****         /* Halt in debug mode*/
 902:Generated_Source\PSoC6\pdl\middleware\ble/cy_ble_gap.h ****         CY_ASSERT(connHandle.attId >= CY_BLE_CONN_COUNT);
 903:Generated_Source\PSoC6\pdl\middleware\ble/cy_ble_gap.h ****     }
 904:Generated_Source\PSoC6\pdl\middleware\ble/cy_ble_gap.h **** }
 905:Generated_Source\PSoC6\pdl\middleware\ble/cy_ble_gap.h **** /** \endcond */
 906:Generated_Source\PSoC6\pdl\middleware\ble/cy_ble_gap.h **** 
 907:Generated_Source\PSoC6\pdl\middleware\ble/cy_ble_gap.h **** /******************************************************************************
 908:Generated_Source\PSoC6\pdl\middleware\ble/cy_ble_gap.h **** * Function Name: Cy_BLE_GetNumOfActiveConn
 909:Generated_Source\PSoC6\pdl\middleware\ble/cy_ble_gap.h **** ***************************************************************************//**
 910:Generated_Source\PSoC6\pdl\middleware\ble/cy_ble_gap.h **** *
 911:Generated_Source\PSoC6\pdl\middleware\ble/cy_ble_gap.h **** *  Used to get active number of connections.
 912:Generated_Source\PSoC6\pdl\middleware\ble/cy_ble_gap.h **** *
 913:Generated_Source\PSoC6\pdl\middleware\ble/cy_ble_gap.h **** *  \return
 914:Generated_Source\PSoC6\pdl\middleware\ble/cy_ble_gap.h **** *  connNum - number of active connections
 915:Generated_Source\PSoC6\pdl\middleware\ble/cy_ble_gap.h **** *
 916:Generated_Source\PSoC6\pdl\middleware\ble/cy_ble_gap.h **** ******************************************************************************/
 917:Generated_Source\PSoC6\pdl\middleware\ble/cy_ble_gap.h **** __STATIC_INLINE uint8_t Cy_BLE_GetNumOfActiveConn(void)
 918:Generated_Source\PSoC6\pdl\middleware\ble/cy_ble_gap.h **** {
 919:Generated_Source\PSoC6\pdl\middleware\ble/cy_ble_gap.h ****     uint32_t i;
 920:Generated_Source\PSoC6\pdl\middleware\ble/cy_ble_gap.h ****     uint8_t connNum = 0u;
 921:Generated_Source\PSoC6\pdl\middleware\ble/cy_ble_gap.h **** 
 922:Generated_Source\PSoC6\pdl\middleware\ble/cy_ble_gap.h ****     for(i = 0u; i < CY_BLE_CONN_COUNT; i++)
 923:Generated_Source\PSoC6\pdl\middleware\ble/cy_ble_gap.h ****     {
 924:Generated_Source\PSoC6\pdl\middleware\ble/cy_ble_gap.h ****         if(cy_ble_connState[i] >= CY_BLE_CONN_STATE_CONNECTED)
 925:Generated_Source\PSoC6\pdl\middleware\ble/cy_ble_gap.h ****         {
 926:Generated_Source\PSoC6\pdl\middleware\ble/cy_ble_gap.h ****             connNum++;
 927:Generated_Source\PSoC6\pdl\middleware\ble/cy_ble_gap.h ****         }
 928:Generated_Source\PSoC6\pdl\middleware\ble/cy_ble_gap.h ****     }
 929:Generated_Source\PSoC6\pdl\middleware\ble/cy_ble_gap.h **** 
 930:Generated_Source\PSoC6\pdl\middleware\ble/cy_ble_gap.h ****     return(connNum);
 931:Generated_Source\PSoC6\pdl\middleware\ble/cy_ble_gap.h **** }
 932:Generated_Source\PSoC6\pdl\middleware\ble/cy_ble_gap.h **** 
ARM GAS  C:\Users\D4DE~1\AppData\Local\Temp\cccuUyWy.s 			page 39


 933:Generated_Source\PSoC6\pdl\middleware\ble/cy_ble_gap.h **** 
 934:Generated_Source\PSoC6\pdl\middleware\ble/cy_ble_gap.h **** /******************************************************************************
 935:Generated_Source\PSoC6\pdl\middleware\ble/cy_ble_gap.h **** * Function Name: Cy_BLE_GetConnHandleByBdHandle
 936:Generated_Source\PSoC6\pdl\middleware\ble/cy_ble_gap.h **** ***************************************************************************//**
 937:Generated_Source\PSoC6\pdl\middleware\ble/cy_ble_gap.h **** *
 938:Generated_Source\PSoC6\pdl\middleware\ble/cy_ble_gap.h **** *  Used to get connection handle by bdHandle
 939:Generated_Source\PSoC6\pdl\middleware\ble/cy_ble_gap.h **** *  This function halts in debug mode if bdHandle does not exist in the connected device
 940:Generated_Source\PSoC6\pdl\middleware\ble/cy_ble_gap.h **** *  list
 941:Generated_Source\PSoC6\pdl\middleware\ble/cy_ble_gap.h **** *
 942:Generated_Source\PSoC6\pdl\middleware\ble/cy_ble_gap.h **** *  \param bdHandle: Peer device handle
 943:Generated_Source\PSoC6\pdl\middleware\ble/cy_ble_gap.h **** *
 944:Generated_Source\PSoC6\pdl\middleware\ble/cy_ble_gap.h **** *  \return
 945:Generated_Source\PSoC6\pdl\middleware\ble/cy_ble_gap.h **** *  * connHandle: Full connection handle.
 946:Generated_Source\PSoC6\pdl\middleware\ble/cy_ble_gap.h **** *  * connHandle.attId = CY_BLE_INVALID_CONN_HANDLE_VALUE: invalid bdHandle
 947:Generated_Source\PSoC6\pdl\middleware\ble/cy_ble_gap.h **** *
 948:Generated_Source\PSoC6\pdl\middleware\ble/cy_ble_gap.h **** ******************************************************************************/
 949:Generated_Source\PSoC6\pdl\middleware\ble/cy_ble_gap.h **** __STATIC_INLINE cy_stc_ble_conn_handle_t Cy_BLE_GetConnHandleByBdHandle(uint8_t bdHandle)
 950:Generated_Source\PSoC6\pdl\middleware\ble/cy_ble_gap.h **** {
 951:Generated_Source\PSoC6\pdl\middleware\ble/cy_ble_gap.h ****     uint32_t i;
 952:Generated_Source\PSoC6\pdl\middleware\ble/cy_ble_gap.h ****     cy_stc_ble_conn_handle_t cHandle =
 749              		.loc 2 952 0
 750 023c 0222     		movs	r2, #2
 751 023e 5849     		ldr	r1, .L108+116
 752 0240 0831     		adds	r1, r1, #8
 753 0242 05A8     		add	r0, sp, #20
 754              	.LVL73:
 755 0244 FFF7FEFF 		bl	memcpy
 756              	.LVL74:
 953:Generated_Source\PSoC6\pdl\middleware\ble/cy_ble_gap.h ****     {
 954:Generated_Source\PSoC6\pdl\middleware\ble/cy_ble_gap.h ****         .attId    = CY_BLE_INVALID_CONN_HANDLE_VALUE,
 955:Generated_Source\PSoC6\pdl\middleware\ble/cy_ble_gap.h ****         .bdHandle = CY_BLE_INVALID_CONN_HANDLE_VALUE
 956:Generated_Source\PSoC6\pdl\middleware\ble/cy_ble_gap.h ****     };
 957:Generated_Source\PSoC6\pdl\middleware\ble/cy_ble_gap.h **** 
 958:Generated_Source\PSoC6\pdl\middleware\ble/cy_ble_gap.h ****     for(i = 0u; i < CY_BLE_CONN_COUNT; i++)
 757              		.loc 2 958 0
 758 0248 0026     		movs	r6, #0
 759 024a 1DE0     		b	.L65
 760              	.LVL75:
 761              	.L69:
 762 024c 02AF     		add	r7, sp, #8
 763 024e 7300     		lsls	r3, r6, #1
 764 0250 5849     		ldr	r1, .L108+136
 765 0252 C918     		adds	r1, r1, r3
 766 0254 0222     		movs	r2, #2
 767 0256 3800     		movs	r0, r7
 768 0258 FFF7FEFF 		bl	memcpy
 769              	.LVL76:
 770              	.LBB98:
 771              	.LBB99:
 878:Generated_Source\PSoC6\pdl\middleware\ble/cy_ble_gap.h **** }
 772              		.loc 2 878 0
 773 025c 7B78     		ldrb	r3, [r7, #1]
 774 025e 012B     		cmp	r3, #1
 775 0260 02D8     		bhi	.L104
 776 0262 554A     		ldr	r2, .L108+140
 777 0264 D35C     		ldrb	r3, [r2, r3]
 778 0266 00E0     		b	.L66
ARM GAS  C:\Users\D4DE~1\AppData\Local\Temp\cccuUyWy.s 			page 40


 779              	.L104:
 780 0268 0023     		movs	r3, #0
 781              	.L66:
 782              	.LBE99:
 783              	.LBE98:
 959:Generated_Source\PSoC6\pdl\middleware\ble/cy_ble_gap.h ****     {
 960:Generated_Source\PSoC6\pdl\middleware\ble/cy_ble_gap.h ****         if((Cy_BLE_GetConnectionState(cy_ble_connHandle[i]) >= CY_BLE_CONN_STATE_CONNECTED) &&
 784              		.loc 2 960 0
 785 026a 012B     		cmp	r3, #1
 786 026c 0BD9     		bls	.L67
 961:Generated_Source\PSoC6\pdl\middleware\ble/cy_ble_gap.h ****                 (cy_ble_connHandle[i].bdHandle == bdHandle))
 787              		.loc 2 961 0
 788 026e 7300     		lsls	r3, r6, #1
 789 0270 504A     		ldr	r2, .L108+136
 790 0272 9B5C     		ldrb	r3, [r3, r2]
 960:Generated_Source\PSoC6\pdl\middleware\ble/cy_ble_gap.h ****                 (cy_ble_connHandle[i].bdHandle == bdHandle))
 791              		.loc 2 960 0
 792 0274 9845     		cmp	r8, r3
 793 0276 06D1     		bne	.L67
 962:Generated_Source\PSoC6\pdl\middleware\ble/cy_ble_gap.h ****         {
 963:Generated_Source\PSoC6\pdl\middleware\ble/cy_ble_gap.h ****             cHandle = cy_ble_connHandle[i];
 794              		.loc 2 963 0
 795 0278 7600     		lsls	r6, r6, #1
 796              	.LVL77:
 797 027a 9119     		adds	r1, r2, r6
 798 027c 0222     		movs	r2, #2
 799 027e 05A8     		add	r0, sp, #20
 800 0280 FFF7FEFF 		bl	memcpy
 801              	.LVL78:
 802 0284 02E0     		b	.L68
 803              	.LVL79:
 804              	.L67:
 958:Generated_Source\PSoC6\pdl\middleware\ble/cy_ble_gap.h ****     {
 805              		.loc 2 958 0
 806 0286 0136     		adds	r6, r6, #1
 807              	.LVL80:
 808              	.L65:
 809 0288 012E     		cmp	r6, #1
 810 028a DFD9     		bls	.L69
 811              	.LVL81:
 812              	.L68:
 964:Generated_Source\PSoC6\pdl\middleware\ble/cy_ble_gap.h ****             break;
 965:Generated_Source\PSoC6\pdl\middleware\ble/cy_ble_gap.h ****         }
 966:Generated_Source\PSoC6\pdl\middleware\ble/cy_ble_gap.h ****     }
 967:Generated_Source\PSoC6\pdl\middleware\ble/cy_ble_gap.h ****     if(cHandle.attId == CY_BLE_INVALID_CONN_HANDLE_VALUE)
 813              		.loc 2 967 0
 814 028c 05AB     		add	r3, sp, #20
 815 028e 5B78     		ldrb	r3, [r3, #1]
 816 0290 FF2B     		cmp	r3, #255
 817 0292 04D1     		bne	.L70
 968:Generated_Source\PSoC6\pdl\middleware\ble/cy_ble_gap.h ****     {
 969:Generated_Source\PSoC6\pdl\middleware\ble/cy_ble_gap.h ****         /* HALT in debug mode */
 970:Generated_Source\PSoC6\pdl\middleware\ble/cy_ble_gap.h ****         CY_ASSERT(cHandle.attId != CY_BLE_INVALID_CONN_HANDLE_VALUE);
 818              		.loc 2 970 0
 819 0294 03D1     		bne	.L70
 820 0296 4949     		ldr	r1, .L108+144
 821 0298 4948     		ldr	r0, .L108+148
ARM GAS  C:\Users\D4DE~1\AppData\Local\Temp\cccuUyWy.s 			page 41


 822 029a FFF7FEFF 		bl	Cy_SysLib_AssertFailed
 823              	.LVL82:
 824              	.L70:
 971:Generated_Source\PSoC6\pdl\middleware\ble/cy_ble_gap.h ****     }
 972:Generated_Source\PSoC6\pdl\middleware\ble/cy_ble_gap.h **** 
 973:Generated_Source\PSoC6\pdl\middleware\ble/cy_ble_gap.h ****     return cHandle;
 825              		.loc 2 973 0
 826 029e 05AB     		add	r3, sp, #20
 827 02a0 1B88     		ldrh	r3, [r3]
 828 02a2 08AA     		add	r2, sp, #32
 829 02a4 1380     		strh	r3, [r2]
 830 02a6 07AA     		add	r2, sp, #28
 831 02a8 1380     		strh	r3, [r2]
 832              	.LVL83:
 833              	.LBE97:
 834              	.LBE96:
 835              		.loc 1 452 0
 836 02aa 1B0A     		lsrs	r3, r3, #8
 453:Generated_Source\PSoC6\pdl\middleware\ble/cy_ble_event_handler.c ****                 ((cy_stc_ble_l2cap_state_info_t*)evParam)->flowState;
 837              		.loc 1 453 0
 838 02ac 2978     		ldrb	r1, [r5]
 452:Generated_Source\PSoC6\pdl\middleware\ble/cy_ble_event_handler.c ****                 ((cy_stc_ble_l2cap_state_info_t*)evParam)->flowState;
 839              		.loc 1 452 0
 840 02ae 454A     		ldr	r2, .L108+152
 841 02b0 D154     		strb	r1, [r2, r3]
 454:Generated_Source\PSoC6\pdl\middleware\ble/cy_ble_event_handler.c ****         #endif /*(CY_BLE_GAP_ROLE_PERIPHERAL || CY_BLE_GAP_ROLE_CENTRAL)*/
 455:Generated_Source\PSoC6\pdl\middleware\ble/cy_ble_event_handler.c ****             break;
 842              		.loc 1 455 0
 843 02b2 62E2     		b	.L31
 844              	.LVL84:
 845              	.L40:
 846              	.LBB100:
 456:Generated_Source\PSoC6\pdl\middleware\ble/cy_ble_event_handler.c **** 
 457:Generated_Source\PSoC6\pdl\middleware\ble/cy_ble_event_handler.c ****         case CY_BLE_EVT_MEMORY_REQUEST:
 458:Generated_Source\PSoC6\pdl\middleware\ble/cy_ble_event_handler.c ****         #if (CY_BLE_MODE_PROFILE)
 459:Generated_Source\PSoC6\pdl\middleware\ble/cy_ble_event_handler.c ****             {
 460:Generated_Source\PSoC6\pdl\middleware\ble/cy_ble_event_handler.c ****                 cy_stc_ble_memory_request_t *memReq = (cy_stc_ble_memory_request_t*)evParam;
 461:Generated_Source\PSoC6\pdl\middleware\ble/cy_ble_event_handler.c ****                 if(memReq->request == CY_BLE_PREPARED_WRITE_REQUEST)
 847              		.loc 1 461 0
 848 02b4 2B78     		ldrb	r3, [r5]
 849 02b6 002B     		cmp	r3, #0
 850 02b8 00D0     		beq	.LCB822
 851 02ba 5EE2     		b	.L31	@long jump
 852              	.LCB822:
 462:Generated_Source\PSoC6\pdl\middleware\ble/cy_ble_event_handler.c ****                 {
 463:Generated_Source\PSoC6\pdl\middleware\ble/cy_ble_event_handler.c ****             #if (CY_BLE_GATT_ENABLE_EXTERNAL_PREP_WRITE_BUFF == 0u)
 464:Generated_Source\PSoC6\pdl\middleware\ble/cy_ble_event_handler.c ****                     /* Stack requests to provide memory to process a remote request */
 465:Generated_Source\PSoC6\pdl\middleware\ble/cy_ble_event_handler.c ****                     if(memReq->allocFree == CY_BLE_ALLOC_MEMORY)
 853              		.loc 1 465 0
 854 02bc 2B7A     		ldrb	r3, [r5, #8]
 855 02be 002B     		cmp	r3, #0
 856 02c0 06D1     		bne	.L71
 857              	.LBB101:
 466:Generated_Source\PSoC6\pdl\middleware\ble/cy_ble_event_handler.c ****                     {
 467:Generated_Source\PSoC6\pdl\middleware\ble/cy_ble_event_handler.c ****                         static cy_stc_ble_prepare_write_request_memory_t gPrepWriteReqMem;
 468:Generated_Source\PSoC6\pdl\middleware\ble/cy_ble_event_handler.c **** 
 469:Generated_Source\PSoC6\pdl\middleware\ble/cy_ble_event_handler.c ****                         /* Configure and return a statically allocated buffer at the end of the cy_
ARM GAS  C:\Users\D4DE~1\AppData\Local\Temp\cccuUyWy.s 			page 42


 470:Generated_Source\PSoC6\pdl\middleware\ble/cy_ble_event_handler.c ****                         gPrepWriteReqMem.prepareWriteQueueSize = CY_BLE_GATT_MAX_PREPARE_BUFF_COUNT
 858              		.loc 1 470 0
 859 02c2 414B     		ldr	r3, .L108+156
 860 02c4 0022     		movs	r2, #0
 861 02c6 DA80     		strh	r2, [r3, #6]
 471:Generated_Source\PSoC6\pdl\middleware\ble/cy_ble_event_handler.c ****                         gPrepWriteReqMem.totalAttrValueLength = CY_BLE_GATT_PREPARE_LENGTH_ALIGN;
 862              		.loc 1 471 0
 863 02c8 9A80     		strh	r2, [r3, #4]
 472:Generated_Source\PSoC6\pdl\middleware\ble/cy_ble_event_handler.c ****                         gPrepWriteReqMem.queueBuffer = &cy_ble_stackMemoryRam[(CY_BLE_STACK_RAM_SIZ
 864              		.loc 1 472 0
 865 02ca 404A     		ldr	r2, .L108+160
 866 02cc 1A60     		str	r2, [r3]
 473:Generated_Source\PSoC6\pdl\middleware\ble/cy_ble_event_handler.c ****                                                                               CY_BLE_GATT_PREPARE_W
 474:Generated_Source\PSoC6\pdl\middleware\ble/cy_ble_event_handler.c ****                         memReq->configMemory = &gPrepWriteReqMem;
 867              		.loc 1 474 0
 868 02ce 6B60     		str	r3, [r5, #4]
 869              	.L71:
 870              	.LBE101:
 475:Generated_Source\PSoC6\pdl\middleware\ble/cy_ble_event_handler.c ****                     }
 476:Generated_Source\PSoC6\pdl\middleware\ble/cy_ble_event_handler.c ****                     /* Clear the CY_BLE_CALLBACK flag not to provide a handled event to the applica
 477:Generated_Source\PSoC6\pdl\middleware\ble/cy_ble_event_handler.c ****                     cy_ble_eventHandlerFlag &= (uint8_t) ~CY_BLE_CALLBACK;
 871              		.loc 1 477 0
 872 02d0 164A     		ldr	r2, .L108
 873 02d2 1378     		ldrb	r3, [r2]
 874 02d4 0121     		movs	r1, #1
 875 02d6 8B43     		bics	r3, r1
 876 02d8 1370     		strb	r3, [r2]
 877 02da 4EE2     		b	.L31
 878              	.LVL85:
 879              	.L47:
 880              	.LBE100:
 881              	.LBB102:
 478:Generated_Source\PSoC6\pdl\middleware\ble/cy_ble_event_handler.c ****             #endif  /* CY_BLE_GATT_ENABLE_EXTERNAL_PREP_WRITE_BUFF == 0u */
 479:Generated_Source\PSoC6\pdl\middleware\ble/cy_ble_event_handler.c ****                 }
 480:Generated_Source\PSoC6\pdl\middleware\ble/cy_ble_event_handler.c ****             }
 481:Generated_Source\PSoC6\pdl\middleware\ble/cy_ble_event_handler.c ****         #endif /* CY_BLE_MODE_PROFILE */
 482:Generated_Source\PSoC6\pdl\middleware\ble/cy_ble_event_handler.c ****             break;
 483:Generated_Source\PSoC6\pdl\middleware\ble/cy_ble_event_handler.c **** 
 484:Generated_Source\PSoC6\pdl\middleware\ble/cy_ble_event_handler.c ****         /**********************************************************
 485:Generated_Source\PSoC6\pdl\middleware\ble/cy_ble_event_handler.c ****          * GAP events
 486:Generated_Source\PSoC6\pdl\middleware\ble/cy_ble_event_handler.c ****          ************************************************************/
 487:Generated_Source\PSoC6\pdl\middleware\ble/cy_ble_event_handler.c ****         case CY_BLE_EVT_GAP_AUTH_REQ:
 488:Generated_Source\PSoC6\pdl\middleware\ble/cy_ble_event_handler.c ****             break;
 489:Generated_Source\PSoC6\pdl\middleware\ble/cy_ble_event_handler.c **** 
 490:Generated_Source\PSoC6\pdl\middleware\ble/cy_ble_event_handler.c ****         case CY_BLE_EVT_GAP_AUTH_COMPLETE:
 491:Generated_Source\PSoC6\pdl\middleware\ble/cy_ble_event_handler.c ****         #if ((CY_BLE_GAP_ROLE_PERIPHERAL || CY_BLE_GAP_ROLE_CENTRAL) && (CY_BLE_BONDING_REQUIREMENT
 492:Generated_Source\PSoC6\pdl\middleware\ble/cy_ble_event_handler.c ****             {
 493:Generated_Source\PSoC6\pdl\middleware\ble/cy_ble_event_handler.c ****                 cy_stc_ble_conn_handle_t connectedHandle;
 494:Generated_Source\PSoC6\pdl\middleware\ble/cy_ble_event_handler.c ****                 connectedHandle = Cy_BLE_GetConnHandleByBdHandle(((cy_stc_ble_gap_auth_info_t*)evPa
 882              		.loc 1 494 0
 883 02dc 6B79     		ldrb	r3, [r5, #5]
 884 02de 9846     		mov	r8, r3
 885              	.LVL86:
 886              	.LBB103:
 887              	.LBB104:
 952:Generated_Source\PSoC6\pdl\middleware\ble/cy_ble_gap.h ****     {
 888              		.loc 2 952 0
ARM GAS  C:\Users\D4DE~1\AppData\Local\Temp\cccuUyWy.s 			page 43


 889 02e0 0222     		movs	r2, #2
 890 02e2 2F49     		ldr	r1, .L108+116
 891 02e4 0831     		adds	r1, r1, #8
 892 02e6 05A8     		add	r0, sp, #20
 893              	.LVL87:
 894 02e8 FFF7FEFF 		bl	memcpy
 895              	.LVL88:
 958:Generated_Source\PSoC6\pdl\middleware\ble/cy_ble_gap.h ****     {
 896              		.loc 2 958 0
 897 02ec 0026     		movs	r6, #0
 898 02ee 70E0     		b	.L72
 899              	.LVL89:
 900              	.L76:
 901 02f0 03AF     		add	r7, sp, #12
 902 02f2 7300     		lsls	r3, r6, #1
 903 02f4 2F49     		ldr	r1, .L108+136
 904 02f6 C918     		adds	r1, r1, r3
 905 02f8 0222     		movs	r2, #2
 906 02fa 3800     		movs	r0, r7
 907 02fc FFF7FEFF 		bl	memcpy
 908              	.LVL90:
 909              	.LBB105:
 910              	.LBB106:
 878:Generated_Source\PSoC6\pdl\middleware\ble/cy_ble_gap.h **** }
 911              		.loc 2 878 0
 912 0300 7B78     		ldrb	r3, [r7, #1]
 913 0302 012B     		cmp	r3, #1
 914 0304 02D8     		bhi	.L105
 915 0306 2C4A     		ldr	r2, .L108+140
 916 0308 D35C     		ldrb	r3, [r2, r3]
 917 030a 00E0     		b	.L73
 918              	.L105:
 919 030c 0023     		movs	r3, #0
 920              	.L73:
 921              	.LBE106:
 922              	.LBE105:
 960:Generated_Source\PSoC6\pdl\middleware\ble/cy_ble_gap.h ****                 (cy_ble_connHandle[i].bdHandle == bdHandle))
 923              		.loc 2 960 0
 924 030e 012B     		cmp	r3, #1
 925 0310 5ED9     		bls	.L74
 961:Generated_Source\PSoC6\pdl\middleware\ble/cy_ble_gap.h ****         {
 926              		.loc 2 961 0
 927 0312 7300     		lsls	r3, r6, #1
 928 0314 274A     		ldr	r2, .L108+136
 929 0316 9B5C     		ldrb	r3, [r3, r2]
 960:Generated_Source\PSoC6\pdl\middleware\ble/cy_ble_gap.h ****                 (cy_ble_connHandle[i].bdHandle == bdHandle))
 930              		.loc 2 960 0
 931 0318 9845     		cmp	r8, r3
 932 031a 59D1     		bne	.L74
 963:Generated_Source\PSoC6\pdl\middleware\ble/cy_ble_gap.h ****             break;
 933              		.loc 2 963 0
 934 031c 7600     		lsls	r6, r6, #1
 935              	.LVL91:
 936 031e 9119     		adds	r1, r2, r6
 937 0320 0222     		movs	r2, #2
 938 0322 05A8     		add	r0, sp, #20
 939 0324 FFF7FEFF 		bl	memcpy
ARM GAS  C:\Users\D4DE~1\AppData\Local\Temp\cccuUyWy.s 			page 44


 940              	.LVL92:
 941 0328 55E0     		b	.L75
 942              	.L109:
 943 032a C046     		.align	2
 944              	.L108:
 945 032c 00000000 		.word	cy_ble_eventHandlerFlag
 946 0330 08400000 		.word	16392
 947 0334 04200000 		.word	8196
 948 0338 02100000 		.word	4098
 949 033c 01100000 		.word	4097
 950 0340 03100000 		.word	4099
 951 0344 04100000 		.word	4100
 952 0348 19300000 		.word	12313
 953 034c 01300000 		.word	12289
 954 0350 12300000 		.word	12306
 955 0354 06400000 		.word	16390
 956 0358 04400000 		.word	16388
 957 035c 0C500000 		.word	20492
 958 0360 01500000 		.word	20481
 959 0364 0A400000 		.word	16394
 960 0368 10400000 		.word	16400
 961 036c 02500000 		.word	20482
 962 0370 03500000 		.word	20483
 963 0374 10500000 		.word	20496
 964 0378 0E500000 		.word	20494
 965 037c 0F500000 		.word	20495
 966 0380 17500000 		.word	20503
 967 0384 01600000 		.word	24577
 968 0388 14500000 		.word	20500
 969 038c 00000000 		.word	cy_ble_sflashDeviceAddress
 970 0390 00000000 		.word	cy_ble_configPtr
 971 0394 04060000 		.word	1540
 972 0398 05060000 		.word	1541
 973 039c 03060000 		.word	1539
 974 03a0 00000000 		.word	.LANCHOR0
 975 03a4 00000000 		.word	cy_ble_state
 976 03a8 00000000 		.word	cy_ble_advState
 977 03ac 00000000 		.word	cy_ble_pairStatus
 978 03b0 00000000 		.word	cy_ble_cmdStatus
 979 03b4 00000000 		.word	cy_ble_connHandle
 980 03b8 00000000 		.word	cy_ble_connState
 981 03bc CA030000 		.word	970
 982 03c0 00000000 		.word	.LC16
 983 03c4 00000000 		.word	cy_ble_busyStatus
 984 03c8 00000000 		.word	.LANCHOR1
 985 03cc FC310000 		.word	cy_ble_stackMemoryRam+12796
 986              	.LVL93:
 987              	.L74:
 958:Generated_Source\PSoC6\pdl\middleware\ble/cy_ble_gap.h ****     {
 988              		.loc 2 958 0
 989 03d0 0136     		adds	r6, r6, #1
 990              	.LVL94:
 991              	.L72:
 992 03d2 012E     		cmp	r6, #1
 993 03d4 8CD9     		bls	.L76
 994              	.LVL95:
 995              	.L75:
ARM GAS  C:\Users\D4DE~1\AppData\Local\Temp\cccuUyWy.s 			page 45


 967:Generated_Source\PSoC6\pdl\middleware\ble/cy_ble_gap.h ****     {
 996              		.loc 2 967 0
 997 03d6 05AB     		add	r3, sp, #20
 998 03d8 5B78     		ldrb	r3, [r3, #1]
 999 03da FF2B     		cmp	r3, #255
 1000 03dc 04D1     		bne	.L77
 970:Generated_Source\PSoC6\pdl\middleware\ble/cy_ble_gap.h ****     }
 1001              		.loc 2 970 0
 1002 03de 03D1     		bne	.L77
 1003 03e0 CB49     		ldr	r1, .L110
 1004 03e2 CC48     		ldr	r0, .L110+4
 1005 03e4 FFF7FEFF 		bl	Cy_SysLib_AssertFailed
 1006              	.LVL96:
 1007              	.L77:
 1008              		.loc 2 973 0
 1009 03e8 05AA     		add	r2, sp, #20
 1010 03ea 1388     		ldrh	r3, [r2]
 1011 03ec 09A9     		add	r1, sp, #36
 1012 03ee 0B80     		strh	r3, [r1]
 1013 03f0 1380     		strh	r3, [r2]
 1014              	.LVL97:
 1015              	.LBE104:
 1016              	.LBE103:
 495:Generated_Source\PSoC6\pdl\middleware\ble/cy_ble_event_handler.c ****                 cy_ble_peerBonding[connectedHandle.attId] = ((cy_stc_ble_gap_auth_info_t*)evParam)-
 1017              		.loc 1 495 0
 1018 03f2 1B0A     		lsrs	r3, r3, #8
 1019 03f4 6978     		ldrb	r1, [r5, #1]
 1020 03f6 C84A     		ldr	r2, .L110+8
 1021 03f8 D154     		strb	r1, [r2, r3]
 1022              	.LBE102:
 496:Generated_Source\PSoC6\pdl\middleware\ble/cy_ble_event_handler.c ****             }
 497:Generated_Source\PSoC6\pdl\middleware\ble/cy_ble_event_handler.c ****         #endif  /* CY_BLE_BONDING_REQUIREMENT == CY_BLE_BONDING_YES */
 498:Generated_Source\PSoC6\pdl\middleware\ble/cy_ble_event_handler.c ****         
 499:Generated_Source\PSoC6\pdl\middleware\ble/cy_ble_event_handler.c ****         #if ((CY_BLE_GAP_ROLE_PERIPHERAL || CY_BLE_GAP_ROLE_CENTRAL))
 500:Generated_Source\PSoC6\pdl\middleware\ble/cy_ble_event_handler.c ****             if(((cy_stc_ble_gap_auth_info_t *)evParam)->authErr == CY_BLE_GAP_AUTH_ERROR_NONE)
 1023              		.loc 1 500 0
 1024 03fa EB78     		ldrb	r3, [r5, #3]
 1025 03fc 002B     		cmp	r3, #0
 1026 03fe 00D0     		beq	.LCB1007
 1027 0400 BBE1     		b	.L31	@long jump
 1028              	.LCB1007:
 1029              	.LBB107:
 501:Generated_Source\PSoC6\pdl\middleware\ble/cy_ble_event_handler.c ****             {
 502:Generated_Source\PSoC6\pdl\middleware\ble/cy_ble_event_handler.c ****                 cy_stc_ble_conn_handle_t connectedHandle;
 503:Generated_Source\PSoC6\pdl\middleware\ble/cy_ble_event_handler.c ****                 connectedHandle = Cy_BLE_GetConnHandleByBdHandle(((cy_stc_ble_gap_auth_info_t *)evP
 1030              		.loc 1 503 0
 1031 0402 6B79     		ldrb	r3, [r5, #5]
 1032 0404 9846     		mov	r8, r3
 1033              	.LVL98:
 1034              	.LBB108:
 1035              	.LBB109:
 952:Generated_Source\PSoC6\pdl\middleware\ble/cy_ble_gap.h ****     {
 1036              		.loc 2 952 0
 1037 0406 0222     		movs	r2, #2
 1038 0408 C449     		ldr	r1, .L110+12
 1039 040a 0831     		adds	r1, r1, #8
 1040 040c 05A8     		add	r0, sp, #20
ARM GAS  C:\Users\D4DE~1\AppData\Local\Temp\cccuUyWy.s 			page 46


 1041 040e FFF7FEFF 		bl	memcpy
 1042              	.LVL99:
 958:Generated_Source\PSoC6\pdl\middleware\ble/cy_ble_gap.h ****     {
 1043              		.loc 2 958 0
 1044 0412 0026     		movs	r6, #0
 1045 0414 1DE0     		b	.L78
 1046              	.LVL100:
 1047              	.L82:
 1048 0416 04AF     		add	r7, sp, #16
 1049 0418 7300     		lsls	r3, r6, #1
 1050 041a C149     		ldr	r1, .L110+16
 1051 041c C918     		adds	r1, r1, r3
 1052 041e 0222     		movs	r2, #2
 1053 0420 3800     		movs	r0, r7
 1054 0422 FFF7FEFF 		bl	memcpy
 1055              	.LVL101:
 1056              	.LBB110:
 1057              	.LBB111:
 878:Generated_Source\PSoC6\pdl\middleware\ble/cy_ble_gap.h **** }
 1058              		.loc 2 878 0
 1059 0426 7B78     		ldrb	r3, [r7, #1]
 1060 0428 012B     		cmp	r3, #1
 1061 042a 02D8     		bhi	.L106
 1062 042c BD4A     		ldr	r2, .L110+20
 1063 042e D35C     		ldrb	r3, [r2, r3]
 1064 0430 00E0     		b	.L79
 1065              	.L106:
 1066 0432 0023     		movs	r3, #0
 1067              	.L79:
 1068              	.LBE111:
 1069              	.LBE110:
 960:Generated_Source\PSoC6\pdl\middleware\ble/cy_ble_gap.h ****                 (cy_ble_connHandle[i].bdHandle == bdHandle))
 1070              		.loc 2 960 0
 1071 0434 012B     		cmp	r3, #1
 1072 0436 0BD9     		bls	.L80
 961:Generated_Source\PSoC6\pdl\middleware\ble/cy_ble_gap.h ****         {
 1073              		.loc 2 961 0
 1074 0438 7300     		lsls	r3, r6, #1
 1075 043a B94A     		ldr	r2, .L110+16
 1076 043c 9B5C     		ldrb	r3, [r3, r2]
 960:Generated_Source\PSoC6\pdl\middleware\ble/cy_ble_gap.h ****                 (cy_ble_connHandle[i].bdHandle == bdHandle))
 1077              		.loc 2 960 0
 1078 043e 9845     		cmp	r8, r3
 1079 0440 06D1     		bne	.L80
 963:Generated_Source\PSoC6\pdl\middleware\ble/cy_ble_gap.h ****             break;
 1080              		.loc 2 963 0
 1081 0442 7600     		lsls	r6, r6, #1
 1082              	.LVL102:
 1083 0444 9119     		adds	r1, r2, r6
 1084 0446 0222     		movs	r2, #2
 1085 0448 05A8     		add	r0, sp, #20
 1086 044a FFF7FEFF 		bl	memcpy
 1087              	.LVL103:
 1088 044e 02E0     		b	.L81
 1089              	.LVL104:
 1090              	.L80:
 958:Generated_Source\PSoC6\pdl\middleware\ble/cy_ble_gap.h ****     {
ARM GAS  C:\Users\D4DE~1\AppData\Local\Temp\cccuUyWy.s 			page 47


 1091              		.loc 2 958 0
 1092 0450 0136     		adds	r6, r6, #1
 1093              	.LVL105:
 1094              	.L78:
 1095 0452 012E     		cmp	r6, #1
 1096 0454 DFD9     		bls	.L82
 1097              	.LVL106:
 1098              	.L81:
 967:Generated_Source\PSoC6\pdl\middleware\ble/cy_ble_gap.h ****     {
 1099              		.loc 2 967 0
 1100 0456 05AB     		add	r3, sp, #20
 1101 0458 5B78     		ldrb	r3, [r3, #1]
 1102 045a FF2B     		cmp	r3, #255
 1103 045c 04D1     		bne	.L83
 970:Generated_Source\PSoC6\pdl\middleware\ble/cy_ble_gap.h ****     }
 1104              		.loc 2 970 0
 1105 045e 03D1     		bne	.L83
 1106 0460 AB49     		ldr	r1, .L110
 1107 0462 AC48     		ldr	r0, .L110+4
 1108 0464 FFF7FEFF 		bl	Cy_SysLib_AssertFailed
 1109              	.LVL107:
 1110              	.L83:
 1111              		.loc 2 973 0
 1112 0468 05AA     		add	r2, sp, #20
 1113 046a 1388     		ldrh	r3, [r2]
 1114 046c 0AA9     		add	r1, sp, #40
 1115 046e 0B80     		strh	r3, [r1]
 1116 0470 1380     		strh	r3, [r2]
 1117              	.LVL108:
 1118              	.LBE109:
 1119              	.LBE108:
 504:Generated_Source\PSoC6\pdl\middleware\ble/cy_ble_event_handler.c ****                 cy_ble_pairStatus[connectedHandle.attId] = true;
 1120              		.loc 1 504 0
 1121 0472 1B0A     		lsrs	r3, r3, #8
 1122 0474 0121     		movs	r1, #1
 1123 0476 AC4A     		ldr	r2, .L110+24
 1124 0478 D154     		strb	r1, [r2, r3]
 1125 047a 7EE1     		b	.L31
 1126              	.LVL109:
 1127              	.L52:
 1128              	.LBE107:
 505:Generated_Source\PSoC6\pdl\middleware\ble/cy_ble_event_handler.c ****             }
 506:Generated_Source\PSoC6\pdl\middleware\ble/cy_ble_event_handler.c ****         #endif /* ((CY_BLE_GAP_ROLE_PERIPHERAL || CY_BLE_GAP_ROLE_CENTRAL)) */ 
 507:Generated_Source\PSoC6\pdl\middleware\ble/cy_ble_event_handler.c ****             break;
 508:Generated_Source\PSoC6\pdl\middleware\ble/cy_ble_event_handler.c **** 
 509:Generated_Source\PSoC6\pdl\middleware\ble/cy_ble_event_handler.c ****         case CY_BLE_EVT_GAP_CONNECTION_UPDATE_COMPLETE:
 510:Generated_Source\PSoC6\pdl\middleware\ble/cy_ble_event_handler.c ****         #if (CY_BLE_GAP_ROLE_PERIPHERAL || CY_BLE_GAP_ROLE_CENTRAL)
 511:Generated_Source\PSoC6\pdl\middleware\ble/cy_ble_event_handler.c ****             (void)Cy_BLE_InvokeServiceEventHandler((uint32_t)event, (void*)evParam);
 1129              		.loc 1 511 0
 1130 047c 2900     		movs	r1, r5
 1131 047e FFF7FEFF 		bl	Cy_BLE_InvokeServiceEventHandler
 1132              	.LVL110:
 512:Generated_Source\PSoC6\pdl\middleware\ble/cy_ble_event_handler.c ****         #endif /*(CY_BLE_GAP_ROLE_PERIPHERAL || CY_BLE_GAP_ROLE_CENTRAL) */
 513:Generated_Source\PSoC6\pdl\middleware\ble/cy_ble_event_handler.c ****             break;
 1133              		.loc 1 513 0
 1134 0482 7AE1     		b	.L31
 1135              	.LVL111:
ARM GAS  C:\Users\D4DE~1\AppData\Local\Temp\cccuUyWy.s 			page 48


 1136              	.L46:
 1137              	.LBB112:
 514:Generated_Source\PSoC6\pdl\middleware\ble/cy_ble_event_handler.c ****     
 515:Generated_Source\PSoC6\pdl\middleware\ble/cy_ble_event_handler.c ****         case CY_BLE_EVT_GAP_ENHANCE_CONN_COMPLETE:
 516:Generated_Source\PSoC6\pdl\middleware\ble/cy_ble_event_handler.c ****         case CY_BLE_EVT_GAP_DEVICE_CONNECTED:
 517:Generated_Source\PSoC6\pdl\middleware\ble/cy_ble_event_handler.c ****             {           
 518:Generated_Source\PSoC6\pdl\middleware\ble/cy_ble_event_handler.c ****             #if (CY_BLE_LL_PRIVACY_FEATURE != 0u)
 519:Generated_Source\PSoC6\pdl\middleware\ble/cy_ble_event_handler.c ****                 cy_stc_ble_gap_enhance_conn_complete_param_t *tEvParam = 
 520:Generated_Source\PSoC6\pdl\middleware\ble/cy_ble_event_handler.c ****                     (cy_stc_ble_gap_enhance_conn_complete_param_t *)evParam;
 521:Generated_Source\PSoC6\pdl\middleware\ble/cy_ble_event_handler.c ****             #else
 522:Generated_Source\PSoC6\pdl\middleware\ble/cy_ble_event_handler.c ****                 cy_stc_ble_gap_connected_param_t *tEvParam = (cy_stc_ble_gap_connected_param_t *)ev
 523:Generated_Source\PSoC6\pdl\middleware\ble/cy_ble_event_handler.c ****             #endif /* (CY_BLE_LL_PRIVACY_FEATURE != 0u) */    
 524:Generated_Source\PSoC6\pdl\middleware\ble/cy_ble_event_handler.c ****                 if(tEvParam->status == CY_BLE_HCI_SUCCESS)
 1138              		.loc 1 524 0
 1139 0484 AB7E     		ldrb	r3, [r5, #26]
 1140 0486 002B     		cmp	r3, #0
 1141 0488 43D1     		bne	.L84
 525:Generated_Source\PSoC6\pdl\middleware\ble/cy_ble_event_handler.c ****                 {
 526:Generated_Source\PSoC6\pdl\middleware\ble/cy_ble_event_handler.c ****                     /* Advertising is automatically stopped if a Slave is connected,
 527:Generated_Source\PSoC6\pdl\middleware\ble/cy_ble_event_handler.c ****                        so update the adv state to CY_BLE_ADV_STATE_STOPPED  */
 528:Generated_Source\PSoC6\pdl\middleware\ble/cy_ble_event_handler.c ****                     #if (CY_BLE_GAP_ROLE_PERIPHERAL || CY_BLE_GAP_ROLE_BROADCASTER)
 529:Generated_Source\PSoC6\pdl\middleware\ble/cy_ble_event_handler.c ****                         if(tEvParam->role == CY_BLE_GAP_LL_ROLE_SLAVE)
 1142              		.loc 1 529 0
 1143 048a 2B7E     		ldrb	r3, [r5, #24]
 1144 048c 012B     		cmp	r3, #1
 1145 048e 02D1     		bne	.L85
 1146              	.LVL112:
 1147              	.LBB113:
 1148              	.LBB114:
 763:Generated_Source\PSoC6\pdl\middleware\ble/cy_ble_gap.h **** }
 1149              		.loc 2 763 0
 1150 0490 0022     		movs	r2, #0
 1151 0492 A64B     		ldr	r3, .L110+28
 1152 0494 1A70     		strb	r2, [r3]
 1153              	.LVL113:
 1154              	.L85:
 1155              	.LBE114:
 1156              	.LBE113:
 1157              	.LBB115:
 530:Generated_Source\PSoC6\pdl\middleware\ble/cy_ble_event_handler.c ****                         {
 531:Generated_Source\PSoC6\pdl\middleware\ble/cy_ble_event_handler.c ****                             Cy_BLE_SetAdvertisementState(CY_BLE_ADV_STATE_STOPPED);
 532:Generated_Source\PSoC6\pdl\middleware\ble/cy_ble_event_handler.c ****                         }
 533:Generated_Source\PSoC6\pdl\middleware\ble/cy_ble_event_handler.c ****                     #endif /* (CY_BLE_GAP_ROLE_PERIPHERAL || CY_BLE_GAP_ROLE_BROADCASTER) */
 534:Generated_Source\PSoC6\pdl\middleware\ble/cy_ble_event_handler.c ****                     
 535:Generated_Source\PSoC6\pdl\middleware\ble/cy_ble_event_handler.c ****                     /* Stop Timer in central mode (if timer was started) */
 536:Generated_Source\PSoC6\pdl\middleware\ble/cy_ble_event_handler.c ****                     #if (CY_BLE_GAP_ROLE_CENTRAL)
 537:Generated_Source\PSoC6\pdl\middleware\ble/cy_ble_event_handler.c ****                         if(cy_ble_connectingTimeout.timeout != 0u)
 538:Generated_Source\PSoC6\pdl\middleware\ble/cy_ble_event_handler.c ****                         {
 539:Generated_Source\PSoC6\pdl\middleware\ble/cy_ble_event_handler.c ****                             (void)Cy_BLE_StopTimer(&cy_ble_connectingTimeout);
 540:Generated_Source\PSoC6\pdl\middleware\ble/cy_ble_event_handler.c ****                         }
 541:Generated_Source\PSoC6\pdl\middleware\ble/cy_ble_event_handler.c ****                     #endif /* CY_BLE_GAP_ROLE_CENTRAL */
 542:Generated_Source\PSoC6\pdl\middleware\ble/cy_ble_event_handler.c ****                     
 543:Generated_Source\PSoC6\pdl\middleware\ble/cy_ble_event_handler.c ****                     /* Store information about role of device connected (Master/Slave)*/
 544:Generated_Source\PSoC6\pdl\middleware\ble/cy_ble_event_handler.c ****                     #if ((CY_BLE_GAP_ROLE_PERIPHERAL || CY_BLE_GAP_ROLE_CENTRAL))
 545:Generated_Source\PSoC6\pdl\middleware\ble/cy_ble_event_handler.c ****                     {   
 546:Generated_Source\PSoC6\pdl\middleware\ble/cy_ble_event_handler.c ****                         cy_stc_ble_conn_handle_t tconnHandle = Cy_BLE_GetConnHandleByBdHandle(tEvPa
 1158              		.loc 1 546 0
ARM GAS  C:\Users\D4DE~1\AppData\Local\Temp\cccuUyWy.s 			page 49


 1159 0496 EB7E     		ldrb	r3, [r5, #27]
 1160 0498 9846     		mov	r8, r3
 1161              	.LVL114:
 1162              	.LBB116:
 1163              	.LBB117:
 952:Generated_Source\PSoC6\pdl\middleware\ble/cy_ble_gap.h ****     {
 1164              		.loc 2 952 0
 1165 049a 0222     		movs	r2, #2
 1166 049c 9F49     		ldr	r1, .L110+12
 1167 049e 0831     		adds	r1, r1, #8
 1168 04a0 04A8     		add	r0, sp, #16
 1169              	.LVL115:
 1170 04a2 FFF7FEFF 		bl	memcpy
 1171              	.LVL116:
 958:Generated_Source\PSoC6\pdl\middleware\ble/cy_ble_gap.h ****     {
 1172              		.loc 2 958 0
 1173 04a6 0026     		movs	r6, #0
 1174 04a8 1DE0     		b	.L86
 1175              	.LVL117:
 1176              	.L90:
 1177 04aa 05AF     		add	r7, sp, #20
 1178 04ac 7300     		lsls	r3, r6, #1
 1179 04ae 9C49     		ldr	r1, .L110+16
 1180 04b0 C918     		adds	r1, r1, r3
 1181 04b2 0222     		movs	r2, #2
 1182 04b4 3800     		movs	r0, r7
 1183 04b6 FFF7FEFF 		bl	memcpy
 1184              	.LVL118:
 1185              	.LBB118:
 1186              	.LBB119:
 878:Generated_Source\PSoC6\pdl\middleware\ble/cy_ble_gap.h **** }
 1187              		.loc 2 878 0
 1188 04ba 7B78     		ldrb	r3, [r7, #1]
 1189 04bc 012B     		cmp	r3, #1
 1190 04be 02D8     		bhi	.L107
 1191 04c0 984A     		ldr	r2, .L110+20
 1192 04c2 D35C     		ldrb	r3, [r2, r3]
 1193 04c4 00E0     		b	.L87
 1194              	.L107:
 1195 04c6 0023     		movs	r3, #0
 1196              	.L87:
 1197              	.LBE119:
 1198              	.LBE118:
 960:Generated_Source\PSoC6\pdl\middleware\ble/cy_ble_gap.h ****                 (cy_ble_connHandle[i].bdHandle == bdHandle))
 1199              		.loc 2 960 0
 1200 04c8 012B     		cmp	r3, #1
 1201 04ca 0BD9     		bls	.L88
 961:Generated_Source\PSoC6\pdl\middleware\ble/cy_ble_gap.h ****         {
 1202              		.loc 2 961 0
 1203 04cc 7300     		lsls	r3, r6, #1
 1204 04ce 944A     		ldr	r2, .L110+16
 1205 04d0 9B5C     		ldrb	r3, [r3, r2]
 960:Generated_Source\PSoC6\pdl\middleware\ble/cy_ble_gap.h ****                 (cy_ble_connHandle[i].bdHandle == bdHandle))
 1206              		.loc 2 960 0
 1207 04d2 9845     		cmp	r8, r3
 1208 04d4 06D1     		bne	.L88
 963:Generated_Source\PSoC6\pdl\middleware\ble/cy_ble_gap.h ****             break;
ARM GAS  C:\Users\D4DE~1\AppData\Local\Temp\cccuUyWy.s 			page 50


 1209              		.loc 2 963 0
 1210 04d6 7300     		lsls	r3, r6, #1
 1211 04d8 D118     		adds	r1, r2, r3
 1212 04da 0222     		movs	r2, #2
 1213 04dc 04A8     		add	r0, sp, #16
 1214 04de FFF7FEFF 		bl	memcpy
 1215              	.LVL119:
 1216 04e2 02E0     		b	.L89
 1217              	.L88:
 958:Generated_Source\PSoC6\pdl\middleware\ble/cy_ble_gap.h ****     {
 1218              		.loc 2 958 0
 1219 04e4 0136     		adds	r6, r6, #1
 1220              	.LVL120:
 1221              	.L86:
 1222 04e6 012E     		cmp	r6, #1
 1223 04e8 DFD9     		bls	.L90
 1224              	.L89:
 967:Generated_Source\PSoC6\pdl\middleware\ble/cy_ble_gap.h ****     {
 1225              		.loc 2 967 0
 1226 04ea 04AB     		add	r3, sp, #16
 1227 04ec 5B78     		ldrb	r3, [r3, #1]
 1228 04ee FF2B     		cmp	r3, #255
 1229 04f0 04D1     		bne	.L91
 970:Generated_Source\PSoC6\pdl\middleware\ble/cy_ble_gap.h ****     }
 1230              		.loc 2 970 0
 1231 04f2 03D1     		bne	.L91
 1232 04f4 8649     		ldr	r1, .L110
 1233 04f6 8748     		ldr	r0, .L110+4
 1234 04f8 FFF7FEFF 		bl	Cy_SysLib_AssertFailed
 1235              	.LVL121:
 1236              	.L91:
 1237              		.loc 2 973 0
 1238 04fc 04AA     		add	r2, sp, #16
 1239 04fe 1388     		ldrh	r3, [r2]
 1240 0500 0BA9     		add	r1, sp, #44
 1241 0502 0B80     		strh	r3, [r1]
 1242 0504 1380     		strh	r3, [r2]
 1243              	.LVL122:
 1244              	.LBE117:
 1245              	.LBE116:
 547:Generated_Source\PSoC6\pdl\middleware\ble/cy_ble_event_handler.c ****                         if( tconnHandle.attId != CY_BLE_INVALID_CONN_HANDLE_VALUE)   
 1246              		.loc 1 547 0
 1247 0506 1B0A     		lsrs	r3, r3, #8
 1248 0508 FF2B     		cmp	r3, #255
 1249 050a 02D0     		beq	.L84
 548:Generated_Source\PSoC6\pdl\middleware\ble/cy_ble_event_handler.c ****                         {
 549:Generated_Source\PSoC6\pdl\middleware\ble/cy_ble_event_handler.c ****                             cy_ble_devConnRole[tconnHandle.attId] = tEvParam->role;
 1250              		.loc 1 549 0
 1251 050c 297E     		ldrb	r1, [r5, #24]
 1252 050e 884A     		ldr	r2, .L110+32
 1253 0510 D154     		strb	r1, [r2, r3]
 1254              	.L84:
 1255              	.LBE115:
 550:Generated_Source\PSoC6\pdl\middleware\ble/cy_ble_event_handler.c ****                         }
 551:Generated_Source\PSoC6\pdl\middleware\ble/cy_ble_event_handler.c ****                     }
 552:Generated_Source\PSoC6\pdl\middleware\ble/cy_ble_event_handler.c ****                     #endif /*((CY_BLE_GAP_ROLE_PERIPHERAL || CY_BLE_GAP_ROLE_CENTRAL))*/
 553:Generated_Source\PSoC6\pdl\middleware\ble/cy_ble_event_handler.c ****                 }
ARM GAS  C:\Users\D4DE~1\AppData\Local\Temp\cccuUyWy.s 			page 51


 554:Generated_Source\PSoC6\pdl\middleware\ble/cy_ble_event_handler.c ****                 Cy_BLE_SetState(CY_BLE_STATE_ON);
 1256              		.loc 1 554 0
 1257 0512 0222     		movs	r2, #2
 1258 0514 874B     		ldr	r3, .L110+36
 1259 0516 1A70     		strb	r2, [r3]
 1260              	.LBE112:
 555:Generated_Source\PSoC6\pdl\middleware\ble/cy_ble_event_handler.c ****             }
 556:Generated_Source\PSoC6\pdl\middleware\ble/cy_ble_event_handler.c ****             break;
 1261              		.loc 1 556 0
 1262 0518 2FE1     		b	.L31
 1263              	.LVL123:
 1264              	.L32:
 557:Generated_Source\PSoC6\pdl\middleware\ble/cy_ble_event_handler.c **** 
 558:Generated_Source\PSoC6\pdl\middleware\ble/cy_ble_event_handler.c ****         case CY_BLE_EVT_GAP_DEVICE_DISCONNECTED:
 559:Generated_Source\PSoC6\pdl\middleware\ble/cy_ble_event_handler.c ****             Cy_BLE_SetState(CY_BLE_STATE_ON);
 1265              		.loc 1 559 0
 1266 051a 0222     		movs	r2, #2
 1267 051c 854B     		ldr	r3, .L110+36
 1268 051e 1A70     		strb	r2, [r3]
 560:Generated_Source\PSoC6\pdl\middleware\ble/cy_ble_event_handler.c ****             break;
 1269              		.loc 1 560 0
 1270 0520 2BE1     		b	.L31
 1271              	.L45:
 561:Generated_Source\PSoC6\pdl\middleware\ble/cy_ble_event_handler.c ****         
 562:Generated_Source\PSoC6\pdl\middleware\ble/cy_ble_event_handler.c ****         #if (CY_BLE_GAP_ROLE_PERIPHERAL || CY_BLE_GAP_ROLE_BROADCASTER)
 563:Generated_Source\PSoC6\pdl\middleware\ble/cy_ble_event_handler.c ****         case CY_BLE_EVT_GAPP_ADVERTISEMENT_START_STOP:
 564:Generated_Source\PSoC6\pdl\middleware\ble/cy_ble_event_handler.c ****         #if (CY_BLE_GAP_ROLE_PERIPHERAL || CY_BLE_GAP_ROLE_CENTRAL)
 565:Generated_Source\PSoC6\pdl\middleware\ble/cy_ble_event_handler.c ****             (void)Cy_BLE_InvokeServiceEventHandler((uint32_t)event, (void*)evParam);
 1272              		.loc 1 565 0
 1273 0522 2900     		movs	r1, r5
 1274 0524 FFF7FEFF 		bl	Cy_BLE_InvokeServiceEventHandler
 1275              	.LVL124:
 566:Generated_Source\PSoC6\pdl\middleware\ble/cy_ble_event_handler.c ****         #endif /* (CY_BLE_GAP_ROLE_PERIPHERAL || CY_BLE_GAP_ROLE_CENTRAL) */
 567:Generated_Source\PSoC6\pdl\middleware\ble/cy_ble_event_handler.c **** 
 568:Generated_Source\PSoC6\pdl\middleware\ble/cy_ble_event_handler.c ****             if((cy_ble_eventHandlerFlag & CY_BLE_CALLBACK) != 0u)
 1276              		.loc 1 568 0
 1277 0528 834B     		ldr	r3, .L110+40
 1278 052a 1B78     		ldrb	r3, [r3]
 1279 052c DB07     		lsls	r3, r3, #31
 1280 052e 00D4     		bmi	.LCB1290
 1281 0530 23E1     		b	.L31	@long jump
 1282              	.LCB1290:
 1283              	.LBB120:
 1284              	.LBB121:
 745:Generated_Source\PSoC6\pdl\middleware\ble/cy_ble_gap.h **** }
 1285              		.loc 2 745 0
 1286 0532 7E4B     		ldr	r3, .L110+28
 1287 0534 1B78     		ldrb	r3, [r3]
 1288              	.LBE121:
 1289              	.LBE120:
 569:Generated_Source\PSoC6\pdl\middleware\ble/cy_ble_event_handler.c ****             {
 570:Generated_Source\PSoC6\pdl\middleware\ble/cy_ble_event_handler.c ****                 /* After Cy_BLE_GAPP_StartAdvertisement, the first event indicates that advertising
 571:Generated_Source\PSoC6\pdl\middleware\ble/cy_ble_event_handler.c ****                 if(Cy_BLE_GetAdvertisementState() == CY_BLE_ADV_STATE_ADV_INITIATED)
 1290              		.loc 1 571 0
 1291 0536 012B     		cmp	r3, #1
 1292 0538 03D1     		bne	.L93
 1293              	.LVL125:
ARM GAS  C:\Users\D4DE~1\AppData\Local\Temp\cccuUyWy.s 			page 52


 1294              	.LBB122:
 1295              	.LBB123:
 763:Generated_Source\PSoC6\pdl\middleware\ble/cy_ble_gap.h **** }
 1296              		.loc 2 763 0
 1297 053a 0222     		movs	r2, #2
 1298 053c 7B4B     		ldr	r3, .L110+28
 1299 053e 1A70     		strb	r2, [r3]
 1300 0540 1BE1     		b	.L31
 1301              	.LVL126:
 1302              	.L93:
 1303              	.LBE123:
 1304              	.LBE122:
 572:Generated_Source\PSoC6\pdl\middleware\ble/cy_ble_event_handler.c ****                 {
 573:Generated_Source\PSoC6\pdl\middleware\ble/cy_ble_event_handler.c ****                     Cy_BLE_SetAdvertisementState(CY_BLE_ADV_STATE_ADVERTISING);
 574:Generated_Source\PSoC6\pdl\middleware\ble/cy_ble_event_handler.c ****                 }
 575:Generated_Source\PSoC6\pdl\middleware\ble/cy_ble_event_handler.c ****                 /* When the application initiated a stop advertisement */
 576:Generated_Source\PSoC6\pdl\middleware\ble/cy_ble_event_handler.c ****                 else if(Cy_BLE_GetAdvertisementState() == CY_BLE_ADV_STATE_STOP_INITIATED)
 1305              		.loc 1 576 0
 1306 0542 032B     		cmp	r3, #3
 1307 0544 03D1     		bne	.L94
 1308              	.LVL127:
 1309              	.LBB124:
 1310              	.LBB125:
 763:Generated_Source\PSoC6\pdl\middleware\ble/cy_ble_gap.h **** }
 1311              		.loc 2 763 0
 1312 0546 0022     		movs	r2, #0
 1313 0548 784B     		ldr	r3, .L110+28
 1314 054a 1A70     		strb	r2, [r3]
 1315 054c 15E1     		b	.L31
 1316              	.LVL128:
 1317              	.L94:
 1318              	.LBE125:
 1319              	.LBE124:
 577:Generated_Source\PSoC6\pdl\middleware\ble/cy_ble_event_handler.c ****                 {
 578:Generated_Source\PSoC6\pdl\middleware\ble/cy_ble_event_handler.c ****                     Cy_BLE_SetAdvertisementState(CY_BLE_ADV_STATE_STOPPED);
 579:Generated_Source\PSoC6\pdl\middleware\ble/cy_ble_event_handler.c ****                 }
 580:Generated_Source\PSoC6\pdl\middleware\ble/cy_ble_event_handler.c ****                 else /* The following event indicates that advertising has been stopped */
 581:Generated_Source\PSoC6\pdl\middleware\ble/cy_ble_event_handler.c ****                 {
 582:Generated_Source\PSoC6\pdl\middleware\ble/cy_ble_event_handler.c ****                     if(Cy_BLE_GetAdvertisementState() == CY_BLE_ADV_STATE_ADVERTISING)
 1320              		.loc 1 582 0
 1321 054e 022B     		cmp	r3, #2
 1322 0550 00D0     		beq	.LCB1328
 1323 0552 12E1     		b	.L31	@long jump
 1324              	.LCB1328:
 1325              	.LVL129:
 1326              	.LBB126:
 1327              	.LBB127:
 763:Generated_Source\PSoC6\pdl\middleware\ble/cy_ble_gap.h **** }
 1328              		.loc 2 763 0
 1329 0554 0022     		movs	r2, #0
 1330 0556 754B     		ldr	r3, .L110+28
 1331 0558 1A70     		strb	r2, [r3]
 1332              	.LVL130:
 1333              	.LBE127:
 1334              	.LBE126:
 583:Generated_Source\PSoC6\pdl\middleware\ble/cy_ble_event_handler.c ****                     {
 584:Generated_Source\PSoC6\pdl\middleware\ble/cy_ble_event_handler.c ****                         Cy_BLE_SetAdvertisementState(CY_BLE_ADV_STATE_STOPPED);
ARM GAS  C:\Users\D4DE~1\AppData\Local\Temp\cccuUyWy.s 			page 53


 585:Generated_Source\PSoC6\pdl\middleware\ble/cy_ble_event_handler.c ****                         if((cy_ble_configPtr->gappAdvParams[cy_ble_advIndex].slowAdvEnable != 0u) &
 1335              		.loc 1 585 0
 1336 055a 784B     		ldr	r3, .L110+44
 1337 055c 1B68     		ldr	r3, [r3]
 1338 055e 5868     		ldr	r0, [r3, #4]
 1339 0560 774B     		ldr	r3, .L110+48
 1340 0562 1978     		ldrb	r1, [r3]
 1341 0564 CA00     		lsls	r2, r1, #3
 1342 0566 531A     		subs	r3, r2, r1
 1343 0568 5B00     		lsls	r3, r3, #1
 1344 056a C318     		adds	r3, r0, r3
 1345 056c 9A79     		ldrb	r2, [r3, #6]
 1346 056e 002A     		cmp	r2, #0
 1347 0570 00D1     		bne	.LCB1349
 1348 0572 02E1     		b	.L31	@long jump
 1349              	.LCB1349:
 586:Generated_Source\PSoC6\pdl\middleware\ble/cy_ble_event_handler.c ****                            (cy_ble_configPtr->gappAdvParams[cy_ble_advIndex].fastAdvTimeOut != 0u))
 1350              		.loc 1 586 0 discriminator 1
 1351 0574 9B88     		ldrh	r3, [r3, #4]
 585:Generated_Source\PSoC6\pdl\middleware\ble/cy_ble_event_handler.c ****                            (cy_ble_configPtr->gappAdvParams[cy_ble_advIndex].fastAdvTimeOut != 0u))
 1352              		.loc 1 585 0 discriminator 1
 1353 0576 002B     		cmp	r3, #0
 1354 0578 00D1     		bne	.LCB1352
 1355 057a FEE0     		b	.L31	@long jump
 1356              	.LCB1352:
 587:Generated_Source\PSoC6\pdl\middleware\ble/cy_ble_event_handler.c ****                         {
 588:Generated_Source\PSoC6\pdl\middleware\ble/cy_ble_event_handler.c ****                             if(cy_ble_advertisingIntervalType == CY_BLE_ADVERTISING_FAST)
 1357              		.loc 1 588 0
 1358 057c 714B     		ldr	r3, .L110+52
 1359 057e 1B78     		ldrb	r3, [r3]
 1360 0580 002B     		cmp	r3, #0
 1361 0582 00D0     		beq	.LCB1356
 1362 0584 F9E0     		b	.L31	@long jump
 1363              	.LCB1356:
 589:Generated_Source\PSoC6\pdl\middleware\ble/cy_ble_event_handler.c ****                             {
 590:Generated_Source\PSoC6\pdl\middleware\ble/cy_ble_event_handler.c ****                                 /* When fast advertising time out occur: Start slow advertising */
 591:Generated_Source\PSoC6\pdl\middleware\ble/cy_ble_event_handler.c ****                                 if(Cy_BLE_GAPP_StartAdvertisement(CY_BLE_ADVERTISING_SLOW, cy_ble_a
 1364              		.loc 1 591 0
 1365 0586 0120     		movs	r0, #1
 1366 0588 FFF7FEFF 		bl	Cy_BLE_GAPP_StartAdvertisement
 1367              	.LVL131:
 1368 058c 0028     		cmp	r0, #0
 1369 058e 00D0     		beq	.LCB1361
 1370 0590 F3E0     		b	.L31	@long jump
 1371              	.LCB1361:
 1372              	.LVL132:
 1373              	.LBB128:
 1374              	.LBB129:
 763:Generated_Source\PSoC6\pdl\middleware\ble/cy_ble_gap.h **** }
 1375              		.loc 2 763 0
 1376 0592 0122     		movs	r2, #1
 1377 0594 654B     		ldr	r3, .L110+28
 1378 0596 1A70     		strb	r2, [r3]
 1379 0598 EFE0     		b	.L31
 1380              	.LVL133:
 1381              	.L60:
 1382              	.LBE129:
ARM GAS  C:\Users\D4DE~1\AppData\Local\Temp\cccuUyWy.s 			page 54


 1383              	.LBE128:
 592:Generated_Source\PSoC6\pdl\middleware\ble/cy_ble_event_handler.c ****                                    CY_BLE_SUCCESS)
 593:Generated_Source\PSoC6\pdl\middleware\ble/cy_ble_event_handler.c ****                                 {
 594:Generated_Source\PSoC6\pdl\middleware\ble/cy_ble_event_handler.c ****                                     Cy_BLE_SetAdvertisementState(CY_BLE_ADV_STATE_ADV_INITIATED);
 595:Generated_Source\PSoC6\pdl\middleware\ble/cy_ble_event_handler.c ****                                 }
 596:Generated_Source\PSoC6\pdl\middleware\ble/cy_ble_event_handler.c ****                             }
 597:Generated_Source\PSoC6\pdl\middleware\ble/cy_ble_event_handler.c ****                         }
 598:Generated_Source\PSoC6\pdl\middleware\ble/cy_ble_event_handler.c ****                     }
 599:Generated_Source\PSoC6\pdl\middleware\ble/cy_ble_event_handler.c ****                 }
 600:Generated_Source\PSoC6\pdl\middleware\ble/cy_ble_event_handler.c ****             }
 601:Generated_Source\PSoC6\pdl\middleware\ble/cy_ble_event_handler.c ****             break;
 602:Generated_Source\PSoC6\pdl\middleware\ble/cy_ble_event_handler.c ****         #endif /* CY_BLE_GAP_ROLE_PERIPHERAL || CY_BLE_GAP_ROLE_BROADCASTER */
 603:Generated_Source\PSoC6\pdl\middleware\ble/cy_ble_event_handler.c **** 
 604:Generated_Source\PSoC6\pdl\middleware\ble/cy_ble_event_handler.c ****         #if (CY_BLE_GAP_ROLE_CENTRAL || CY_BLE_GAP_ROLE_OBSERVER)
 605:Generated_Source\PSoC6\pdl\middleware\ble/cy_ble_event_handler.c ****         case CY_BLE_EVT_GAPC_SCAN_START_STOP:
 606:Generated_Source\PSoC6\pdl\middleware\ble/cy_ble_event_handler.c ****         #if (CY_BLE_GAP_ROLE_CENTRAL)
 607:Generated_Source\PSoC6\pdl\middleware\ble/cy_ble_event_handler.c ****             (void)Cy_BLE_InvokeServiceEventHandler((uint32_t)event, (void*)evParam);
 608:Generated_Source\PSoC6\pdl\middleware\ble/cy_ble_event_handler.c ****         #endif /* (CY_BLE_GAP_ROLE_CENTRAL) */
 609:Generated_Source\PSoC6\pdl\middleware\ble/cy_ble_event_handler.c **** 
 610:Generated_Source\PSoC6\pdl\middleware\ble/cy_ble_event_handler.c ****             if((cy_ble_eventHandlerFlag & CY_BLE_CALLBACK) != 0u)
 611:Generated_Source\PSoC6\pdl\middleware\ble/cy_ble_event_handler.c ****             {
 612:Generated_Source\PSoC6\pdl\middleware\ble/cy_ble_event_handler.c ****                 /* After Cy_BLE_GAPC_StartScan, the first event indicates that scanning has been st
 613:Generated_Source\PSoC6\pdl\middleware\ble/cy_ble_event_handler.c ****                 if(Cy_BLE_GetScanState() == CY_BLE_SCAN_STATE_SCAN_INITIATED)
 614:Generated_Source\PSoC6\pdl\middleware\ble/cy_ble_event_handler.c ****                 {
 615:Generated_Source\PSoC6\pdl\middleware\ble/cy_ble_event_handler.c ****                     Cy_BLE_SetScanState(CY_BLE_SCAN_STATE_SCANNING);
 616:Generated_Source\PSoC6\pdl\middleware\ble/cy_ble_event_handler.c ****                 }
 617:Generated_Source\PSoC6\pdl\middleware\ble/cy_ble_event_handler.c ****                 /* When the application initiated stop scanning */
 618:Generated_Source\PSoC6\pdl\middleware\ble/cy_ble_event_handler.c ****                 else if(Cy_BLE_GetScanState() == CY_BLE_SCAN_STATE_STOP_INITIATED)
 619:Generated_Source\PSoC6\pdl\middleware\ble/cy_ble_event_handler.c ****                 {
 620:Generated_Source\PSoC6\pdl\middleware\ble/cy_ble_event_handler.c ****                     Cy_BLE_SetScanState(CY_BLE_SCAN_STATE_STOPPED);
 621:Generated_Source\PSoC6\pdl\middleware\ble/cy_ble_event_handler.c ****                 }
 622:Generated_Source\PSoC6\pdl\middleware\ble/cy_ble_event_handler.c ****                 else /* The following event indicates that scanning has been stopped by BLE Stack *
 623:Generated_Source\PSoC6\pdl\middleware\ble/cy_ble_event_handler.c ****                 {
 624:Generated_Source\PSoC6\pdl\middleware\ble/cy_ble_event_handler.c ****                     if(Cy_BLE_GetScanState() == CY_BLE_SCAN_STATE_SCANNING)
 625:Generated_Source\PSoC6\pdl\middleware\ble/cy_ble_event_handler.c ****                     {
 626:Generated_Source\PSoC6\pdl\middleware\ble/cy_ble_event_handler.c ****                         Cy_BLE_SetScanState(CY_BLE_SCAN_STATE_STOPPED);
 627:Generated_Source\PSoC6\pdl\middleware\ble/cy_ble_event_handler.c ****                         if((cy_ble_configPtr->gapcScanParams[cy_ble_scanIndex].slowScanEnabled != 0
 628:Generated_Source\PSoC6\pdl\middleware\ble/cy_ble_event_handler.c ****                            (cy_ble_configPtr->gapcScanParams[cy_ble_scanIndex].fastScanTimeOut != 0
 629:Generated_Source\PSoC6\pdl\middleware\ble/cy_ble_event_handler.c ****                         {
 630:Generated_Source\PSoC6\pdl\middleware\ble/cy_ble_event_handler.c ****                             if(cy_ble_scanningIntervalType == CY_BLE_SCANNING_FAST)
 631:Generated_Source\PSoC6\pdl\middleware\ble/cy_ble_event_handler.c ****                             {
 632:Generated_Source\PSoC6\pdl\middleware\ble/cy_ble_event_handler.c ****                                 /* When a fast scanning timeout occurs: Start slow scanning */
 633:Generated_Source\PSoC6\pdl\middleware\ble/cy_ble_event_handler.c ****                                 if(Cy_BLE_GAPC_StartScan(CY_BLE_SCANNING_SLOW, cy_ble_scanIndex) ==
 634:Generated_Source\PSoC6\pdl\middleware\ble/cy_ble_event_handler.c ****                                 {
 635:Generated_Source\PSoC6\pdl\middleware\ble/cy_ble_event_handler.c ****                                     Cy_BLE_SetScanState(CY_BLE_SCAN_STATE_SCAN_INITIATED);
 636:Generated_Source\PSoC6\pdl\middleware\ble/cy_ble_event_handler.c ****                                 }
 637:Generated_Source\PSoC6\pdl\middleware\ble/cy_ble_event_handler.c ****                             }
 638:Generated_Source\PSoC6\pdl\middleware\ble/cy_ble_event_handler.c ****                         }
 639:Generated_Source\PSoC6\pdl\middleware\ble/cy_ble_event_handler.c ****                     }
 640:Generated_Source\PSoC6\pdl\middleware\ble/cy_ble_event_handler.c ****                 }
 641:Generated_Source\PSoC6\pdl\middleware\ble/cy_ble_event_handler.c ****             }
 642:Generated_Source\PSoC6\pdl\middleware\ble/cy_ble_event_handler.c ****             break;
 643:Generated_Source\PSoC6\pdl\middleware\ble/cy_ble_event_handler.c ****         #endif /* CY_BLE_GAP_ROLE_CENTRAL || CY_BLE_GAP_ROLE_OBSERVER */
 644:Generated_Source\PSoC6\pdl\middleware\ble/cy_ble_event_handler.c **** 
 645:Generated_Source\PSoC6\pdl\middleware\ble/cy_ble_event_handler.c ****         /**********************************************************
 646:Generated_Source\PSoC6\pdl\middleware\ble/cy_ble_event_handler.c ****          * L2AP events
 647:Generated_Source\PSoC6\pdl\middleware\ble/cy_ble_event_handler.c ****          ************************************************************/
ARM GAS  C:\Users\D4DE~1\AppData\Local\Temp\cccuUyWy.s 			page 55


 648:Generated_Source\PSoC6\pdl\middleware\ble/cy_ble_event_handler.c ****         case CY_BLE_EVT_L2CAP_CONN_PARAM_UPDATE_RSP:
 649:Generated_Source\PSoC6\pdl\middleware\ble/cy_ble_event_handler.c ****         #if (CY_BLE_GAP_ROLE_PERIPHERAL || CY_BLE_GAP_ROLE_CENTRAL)
 650:Generated_Source\PSoC6\pdl\middleware\ble/cy_ble_event_handler.c ****             (void)Cy_BLE_InvokeServiceEventHandler((uint32_t)event, (void*)evParam);
 1384              		.loc 1 650 0
 1385 059a 2900     		movs	r1, r5
 1386 059c FFF7FEFF 		bl	Cy_BLE_InvokeServiceEventHandler
 1387              	.LVL134:
 651:Generated_Source\PSoC6\pdl\middleware\ble/cy_ble_event_handler.c ****         #endif /* (CY_BLE_GAP_ROLE_PERIPHERAL || CY_BLE_GAP_ROLE_CENTRAL) */
 652:Generated_Source\PSoC6\pdl\middleware\ble/cy_ble_event_handler.c ****             break;
 1388              		.loc 1 652 0
 1389 05a0 EBE0     		b	.L31
 1390              	.LVL135:
 1391              	.L50:
 1392 05a2 0222     		movs	r2, #2
 1393 05a4 2900     		movs	r1, r5
 1394 05a6 6846     		mov	r0, sp
 1395              	.LVL136:
 1396 05a8 FFF7FEFF 		bl	memcpy
 1397              	.LVL137:
 1398              	.LBB130:
 1399              	.LBB131:
 895:Generated_Source\PSoC6\pdl\middleware\ble/cy_ble_gap.h ****     {
 1400              		.loc 2 895 0
 1401 05ac 6B46     		mov	r3, sp
 1402 05ae 5B78     		ldrb	r3, [r3, #1]
 1403 05b0 012B     		cmp	r3, #1
 1404 05b2 03D8     		bhi	.L95
 897:Generated_Source\PSoC6\pdl\middleware\ble/cy_ble_gap.h ****     }
 1405              		.loc 2 897 0
 1406 05b4 0221     		movs	r1, #2
 1407 05b6 5B4A     		ldr	r2, .L110+20
 1408 05b8 D154     		strb	r1, [r2, r3]
 1409 05ba 05E0     		b	.L96
 1410              	.L95:
 902:Generated_Source\PSoC6\pdl\middleware\ble/cy_ble_gap.h ****     }
 1411              		.loc 2 902 0
 1412 05bc 012B     		cmp	r3, #1
 1413 05be 03D8     		bhi	.L96
 1414 05c0 6149     		ldr	r1, .L110+56
 1415 05c2 5448     		ldr	r0, .L110+4
 1416 05c4 FFF7FEFF 		bl	Cy_SysLib_AssertFailed
 1417              	.LVL138:
 1418              	.L96:
 1419              	.LBE131:
 1420              	.LBE130:
 653:Generated_Source\PSoC6\pdl\middleware\ble/cy_ble_event_handler.c **** 
 654:Generated_Source\PSoC6\pdl\middleware\ble/cy_ble_event_handler.c ****             /**********************************************************
 655:Generated_Source\PSoC6\pdl\middleware\ble/cy_ble_event_handler.c ****              * GATT events
 656:Generated_Source\PSoC6\pdl\middleware\ble/cy_ble_event_handler.c ****              ************************************************************/
 657:Generated_Source\PSoC6\pdl\middleware\ble/cy_ble_event_handler.c ****         #if ((CY_BLE_GATT_ROLE_SERVER) || (CY_BLE_GATT_ROLE_CLIENT))
 658:Generated_Source\PSoC6\pdl\middleware\ble/cy_ble_event_handler.c ****         case CY_BLE_EVT_GATT_CONNECT_IND:
 659:Generated_Source\PSoC6\pdl\middleware\ble/cy_ble_event_handler.c ****         #if (CY_BLE_GATT_ROLE_CLIENT)
 660:Generated_Source\PSoC6\pdl\middleware\ble/cy_ble_event_handler.c ****             /* If connected to the same device which is already discovered */
 661:Generated_Source\PSoC6\pdl\middleware\ble/cy_ble_event_handler.c ****             if((Cy_BLE_GetConnectionState(*(cy_stc_ble_conn_handle_t*)evParam) ==
 662:Generated_Source\PSoC6\pdl\middleware\ble/cy_ble_event_handler.c ****                 CY_BLE_CONN_STATE_CLIENT_DISCONNECTED_DISCOVERED) &&
 663:Generated_Source\PSoC6\pdl\middleware\ble/cy_ble_event_handler.c ****                (((cy_stc_ble_conn_handle_t*)evParam)->bdHandle ==
 664:Generated_Source\PSoC6\pdl\middleware\ble/cy_ble_event_handler.c ****                 cy_ble_connHandle[((cy_stc_ble_conn_handle_t*)evParam)->attId].bdHandle))
ARM GAS  C:\Users\D4DE~1\AppData\Local\Temp\cccuUyWy.s 			page 56


 665:Generated_Source\PSoC6\pdl\middleware\ble/cy_ble_event_handler.c ****             {   /* Set a discovered state */
 666:Generated_Source\PSoC6\pdl\middleware\ble/cy_ble_event_handler.c ****                 Cy_BLE_SetConnectionState(*(cy_stc_ble_conn_handle_t*)evParam, CY_BLE_CONN_STATE_CL
 667:Generated_Source\PSoC6\pdl\middleware\ble/cy_ble_event_handler.c ****             }
 668:Generated_Source\PSoC6\pdl\middleware\ble/cy_ble_event_handler.c ****             else    /* Connected to a new device */
 669:Generated_Source\PSoC6\pdl\middleware\ble/cy_ble_event_handler.c ****         #endif /* CY_BLE_GATT_ROLE_CLIENT */
 670:Generated_Source\PSoC6\pdl\middleware\ble/cy_ble_event_handler.c ****             {
 671:Generated_Source\PSoC6\pdl\middleware\ble/cy_ble_event_handler.c ****                 /* Clear the discovery index for the Client role */
 672:Generated_Source\PSoC6\pdl\middleware\ble/cy_ble_event_handler.c ****             #if (CY_BLE_GATT_ROLE_CLIENT)
 673:Generated_Source\PSoC6\pdl\middleware\ble/cy_ble_event_handler.c ****                 (void)Cy_BLE_GATTC_RemoveConnHandle(*(cy_stc_ble_conn_handle_t*)evParam);
 674:Generated_Source\PSoC6\pdl\middleware\ble/cy_ble_event_handler.c ****             #endif /* CY_BLE_GATT_ROLE_CLIENT */
 675:Generated_Source\PSoC6\pdl\middleware\ble/cy_ble_event_handler.c ****                 Cy_BLE_SetConnectionState(*(cy_stc_ble_conn_handle_t*)evParam, CY_BLE_CONN_STATE_CO
 676:Generated_Source\PSoC6\pdl\middleware\ble/cy_ble_event_handler.c ****                 cy_ble_connHandle[((cy_stc_ble_conn_handle_t*)evParam)->attId] = *(cy_stc_ble_conn_
 1421              		.loc 1 676 0
 1422 05c8 6878     		ldrb	r0, [r5, #1]
 1423 05ca 4000     		lsls	r0, r0, #1
 1424 05cc 544B     		ldr	r3, .L110+16
 1425 05ce 1818     		adds	r0, r3, r0
 1426 05d0 0222     		movs	r2, #2
 1427 05d2 2900     		movs	r1, r5
 1428 05d4 FFF7FEFF 		bl	memcpy
 1429              	.LVL139:
 677:Generated_Source\PSoC6\pdl\middleware\ble/cy_ble_event_handler.c ****             }
 678:Generated_Source\PSoC6\pdl\middleware\ble/cy_ble_event_handler.c **** 
 679:Generated_Source\PSoC6\pdl\middleware\ble/cy_ble_event_handler.c ****             cy_ble_busyStatus[((cy_stc_ble_conn_handle_t*)evParam)->attId] = CY_BLE_STACK_STATE_FRE
 1430              		.loc 1 679 0
 1431 05d8 6B78     		ldrb	r3, [r5, #1]
 1432 05da 0021     		movs	r1, #0
 1433 05dc 5B4A     		ldr	r2, .L110+60
 1434 05de D154     		strb	r1, [r2, r3]
 680:Generated_Source\PSoC6\pdl\middleware\ble/cy_ble_event_handler.c **** 
 681:Generated_Source\PSoC6\pdl\middleware\ble/cy_ble_event_handler.c ****         #if ((CY_BLE_GATT_ROLE_SERVER) && (CY_BLE_GATT_DB_CCCD_COUNT != 0u) && \
 682:Generated_Source\PSoC6\pdl\middleware\ble/cy_ble_event_handler.c ****             (CY_BLE_BONDING_REQUIREMENT == CY_BLE_BONDING_YES))
 683:Generated_Source\PSoC6\pdl\middleware\ble/cy_ble_event_handler.c ****             
 684:Generated_Source\PSoC6\pdl\middleware\ble/cy_ble_event_handler.c ****             /* Initialize the CCCD values in the RAM when bonding is enabled */
 685:Generated_Source\PSoC6\pdl\middleware\ble/cy_ble_event_handler.c ****             (void)memcpy((uint8_t*)cy_ble_attValuesCccdMultiple[((cy_stc_ble_conn_handle_t*)evParam
 1435              		.loc 1 685 0
 1436 05e0 6B78     		ldrb	r3, [r5, #1]
 1437 05e2 5800     		lsls	r0, r3, #1
 1438 05e4 C018     		adds	r0, r0, r3
 1439 05e6 5A4E     		ldr	r6, .L110+64
 1440 05e8 8019     		adds	r0, r0, r6
 686:Generated_Source\PSoC6\pdl\middleware\ble/cy_ble_event_handler.c ****                          cy_ble_configPtr->flashStorage->attValuesCCCDFlashMemory[((cy_stc_ble_conn
 1441              		.loc 1 686 0
 1442 05ea 544B     		ldr	r3, .L110+44
 1443 05ec 1B68     		ldr	r3, [r3]
 1444 05ee 1969     		ldr	r1, [r3, #16]
 1445 05f0 2B78     		ldrb	r3, [r5]
 1446 05f2 5A00     		lsls	r2, r3, #1
 1447 05f4 D318     		adds	r3, r2, r3
 1448 05f6 574A     		ldr	r2, .L110+68
 1449 05f8 9446     		mov	ip, r2
 1450 05fa 6344     		add	r3, r3, ip
 1451 05fc C918     		adds	r1, r1, r3
 1452 05fe 0631     		adds	r1, r1, #6
 685:Generated_Source\PSoC6\pdl\middleware\ble/cy_ble_event_handler.c ****                          cy_ble_configPtr->flashStorage->attValuesCCCDFlashMemory[((cy_stc_ble_conn
 1453              		.loc 1 685 0
 1454 0600 0322     		movs	r2, #3
ARM GAS  C:\Users\D4DE~1\AppData\Local\Temp\cccuUyWy.s 			page 57


 1455 0602 FFF7FEFF 		bl	memcpy
 1456              	.LVL140:
 1457              	.LBB132:
 687:Generated_Source\PSoC6\pdl\middleware\ble/cy_ble_event_handler.c ****                                                                                    bdHandle],
 688:Generated_Source\PSoC6\pdl\middleware\ble/cy_ble_event_handler.c ****                          CY_BLE_GATT_DB_CCCD_COUNT + CY_BLE_CCCD_CRC_BYTE);
 689:Generated_Source\PSoC6\pdl\middleware\ble/cy_ble_event_handler.c **** 
 690:Generated_Source\PSoC6\pdl\middleware\ble/cy_ble_event_handler.c ****             /* Check CRC for CCCD data */
 691:Generated_Source\PSoC6\pdl\middleware\ble/cy_ble_event_handler.c ****             {
 692:Generated_Source\PSoC6\pdl\middleware\ble/cy_ble_event_handler.c ****                 uint8_t cccdCrc = Cy_BLE_HAL_CalcCRC8(cy_ble_attValuesCccdMultiple[((cy_stc_ble_con
 1458              		.loc 1 692 0
 1459 0606 6B78     		ldrb	r3, [r5, #1]
 1460 0608 5800     		lsls	r0, r3, #1
 1461 060a C018     		adds	r0, r0, r3
 1462 060c 8019     		adds	r0, r0, r6
 1463 060e 0221     		movs	r1, #2
 1464 0610 FFF7FEFF 		bl	Cy_BLE_HAL_CalcCRC8
 1465              	.LVL141:
 693:Generated_Source\PSoC6\pdl\middleware\ble/cy_ble_event_handler.c ****                                                       CY_BLE_GATT_DB_CCCD_COUNT);
 694:Generated_Source\PSoC6\pdl\middleware\ble/cy_ble_event_handler.c **** 
 695:Generated_Source\PSoC6\pdl\middleware\ble/cy_ble_event_handler.c ****                 if(cy_ble_attValuesCccdMultiple[((cy_stc_ble_conn_handle_t*)evParam)->attId][CY_BLE
 1466              		.loc 1 695 0
 1467 0614 6B78     		ldrb	r3, [r5, #1]
 1468 0616 5A00     		lsls	r2, r3, #1
 1469 0618 D318     		adds	r3, r2, r3
 1470 061a F618     		adds	r6, r6, r3
 1471 061c B378     		ldrb	r3, [r6, #2]
 1472 061e 9842     		cmp	r0, r3
 1473 0620 0DD0     		beq	.L97
 696:Generated_Source\PSoC6\pdl\middleware\ble/cy_ble_event_handler.c ****                 {
 697:Generated_Source\PSoC6\pdl\middleware\ble/cy_ble_event_handler.c ****                     /* Inform that the CRC for CCCD is wrong */
 698:Generated_Source\PSoC6\pdl\middleware\ble/cy_ble_event_handler.c ****                     Cy_BLE_ApplCallback((uint32_t)CY_BLE_EVT_GATTS_EVT_CCCD_CORRUPT, NULL);
 1474              		.loc 1 698 0
 1475 0622 4D4B     		ldr	r3, .L110+72
 1476 0624 1B68     		ldr	r3, [r3]
 1477 0626 0021     		movs	r1, #0
 1478 0628 4C48     		ldr	r0, .L110+76
 1479              	.LVL142:
 1480 062a 9847     		blx	r3
 1481              	.LVL143:
 699:Generated_Source\PSoC6\pdl\middleware\ble/cy_ble_event_handler.c ****                     
 700:Generated_Source\PSoC6\pdl\middleware\ble/cy_ble_event_handler.c ****                     /* Clean the CCCD buffer in the RAM */
 701:Generated_Source\PSoC6\pdl\middleware\ble/cy_ble_event_handler.c ****                     (void)memset((uint8_t*)cy_ble_attValuesCccdMultiple[((cy_stc_ble_conn_handle_t*
 1482              		.loc 1 701 0
 1483 062c 6B78     		ldrb	r3, [r5, #1]
 1484 062e 5800     		lsls	r0, r3, #1
 1485 0630 C318     		adds	r3, r0, r3
 1486 0632 4748     		ldr	r0, .L110+64
 1487 0634 1818     		adds	r0, r3, r0
 1488 0636 0322     		movs	r2, #3
 1489 0638 0021     		movs	r1, #0
 1490 063a FFF7FEFF 		bl	memset
 1491              	.LVL144:
 1492              	.L97:
 1493              	.LBE132:
 702:Generated_Source\PSoC6\pdl\middleware\ble/cy_ble_event_handler.c ****                                   0, CY_BLE_GATT_DB_CCCD_COUNT + CY_BLE_CCCD_CRC_BYTE);
 703:Generated_Source\PSoC6\pdl\middleware\ble/cy_ble_event_handler.c ****                 }            
 704:Generated_Source\PSoC6\pdl\middleware\ble/cy_ble_event_handler.c ****             }        
ARM GAS  C:\Users\D4DE~1\AppData\Local\Temp\cccuUyWy.s 			page 58


 705:Generated_Source\PSoC6\pdl\middleware\ble/cy_ble_event_handler.c ****         #endif /* CY_BLE_GATT_ROLE_SERVER && (CY_BLE_BONDING_REQUIREMENT == CY_BLE_BONDING_YES) */
 706:Generated_Source\PSoC6\pdl\middleware\ble/cy_ble_event_handler.c **** 
 707:Generated_Source\PSoC6\pdl\middleware\ble/cy_ble_event_handler.c ****             (void)Cy_BLE_InvokeServiceEventHandler((uint32_t)event, (void*)evParam);
 1494              		.loc 1 707 0
 1495 063e 2900     		movs	r1, r5
 1496 0640 2000     		movs	r0, r4
 1497 0642 FFF7FEFF 		bl	Cy_BLE_InvokeServiceEventHandler
 1498              	.LVL145:
 708:Generated_Source\PSoC6\pdl\middleware\ble/cy_ble_event_handler.c ****             break;
 1499              		.loc 1 708 0
 1500 0646 98E0     		b	.L31
 1501              	.LVL146:
 1502              	.L53:
 1503 0648 01AE     		add	r6, sp, #4
 1504 064a 0222     		movs	r2, #2
 1505 064c 2900     		movs	r1, r5
 1506 064e 3000     		movs	r0, r6
 1507              	.LVL147:
 1508 0650 FFF7FEFF 		bl	memcpy
 1509              	.LVL148:
 1510              	.LBB133:
 1511              	.LBB134:
 895:Generated_Source\PSoC6\pdl\middleware\ble/cy_ble_gap.h ****     {
 1512              		.loc 2 895 0
 1513 0654 7378     		ldrb	r3, [r6, #1]
 1514 0656 012B     		cmp	r3, #1
 1515 0658 03D8     		bhi	.L98
 897:Generated_Source\PSoC6\pdl\middleware\ble/cy_ble_gap.h ****     }
 1516              		.loc 2 897 0
 1517 065a 0021     		movs	r1, #0
 1518 065c 314A     		ldr	r2, .L110+20
 1519 065e D154     		strb	r1, [r2, r3]
 1520 0660 05E0     		b	.L99
 1521              	.L98:
 902:Generated_Source\PSoC6\pdl\middleware\ble/cy_ble_gap.h ****     }
 1522              		.loc 2 902 0
 1523 0662 012B     		cmp	r3, #1
 1524 0664 03D8     		bhi	.L99
 1525 0666 3849     		ldr	r1, .L110+56
 1526 0668 2A48     		ldr	r0, .L110+4
 1527 066a FFF7FEFF 		bl	Cy_SysLib_AssertFailed
 1528              	.LVL149:
 1529              	.L99:
 1530              	.LBE134:
 1531              	.LBE133:
 709:Generated_Source\PSoC6\pdl\middleware\ble/cy_ble_event_handler.c **** 
 710:Generated_Source\PSoC6\pdl\middleware\ble/cy_ble_event_handler.c ****         case CY_BLE_EVT_GATT_DISCONNECT_IND:
 711:Generated_Source\PSoC6\pdl\middleware\ble/cy_ble_event_handler.c ****         #if (CY_BLE_GATT_ROLE_CLIENT)
 712:Generated_Source\PSoC6\pdl\middleware\ble/cy_ble_event_handler.c ****             if((Cy_BLE_GetConnectionState(*(cy_stc_ble_conn_handle_t*)evParam) == CY_BLE_CONN_STATE
 713:Generated_Source\PSoC6\pdl\middleware\ble/cy_ble_event_handler.c ****                (CY_BLE_BONDING_REQUIREMENT == CY_BLE_BONDING_YES))
 714:Generated_Source\PSoC6\pdl\middleware\ble/cy_ble_event_handler.c ****             {
 715:Generated_Source\PSoC6\pdl\middleware\ble/cy_ble_event_handler.c ****                 Cy_BLE_SetConnectionState(*(cy_stc_ble_conn_handle_t*)evParam,
 716:Generated_Source\PSoC6\pdl\middleware\ble/cy_ble_event_handler.c ****                                           CY_BLE_CONN_STATE_CLIENT_DISCONNECTED_DISCOVERED);
 717:Generated_Source\PSoC6\pdl\middleware\ble/cy_ble_event_handler.c ****             }
 718:Generated_Source\PSoC6\pdl\middleware\ble/cy_ble_event_handler.c ****             else
 719:Generated_Source\PSoC6\pdl\middleware\ble/cy_ble_event_handler.c ****         #endif /* CY_BLE_GATT_ROLE_CLIENT */
 720:Generated_Source\PSoC6\pdl\middleware\ble/cy_ble_event_handler.c ****             {
ARM GAS  C:\Users\D4DE~1\AppData\Local\Temp\cccuUyWy.s 			page 59


 721:Generated_Source\PSoC6\pdl\middleware\ble/cy_ble_event_handler.c ****                 Cy_BLE_SetConnectionState(*(cy_stc_ble_conn_handle_t*)evParam, CY_BLE_CONN_STATE_DI
 722:Generated_Source\PSoC6\pdl\middleware\ble/cy_ble_event_handler.c ****             #if (CY_BLE_GATT_ROLE_CLIENT)
 723:Generated_Source\PSoC6\pdl\middleware\ble/cy_ble_event_handler.c ****                 (void)Cy_BLE_GATTC_RemoveConnHandle(*(cy_stc_ble_conn_handle_t*)evParam);
 724:Generated_Source\PSoC6\pdl\middleware\ble/cy_ble_event_handler.c ****             #endif /* CY_BLE_GATT_ROLE_CLIENT */
 725:Generated_Source\PSoC6\pdl\middleware\ble/cy_ble_event_handler.c ****             }
 726:Generated_Source\PSoC6\pdl\middleware\ble/cy_ble_event_handler.c **** 
 727:Generated_Source\PSoC6\pdl\middleware\ble/cy_ble_event_handler.c ****             #if ((CY_BLE_GAP_ROLE_PERIPHERAL || CY_BLE_GAP_ROLE_CENTRAL))
 728:Generated_Source\PSoC6\pdl\middleware\ble/cy_ble_event_handler.c ****                 cy_ble_pairStatus[(*(cy_stc_ble_conn_handle_t *)evParam).attId] = false;
 1532              		.loc 1 728 0
 1533 066e 6B78     		ldrb	r3, [r5, #1]
 1534 0670 0021     		movs	r1, #0
 1535 0672 2D4A     		ldr	r2, .L110+24
 1536 0674 D154     		strb	r1, [r2, r3]
 729:Generated_Source\PSoC6\pdl\middleware\ble/cy_ble_event_handler.c ****             #endif /*((CY_BLE_GAP_ROLE_PERIPHERAL || CY_BLE_GAP_ROLE_CENTRAL))*/
 730:Generated_Source\PSoC6\pdl\middleware\ble/cy_ble_event_handler.c ****         
 731:Generated_Source\PSoC6\pdl\middleware\ble/cy_ble_event_handler.c ****             (void)Cy_BLE_InvokeServiceEventHandler((uint32_t)event, (void*)evParam);
 1537              		.loc 1 731 0
 1538 0676 2900     		movs	r1, r5
 1539 0678 2000     		movs	r0, r4
 1540 067a FFF7FEFF 		bl	Cy_BLE_InvokeServiceEventHandler
 1541              	.LVL150:
 732:Generated_Source\PSoC6\pdl\middleware\ble/cy_ble_event_handler.c ****             break;
 1542              		.loc 1 732 0
 1543 067e 7CE0     		b	.L31
 1544              	.LVL151:
 1545              	.L54:
 1546              	.LBB135:
 733:Generated_Source\PSoC6\pdl\middleware\ble/cy_ble_event_handler.c **** 
 734:Generated_Source\PSoC6\pdl\middleware\ble/cy_ble_event_handler.c ****         case CY_BLE_EVT_GATTS_XCNHG_MTU_REQ:
 735:Generated_Source\PSoC6\pdl\middleware\ble/cy_ble_event_handler.c ****         {
 736:Generated_Source\PSoC6\pdl\middleware\ble/cy_ble_event_handler.c ****             cy_stc_ble_gatt_xchg_mtu_param_t mtuParam;
 737:Generated_Source\PSoC6\pdl\middleware\ble/cy_ble_event_handler.c ****             mtuParam.connHandle = ((cy_stc_ble_gatt_xchg_mtu_param_t*)evParam)->connHandle;
 1547              		.loc 1 737 0
 1548 0680 05A8     		add	r0, sp, #20
 1549              	.LVL152:
 1550 0682 2B88     		ldrh	r3, [r5]
 1551 0684 0380     		strh	r3, [r0]
 738:Generated_Source\PSoC6\pdl\middleware\ble/cy_ble_event_handler.c ****             mtuParam.mtu = CY_BLE_GATT_MTU;
 1552              		.loc 1 738 0
 1553 0686 1723     		movs	r3, #23
 1554 0688 4380     		strh	r3, [r0, #2]
 739:Generated_Source\PSoC6\pdl\middleware\ble/cy_ble_event_handler.c ****             
 740:Generated_Source\PSoC6\pdl\middleware\ble/cy_ble_event_handler.c ****             (void)Cy_BLE_GATTS_ExchangeMtuRsp(&mtuParam);
 1555              		.loc 1 740 0
 1556 068a FFF7FEFF 		bl	Cy_BLE_GATTS_ExchangeMtuRsp
 1557              	.LVL153:
 1558              	.LBE135:
 741:Generated_Source\PSoC6\pdl\middleware\ble/cy_ble_event_handler.c ****         }
 742:Generated_Source\PSoC6\pdl\middleware\ble/cy_ble_event_handler.c ****         break;
 1559              		.loc 1 742 0
 1560 068e 74E0     		b	.L31
 1561              	.LVL154:
 1562              	.L48:
 1563              	.LBB136:
 743:Generated_Source\PSoC6\pdl\middleware\ble/cy_ble_event_handler.c ****     #endif /* CY_BLE_GATT_ROLE_SERVER || CY_BLE_GATT_ROLE_CLIENT */
 744:Generated_Source\PSoC6\pdl\middleware\ble/cy_ble_event_handler.c **** 
 745:Generated_Source\PSoC6\pdl\middleware\ble/cy_ble_event_handler.c ****     #if (CY_BLE_GATT_ROLE_CLIENT)
ARM GAS  C:\Users\D4DE~1\AppData\Local\Temp\cccuUyWy.s 			page 60


 746:Generated_Source\PSoC6\pdl\middleware\ble/cy_ble_event_handler.c ****         case CY_BLE_EVT_GAPC_SCAN_PROGRESS_RESULT:
 747:Generated_Source\PSoC6\pdl\middleware\ble/cy_ble_event_handler.c ****             (void)Cy_BLE_InvokeServiceEventHandler((uint32_t)event, (void*)evParam);
 748:Generated_Source\PSoC6\pdl\middleware\ble/cy_ble_event_handler.c ****             break;
 749:Generated_Source\PSoC6\pdl\middleware\ble/cy_ble_event_handler.c ****     #endif /* CY_BLE_GATT_ROLE_CLIENT */
 750:Generated_Source\PSoC6\pdl\middleware\ble/cy_ble_event_handler.c **** 
 751:Generated_Source\PSoC6\pdl\middleware\ble/cy_ble_event_handler.c ****     #if (CY_BLE_GATT_ROLE_SERVER)
 752:Generated_Source\PSoC6\pdl\middleware\ble/cy_ble_event_handler.c ****         case CY_BLE_EVT_GATTS_WRITE_REQ:
 753:Generated_Source\PSoC6\pdl\middleware\ble/cy_ble_event_handler.c ****         {
 754:Generated_Source\PSoC6\pdl\middleware\ble/cy_ble_event_handler.c ****             cy_en_ble_gatt_err_code_t gattErr;
 755:Generated_Source\PSoC6\pdl\middleware\ble/cy_ble_event_handler.c ****             cy_ble_gatt_db_attr_handle_t attrHandle;
 756:Generated_Source\PSoC6\pdl\middleware\ble/cy_ble_event_handler.c **** 
 757:Generated_Source\PSoC6\pdl\middleware\ble/cy_ble_event_handler.c ****             /* Process GATT service */
 758:Generated_Source\PSoC6\pdl\middleware\ble/cy_ble_event_handler.c ****             gattErr = Cy_BLE_GATTS_WriteEventHandler((cy_stc_ble_gatts_write_cmd_req_param_t*)evPar
 1564              		.loc 1 758 0
 1565 0690 2800     		movs	r0, r5
 1566              	.LVL155:
 1567 0692 FFF7FEFF 		bl	Cy_BLE_GATTS_WriteEventHandler
 1568              	.LVL156:
 1569 0696 011E     		subs	r1, r0, #0
 1570              	.LVL157:
 759:Generated_Source\PSoC6\pdl\middleware\ble/cy_ble_event_handler.c ****             
 760:Generated_Source\PSoC6\pdl\middleware\ble/cy_ble_event_handler.c ****             /* Process all registered service */
 761:Generated_Source\PSoC6\pdl\middleware\ble/cy_ble_event_handler.c ****             if(gattErr == CY_BLE_GATT_ERR_NONE)
 1571              		.loc 1 761 0
 1572 0698 04D1     		bne	.L100
 762:Generated_Source\PSoC6\pdl\middleware\ble/cy_ble_event_handler.c ****             {
 763:Generated_Source\PSoC6\pdl\middleware\ble/cy_ble_event_handler.c ****                 gattErr = Cy_BLE_InvokeServiceEventHandler((uint32_t)event, (void*)evParam);
 1573              		.loc 1 763 0
 1574 069a 2900     		movs	r1, r5
 1575 069c 2000     		movs	r0, r4
 1576              	.LVL158:
 1577 069e FFF7FEFF 		bl	Cy_BLE_InvokeServiceEventHandler
 1578              	.LVL159:
 1579 06a2 0100     		movs	r1, r0
 1580              	.LVL160:
 1581              	.L100:
 764:Generated_Source\PSoC6\pdl\middleware\ble/cy_ble_event_handler.c ****             }
 765:Generated_Source\PSoC6\pdl\middleware\ble/cy_ble_event_handler.c ****             /* Send response if event was handled by the service */
 766:Generated_Source\PSoC6\pdl\middleware\ble/cy_ble_event_handler.c ****             Cy_BLE_SendWriteResponse((cy_stc_ble_gatts_write_cmd_req_param_t*)evParam, gattErr);
 1582              		.loc 1 766 0
 1583 06a4 2800     		movs	r0, r5
 1584 06a6 FFF7FEFF 		bl	Cy_BLE_SendWriteResponse
 1585              	.LVL161:
 767:Generated_Source\PSoC6\pdl\middleware\ble/cy_ble_event_handler.c **** 
 768:Generated_Source\PSoC6\pdl\middleware\ble/cy_ble_event_handler.c ****             /* Call Cy_BLE_ApplCallback if event was not processed */
 769:Generated_Source\PSoC6\pdl\middleware\ble/cy_ble_event_handler.c ****             if((cy_ble_eventHandlerFlag & (CY_BLE_CALLBACK | CY_BLE_ENABLE_ALL_EVENTS)) != 0u)
 1586              		.loc 1 769 0
 1587 06aa 234B     		ldr	r3, .L110+40
 1588 06ac 1A78     		ldrb	r2, [r3]
 1589 06ae 1123     		movs	r3, #17
 1590 06b0 1A42     		tst	r2, r3
 1591 06b2 04D0     		beq	.L101
 770:Generated_Source\PSoC6\pdl\middleware\ble/cy_ble_event_handler.c ****             {
 771:Generated_Source\PSoC6\pdl\middleware\ble/cy_ble_event_handler.c ****                 Cy_BLE_ApplCallback((uint32_t)event, evParam);
 1592              		.loc 1 771 0
 1593 06b4 284B     		ldr	r3, .L110+72
 1594 06b6 1B68     		ldr	r3, [r3]
ARM GAS  C:\Users\D4DE~1\AppData\Local\Temp\cccuUyWy.s 			page 61


 1595 06b8 2900     		movs	r1, r5
 1596 06ba 2000     		movs	r0, r4
 1597 06bc 9847     		blx	r3
 1598              	.LVL162:
 1599              	.L101:
 772:Generated_Source\PSoC6\pdl\middleware\ble/cy_ble_event_handler.c ****             }
 773:Generated_Source\PSoC6\pdl\middleware\ble/cy_ble_event_handler.c **** 
 774:Generated_Source\PSoC6\pdl\middleware\ble/cy_ble_event_handler.c ****             /* Send Error response if unknown attr handle */
 775:Generated_Source\PSoC6\pdl\middleware\ble/cy_ble_event_handler.c ****             attrHandle = ((cy_stc_ble_gatts_write_cmd_req_param_t*)evParam)->handleValPair.attrHand
 1600              		.loc 1 775 0
 1601 06be 2A89     		ldrh	r2, [r5, #8]
 1602              	.LVL163:
 776:Generated_Source\PSoC6\pdl\middleware\ble/cy_ble_event_handler.c ****             if( ((cy_ble_eventHandlerFlag & CY_BLE_CALLBACK) != 0u) && 
 1603              		.loc 1 776 0
 1604 06c0 1D4B     		ldr	r3, .L110+40
 1605 06c2 1B78     		ldrb	r3, [r3]
 1606 06c4 DB07     		lsls	r3, r3, #31
 1607 06c6 0DD5     		bpl	.L102
 777:Generated_Source\PSoC6\pdl\middleware\ble/cy_ble_event_handler.c ****                 ((attrHandle > CY_BLE_GATT_DB_INDEX_COUNT) || (attrHandle == 0u)))
 1608              		.loc 1 777 0 discriminator 1
 1609 06c8 531E     		subs	r3, r2, #1
 1610 06ca 9BB2     		uxth	r3, r3
 776:Generated_Source\PSoC6\pdl\middleware\ble/cy_ble_event_handler.c ****             if( ((cy_ble_eventHandlerFlag & CY_BLE_CALLBACK) != 0u) && 
 1611              		.loc 1 776 0 discriminator 1
 1612 06cc 132B     		cmp	r3, #19
 1613 06ce 09D9     		bls	.L102
 1614              	.LBB137:
 778:Generated_Source\PSoC6\pdl\middleware\ble/cy_ble_event_handler.c ****             {
 779:Generated_Source\PSoC6\pdl\middleware\ble/cy_ble_event_handler.c ****                 /* Processing unknown attr handle (send an Error Response) */
 780:Generated_Source\PSoC6\pdl\middleware\ble/cy_ble_event_handler.c ****                 cy_stc_ble_gatt_err_param_t err_param;
 781:Generated_Source\PSoC6\pdl\middleware\ble/cy_ble_event_handler.c ****                 err_param.errInfo.opCode     = CY_BLE_GATT_WRITE_REQ;
 1615              		.loc 1 781 0
 1616 06d0 05A8     		add	r0, sp, #20
 1617 06d2 1223     		movs	r3, #18
 1618 06d4 0371     		strb	r3, [r0, #4]
 782:Generated_Source\PSoC6\pdl\middleware\ble/cy_ble_event_handler.c ****                 err_param.errInfo.attrHandle = ((cy_stc_ble_gatts_write_cmd_req_param_t*)evParam)->
 1619              		.loc 1 782 0
 1620 06d6 4280     		strh	r2, [r0, #2]
 783:Generated_Source\PSoC6\pdl\middleware\ble/cy_ble_event_handler.c ****                 err_param.connHandle         = ((cy_stc_ble_gatts_write_cmd_req_param_t*)evParam)->
 1621              		.loc 1 783 0
 1622 06d8 AB89     		ldrh	r3, [r5, #12]
 1623 06da 0380     		strh	r3, [r0]
 784:Generated_Source\PSoC6\pdl\middleware\ble/cy_ble_event_handler.c ****                 err_param.errInfo.errorCode  = CY_BLE_GATT_ERR_INVALID_HANDLE;
 1624              		.loc 1 784 0
 1625 06dc 0123     		movs	r3, #1
 1626 06de 4371     		strb	r3, [r0, #5]
 785:Generated_Source\PSoC6\pdl\middleware\ble/cy_ble_event_handler.c **** 
 786:Generated_Source\PSoC6\pdl\middleware\ble/cy_ble_event_handler.c ****                 (void)Cy_BLE_GATTS_ErrorRsp(&err_param);
 1627              		.loc 1 786 0
 1628 06e0 FFF7FEFF 		bl	Cy_BLE_GATTS_ErrorRsp
 1629              	.LVL164:
 1630              	.L102:
 1631              	.LBE137:
 787:Generated_Source\PSoC6\pdl\middleware\ble/cy_ble_event_handler.c ****             }
 788:Generated_Source\PSoC6\pdl\middleware\ble/cy_ble_event_handler.c ****             
 789:Generated_Source\PSoC6\pdl\middleware\ble/cy_ble_event_handler.c ****             /* Indicate that request was handled */
 790:Generated_Source\PSoC6\pdl\middleware\ble/cy_ble_event_handler.c ****             cy_ble_eventHandlerFlag &= (uint8_t) ~CY_BLE_CALLBACK;
ARM GAS  C:\Users\D4DE~1\AppData\Local\Temp\cccuUyWy.s 			page 62


 1632              		.loc 1 790 0
 1633 06e4 144A     		ldr	r2, .L110+40
 1634 06e6 1378     		ldrb	r3, [r2]
 1635 06e8 0121     		movs	r1, #1
 1636 06ea 8B43     		bics	r3, r1
 1637 06ec 1370     		strb	r3, [r2]
 1638              	.LBE136:
 791:Generated_Source\PSoC6\pdl\middleware\ble/cy_ble_event_handler.c ****         }
 792:Generated_Source\PSoC6\pdl\middleware\ble/cy_ble_event_handler.c ****         break;
 1639              		.loc 1 792 0
 1640 06ee 44E0     		b	.L31
 1641              	.LVL165:
 1642              	.L57:
 793:Generated_Source\PSoC6\pdl\middleware\ble/cy_ble_event_handler.c **** 
 794:Generated_Source\PSoC6\pdl\middleware\ble/cy_ble_event_handler.c ****         case CY_BLE_EVT_GATTS_WRITE_CMD_REQ:
 795:Generated_Source\PSoC6\pdl\middleware\ble/cy_ble_event_handler.c ****             (void)Cy_BLE_InvokeServiceEventHandler((uint32_t)event, (void*)evParam);
 1643              		.loc 1 795 0
 1644 06f0 2900     		movs	r1, r5
 1645 06f2 FFF7FEFF 		bl	Cy_BLE_InvokeServiceEventHandler
 1646              	.LVL166:
 796:Generated_Source\PSoC6\pdl\middleware\ble/cy_ble_event_handler.c ****             break;
 1647              		.loc 1 796 0
 1648 06f6 40E0     		b	.L31
 1649              	.LVL167:
 1650              	.L58:
 797:Generated_Source\PSoC6\pdl\middleware\ble/cy_ble_event_handler.c **** 
 798:Generated_Source\PSoC6\pdl\middleware\ble/cy_ble_event_handler.c ****         case CY_BLE_EVT_GATTS_PREP_WRITE_REQ:
 799:Generated_Source\PSoC6\pdl\middleware\ble/cy_ble_event_handler.c ****             (void)Cy_BLE_InvokeServiceEventHandler((uint32_t)event, (void*)evParam);
 1651              		.loc 1 799 0
 1652 06f8 2900     		movs	r1, r5
 1653 06fa FFF7FEFF 		bl	Cy_BLE_InvokeServiceEventHandler
 1654              	.LVL168:
 800:Generated_Source\PSoC6\pdl\middleware\ble/cy_ble_event_handler.c ****             break;
 1655              		.loc 1 800 0
 1656 06fe 3CE0     		b	.L31
 1657              	.LVL169:
 1658              	.L55:
 801:Generated_Source\PSoC6\pdl\middleware\ble/cy_ble_event_handler.c **** 
 802:Generated_Source\PSoC6\pdl\middleware\ble/cy_ble_event_handler.c ****         case CY_BLE_EVT_GATTS_EXEC_WRITE_REQ:
 803:Generated_Source\PSoC6\pdl\middleware\ble/cy_ble_event_handler.c ****             (void)Cy_BLE_InvokeServiceEventHandler((uint32_t)event, (void*)evParam);
 1659              		.loc 1 803 0
 1660 0700 2900     		movs	r1, r5
 1661 0702 FFF7FEFF 		bl	Cy_BLE_InvokeServiceEventHandler
 1662              	.LVL170:
 804:Generated_Source\PSoC6\pdl\middleware\ble/cy_ble_event_handler.c ****             break;
 1663              		.loc 1 804 0
 1664 0706 38E0     		b	.L31
 1665              	.LVL171:
 1666              	.L61:
 805:Generated_Source\PSoC6\pdl\middleware\ble/cy_ble_event_handler.c **** 
 806:Generated_Source\PSoC6\pdl\middleware\ble/cy_ble_event_handler.c ****         case CY_BLE_EVT_GATTS_HANDLE_VALUE_CNF:
 807:Generated_Source\PSoC6\pdl\middleware\ble/cy_ble_event_handler.c ****             (void)Cy_BLE_InvokeServiceEventHandler((uint32_t)event, (void*)evParam);
 1667              		.loc 1 807 0
 1668 0708 2900     		movs	r1, r5
 1669 070a FFF7FEFF 		bl	Cy_BLE_InvokeServiceEventHandler
 1670              	.LVL172:
 808:Generated_Source\PSoC6\pdl\middleware\ble/cy_ble_event_handler.c ****             break;
ARM GAS  C:\Users\D4DE~1\AppData\Local\Temp\cccuUyWy.s 			page 63


 1671              		.loc 1 808 0
 1672 070e 34E0     		b	.L31
 1673              	.L111:
 1674              		.align	2
 1675              	.L110:
 1676 0710 CA030000 		.word	970
 1677 0714 00000000 		.word	.LC16
 1678 0718 00000000 		.word	cy_ble_peerBonding
 1679 071c 00000000 		.word	.LANCHOR0
 1680 0720 00000000 		.word	cy_ble_connHandle
 1681 0724 00000000 		.word	cy_ble_connState
 1682 0728 00000000 		.word	cy_ble_pairStatus
 1683 072c 00000000 		.word	cy_ble_advState
 1684 0730 00000000 		.word	cy_ble_devConnRole
 1685 0734 00000000 		.word	cy_ble_state
 1686 0738 00000000 		.word	cy_ble_eventHandlerFlag
 1687 073c 00000000 		.word	cy_ble_configPtr
 1688 0740 00000000 		.word	cy_ble_advIndex
 1689 0744 00000000 		.word	cy_ble_advertisingIntervalType
 1690 0748 86030000 		.word	902
 1691 074c 00000000 		.word	cy_ble_busyStatus
 1692 0750 00000000 		.word	cy_ble_attValuesCccdMultiple
 1693 0754 90100000 		.word	4240
 1694 0758 00000000 		.word	Cy_BLE_ApplCallback
 1695 075c 04000100 		.word	65540
 1696              	.LVL173:
 1697              	.L59:
 809:Generated_Source\PSoC6\pdl\middleware\ble/cy_ble_event_handler.c **** 
 810:Generated_Source\PSoC6\pdl\middleware\ble/cy_ble_event_handler.c ****         case CY_BLE_EVT_GATTS_READ_CHAR_VAL_ACCESS_REQ:
 811:Generated_Source\PSoC6\pdl\middleware\ble/cy_ble_event_handler.c ****         #if (CY_BLE_GATT_DB_CCCD_COUNT != 0u)
 812:Generated_Source\PSoC6\pdl\middleware\ble/cy_ble_event_handler.c ****             (void)Cy_BLE_GATTS_ReadAttributeValueCCCDReqHandler((cy_stc_ble_gatts_char_val_read_req
 1698              		.loc 1 812 0
 1699 0760 2800     		movs	r0, r5
 1700              	.LVL174:
 1701 0762 FFF7FEFF 		bl	Cy_BLE_GATTS_ReadAttributeValueCCCDReqHandler
 1702              	.LVL175:
 813:Generated_Source\PSoC6\pdl\middleware\ble/cy_ble_event_handler.c ****         #endif  /* (CY_BLE_GATT_DB_CCCD_COUNT != 0u) */
 814:Generated_Source\PSoC6\pdl\middleware\ble/cy_ble_event_handler.c ****             (void)Cy_BLE_InvokeServiceEventHandler((uint32_t)event, (void*)evParam);
 1703              		.loc 1 814 0
 1704 0766 2900     		movs	r1, r5
 1705 0768 2000     		movs	r0, r4
 1706 076a FFF7FEFF 		bl	Cy_BLE_InvokeServiceEventHandler
 1707              	.LVL176:
 815:Generated_Source\PSoC6\pdl\middleware\ble/cy_ble_event_handler.c ****             break;
 1708              		.loc 1 815 0
 1709 076e 04E0     		b	.L31
 1710              	.LVL177:
 1711              	.L41:
 816:Generated_Source\PSoC6\pdl\middleware\ble/cy_ble_event_handler.c ****     #endif /* CY_BLE_GATT_ROLE_SERVER */
 817:Generated_Source\PSoC6\pdl\middleware\ble/cy_ble_event_handler.c **** 
 818:Generated_Source\PSoC6\pdl\middleware\ble/cy_ble_event_handler.c ****     #if (CY_BLE_GATT_ROLE_CLIENT)
 819:Generated_Source\PSoC6\pdl\middleware\ble/cy_ble_event_handler.c ****         case CY_BLE_EVT_GATTC_READ_BY_GROUP_TYPE_RSP:
 820:Generated_Source\PSoC6\pdl\middleware\ble/cy_ble_event_handler.c ****             Cy_BLE_ReadByGroupEventHandler((cy_stc_ble_gattc_read_by_grp_rsp_param_t*)evParam);
 821:Generated_Source\PSoC6\pdl\middleware\ble/cy_ble_event_handler.c ****             break;
 822:Generated_Source\PSoC6\pdl\middleware\ble/cy_ble_event_handler.c **** 
 823:Generated_Source\PSoC6\pdl\middleware\ble/cy_ble_event_handler.c ****         case CY_BLE_EVT_GATTC_READ_BY_TYPE_RSP:
 824:Generated_Source\PSoC6\pdl\middleware\ble/cy_ble_event_handler.c ****             Cy_BLE_ReadByTypeEventHandler((cy_stc_ble_gattc_read_by_type_rsp_param_t*)evParam);
ARM GAS  C:\Users\D4DE~1\AppData\Local\Temp\cccuUyWy.s 			page 64


 825:Generated_Source\PSoC6\pdl\middleware\ble/cy_ble_event_handler.c ****             break;
 826:Generated_Source\PSoC6\pdl\middleware\ble/cy_ble_event_handler.c **** 
 827:Generated_Source\PSoC6\pdl\middleware\ble/cy_ble_event_handler.c ****         case CY_BLE_EVT_GATTC_READ_BLOB_RSP:
 828:Generated_Source\PSoC6\pdl\middleware\ble/cy_ble_event_handler.c ****             (void)Cy_BLE_InvokeServiceEventHandler((uint32_t)event, (void*)evParam);
 829:Generated_Source\PSoC6\pdl\middleware\ble/cy_ble_event_handler.c ****             break;
 830:Generated_Source\PSoC6\pdl\middleware\ble/cy_ble_event_handler.c **** 
 831:Generated_Source\PSoC6\pdl\middleware\ble/cy_ble_event_handler.c ****         case CY_BLE_EVT_GATTC_LONG_PROCEDURE_END:
 832:Generated_Source\PSoC6\pdl\middleware\ble/cy_ble_event_handler.c ****             Cy_BLE_LongProcedureEndEventHandler(((cy_stc_ble_gattc_long_procedure_end_param_t*)evPa
 833:Generated_Source\PSoC6\pdl\middleware\ble/cy_ble_event_handler.c ****             break;
 834:Generated_Source\PSoC6\pdl\middleware\ble/cy_ble_event_handler.c **** 
 835:Generated_Source\PSoC6\pdl\middleware\ble/cy_ble_event_handler.c ****         case CY_BLE_EVT_GATTC_FIND_INFO_RSP:
 836:Generated_Source\PSoC6\pdl\middleware\ble/cy_ble_event_handler.c ****             Cy_BLE_FindInfoEventHandler((cy_stc_ble_gattc_find_info_rsp_param_t*)evParam);
 837:Generated_Source\PSoC6\pdl\middleware\ble/cy_ble_event_handler.c ****             break;
 838:Generated_Source\PSoC6\pdl\middleware\ble/cy_ble_event_handler.c **** 
 839:Generated_Source\PSoC6\pdl\middleware\ble/cy_ble_event_handler.c ****         case CY_BLE_EVT_GATTC_ERROR_RSP:
 840:Generated_Source\PSoC6\pdl\middleware\ble/cy_ble_event_handler.c ****             Cy_BLE_ErrorResponseEventHandler((cy_stc_ble_gatt_err_param_t*)evParam);
 841:Generated_Source\PSoC6\pdl\middleware\ble/cy_ble_event_handler.c ****             (void)Cy_BLE_InvokeServiceEventHandler((uint32_t)event, (void*)evParam);
 842:Generated_Source\PSoC6\pdl\middleware\ble/cy_ble_event_handler.c ****             break;
 843:Generated_Source\PSoC6\pdl\middleware\ble/cy_ble_event_handler.c **** 
 844:Generated_Source\PSoC6\pdl\middleware\ble/cy_ble_event_handler.c ****         case CY_BLE_EVT_GATTC_HANDLE_VALUE_NTF:
 845:Generated_Source\PSoC6\pdl\middleware\ble/cy_ble_event_handler.c ****             (void)Cy_BLE_InvokeServiceEventHandler((uint32_t)event, (void*)evParam);
 846:Generated_Source\PSoC6\pdl\middleware\ble/cy_ble_event_handler.c ****             break;
 847:Generated_Source\PSoC6\pdl\middleware\ble/cy_ble_event_handler.c **** 
 848:Generated_Source\PSoC6\pdl\middleware\ble/cy_ble_event_handler.c ****         case CY_BLE_EVT_GATTC_HANDLE_VALUE_IND:
 849:Generated_Source\PSoC6\pdl\middleware\ble/cy_ble_event_handler.c ****             Cy_BLE_GATTC_IndicationEventHandler((cy_stc_ble_gattc_handle_value_ind_param_t*)evParam
 850:Generated_Source\PSoC6\pdl\middleware\ble/cy_ble_event_handler.c ****             (void)Cy_BLE_InvokeServiceEventHandler((uint32_t)event, (void*)evParam);
 851:Generated_Source\PSoC6\pdl\middleware\ble/cy_ble_event_handler.c **** 
 852:Generated_Source\PSoC6\pdl\middleware\ble/cy_ble_event_handler.c ****             /* Respond with a Handle Value Confirmation when request handled */
 853:Generated_Source\PSoC6\pdl\middleware\ble/cy_ble_event_handler.c ****             if((cy_ble_eventHandlerFlag & CY_BLE_CALLBACK) == 0u)
 854:Generated_Source\PSoC6\pdl\middleware\ble/cy_ble_event_handler.c ****             {
 855:Generated_Source\PSoC6\pdl\middleware\ble/cy_ble_event_handler.c ****                 cy_stc_ble_gattc_confirmation_req_t confirmationParam;
 856:Generated_Source\PSoC6\pdl\middleware\ble/cy_ble_event_handler.c ****                 confirmationParam.connHandle = ((cy_stc_ble_gattc_handle_value_ind_param_t*)evParam
 857:Generated_Source\PSoC6\pdl\middleware\ble/cy_ble_event_handler.c **** 
 858:Generated_Source\PSoC6\pdl\middleware\ble/cy_ble_event_handler.c ****                 (void)Cy_BLE_GATTC_Confirmation(&confirmationParam);
 859:Generated_Source\PSoC6\pdl\middleware\ble/cy_ble_event_handler.c ****             }
 860:Generated_Source\PSoC6\pdl\middleware\ble/cy_ble_event_handler.c ****             break;
 861:Generated_Source\PSoC6\pdl\middleware\ble/cy_ble_event_handler.c **** 
 862:Generated_Source\PSoC6\pdl\middleware\ble/cy_ble_event_handler.c ****         case CY_BLE_EVT_GATTC_READ_RSP:
 863:Generated_Source\PSoC6\pdl\middleware\ble/cy_ble_event_handler.c ****             (void)Cy_BLE_InvokeServiceEventHandler((uint32_t)event, (void*)evParam);
 864:Generated_Source\PSoC6\pdl\middleware\ble/cy_ble_event_handler.c ****             break;
 865:Generated_Source\PSoC6\pdl\middleware\ble/cy_ble_event_handler.c **** 
 866:Generated_Source\PSoC6\pdl\middleware\ble/cy_ble_event_handler.c ****         case CY_BLE_EVT_GATTC_READ_MULTI_RSP:
 867:Generated_Source\PSoC6\pdl\middleware\ble/cy_ble_event_handler.c ****             (void)Cy_BLE_InvokeServiceEventHandler((uint32_t)event, (void*)evParam);
 868:Generated_Source\PSoC6\pdl\middleware\ble/cy_ble_event_handler.c ****             break;
 869:Generated_Source\PSoC6\pdl\middleware\ble/cy_ble_event_handler.c **** 
 870:Generated_Source\PSoC6\pdl\middleware\ble/cy_ble_event_handler.c ****         case CY_BLE_EVT_GATTC_WRITE_RSP:
 871:Generated_Source\PSoC6\pdl\middleware\ble/cy_ble_event_handler.c ****             (void)Cy_BLE_InvokeServiceEventHandler((uint32_t)event, (void*)evParam);
 872:Generated_Source\PSoC6\pdl\middleware\ble/cy_ble_event_handler.c ****             break;
 873:Generated_Source\PSoC6\pdl\middleware\ble/cy_ble_event_handler.c **** 
 874:Generated_Source\PSoC6\pdl\middleware\ble/cy_ble_event_handler.c ****         case CY_BLE_EVT_GATTC_EXEC_WRITE_RSP:
 875:Generated_Source\PSoC6\pdl\middleware\ble/cy_ble_event_handler.c ****             (void)Cy_BLE_InvokeServiceEventHandler((uint32_t)event, (void*)evParam);
 876:Generated_Source\PSoC6\pdl\middleware\ble/cy_ble_event_handler.c ****             break;
 877:Generated_Source\PSoC6\pdl\middleware\ble/cy_ble_event_handler.c ****             
 878:Generated_Source\PSoC6\pdl\middleware\ble/cy_ble_event_handler.c ****         case CY_BLE_EVT_GATTC_STOP_CMD_COMPLETE:
 879:Generated_Source\PSoC6\pdl\middleware\ble/cy_ble_event_handler.c ****             {
 880:Generated_Source\PSoC6\pdl\middleware\ble/cy_ble_event_handler.c ****                 uint32_t discIdx = Cy_BLE_GetDiscoveryIdx(*(cy_stc_ble_conn_handle_t *)evParam);
 881:Generated_Source\PSoC6\pdl\middleware\ble/cy_ble_event_handler.c ****                 if( (Cy_BLE_GetConnectionState(*(cy_stc_ble_conn_handle_t *)evParam) == CY_BLE_CONN
ARM GAS  C:\Users\D4DE~1\AppData\Local\Temp\cccuUyWy.s 			page 65


 882:Generated_Source\PSoC6\pdl\middleware\ble/cy_ble_event_handler.c ****                     (discIdx < CY_BLE_GATTC_COUNT) && (cy_ble_discovery[discIdx].autoDiscoveryFlag 
 883:Generated_Source\PSoC6\pdl\middleware\ble/cy_ble_event_handler.c ****                 {    
 884:Generated_Source\PSoC6\pdl\middleware\ble/cy_ble_event_handler.c ****                     
 885:Generated_Source\PSoC6\pdl\middleware\ble/cy_ble_event_handler.c ****                     cy_stc_ble_gattc_read_req_t readReqParam =
 886:Generated_Source\PSoC6\pdl\middleware\ble/cy_ble_event_handler.c ****                     {
 887:Generated_Source\PSoC6\pdl\middleware\ble/cy_ble_event_handler.c ****                         .attrHandle = cy_ble_discovery[discIdx].inclInfo.inclHandleRange.startHandl
 888:Generated_Source\PSoC6\pdl\middleware\ble/cy_ble_event_handler.c ****                         .connHandle = *(cy_stc_ble_conn_handle_t *)evParam
 889:Generated_Source\PSoC6\pdl\middleware\ble/cy_ble_event_handler.c ****                     };
 890:Generated_Source\PSoC6\pdl\middleware\ble/cy_ble_event_handler.c ****                     
 891:Generated_Source\PSoC6\pdl\middleware\ble/cy_ble_event_handler.c ****                     /* Get the included service UUID when the included service uses a 128-bit
 892:Generated_Source\PSoC6\pdl\middleware\ble/cy_ble_event_handler.c ****                      * UUID, a Read Request is used. The Attribute Handle for the Read Request is
 893:Generated_Source\PSoC6\pdl\middleware\ble/cy_ble_event_handler.c ****                      * the Attribute Handle of the included service.
 894:Generated_Source\PSoC6\pdl\middleware\ble/cy_ble_event_handler.c ****                      */
 895:Generated_Source\PSoC6\pdl\middleware\ble/cy_ble_event_handler.c **** 
 896:Generated_Source\PSoC6\pdl\middleware\ble/cy_ble_event_handler.c ****                     if(Cy_BLE_GATTC_ReadCharacteristicValue(&readReqParam) != CY_BLE_SUCCESS)
 897:Generated_Source\PSoC6\pdl\middleware\ble/cy_ble_event_handler.c ****                     {
 898:Generated_Source\PSoC6\pdl\middleware\ble/cy_ble_event_handler.c ****                         Cy_BLE_ApplCallback((uint32_t)CY_BLE_EVT_GATTC_INCL_DISCOVERY_FAILED, (cy_s
 899:Generated_Source\PSoC6\pdl\middleware\ble/cy_ble_event_handler.c ****                         cy_ble_discovery[discIdx].autoDiscoveryFlag = 0u;
 900:Generated_Source\PSoC6\pdl\middleware\ble/cy_ble_event_handler.c ****                     }
 901:Generated_Source\PSoC6\pdl\middleware\ble/cy_ble_event_handler.c ****                     
 902:Generated_Source\PSoC6\pdl\middleware\ble/cy_ble_event_handler.c ****                     cy_ble_eventHandlerFlag &= (uint8_t) ~CY_BLE_CALLBACK;
 903:Generated_Source\PSoC6\pdl\middleware\ble/cy_ble_event_handler.c ****                 }
 904:Generated_Source\PSoC6\pdl\middleware\ble/cy_ble_event_handler.c ****             }     
 905:Generated_Source\PSoC6\pdl\middleware\ble/cy_ble_event_handler.c ****             break;
 906:Generated_Source\PSoC6\pdl\middleware\ble/cy_ble_event_handler.c ****     #endif /* CY_BLE_GATT_ROLE_CLIENT */
 907:Generated_Source\PSoC6\pdl\middleware\ble/cy_ble_event_handler.c **** 
 908:Generated_Source\PSoC6\pdl\middleware\ble/cy_ble_event_handler.c ****     #if ((CY_BLE_GAP_ROLE_PERIPHERAL || CY_BLE_GAP_ROLE_CENTRAL) && (CY_BLE_BONDING_REQUIREMENT == 
 909:Generated_Source\PSoC6\pdl\middleware\ble/cy_ble_event_handler.c ****         case CY_BLE_EVT_PENDING_FLASH_WRITE:
 910:Generated_Source\PSoC6\pdl\middleware\ble/cy_ble_event_handler.c ****             cy_ble_pendingFlashWrite |= CY_BLE_PENDING_STACK_FLASH_WRITE_BIT;
 1712              		.loc 1 910 0
 1713 0770 0B4A     		ldr	r2, .L112
 1714 0772 1178     		ldrb	r1, [r2]
 1715 0774 0123     		movs	r3, #1
 1716 0776 0B43     		orrs	r3, r1
 1717 0778 1370     		strb	r3, [r2]
 1718              	.LVL178:
 1719              	.L31:
 911:Generated_Source\PSoC6\pdl\middleware\ble/cy_ble_event_handler.c ****             break;
 912:Generated_Source\PSoC6\pdl\middleware\ble/cy_ble_event_handler.c ****     #endif  /* (CY_BLE_BONDING_REQUIREMENT == CY_BLE_BONDING_YES) */
 913:Generated_Source\PSoC6\pdl\middleware\ble/cy_ble_event_handler.c **** 
 914:Generated_Source\PSoC6\pdl\middleware\ble/cy_ble_event_handler.c ****         default:
 915:Generated_Source\PSoC6\pdl\middleware\ble/cy_ble_event_handler.c ****             break;
 916:Generated_Source\PSoC6\pdl\middleware\ble/cy_ble_event_handler.c ****     }
 917:Generated_Source\PSoC6\pdl\middleware\ble/cy_ble_event_handler.c **** 
 918:Generated_Source\PSoC6\pdl\middleware\ble/cy_ble_event_handler.c ****     if((cy_ble_eventHandlerFlag & (CY_BLE_CALLBACK | CY_BLE_ENABLE_ALL_EVENTS)) != 0u)
 1720              		.loc 1 918 0
 1721 077a 0A4B     		ldr	r3, .L112+4
 1722 077c 1A78     		ldrb	r2, [r3]
 1723 077e 1123     		movs	r3, #17
 1724 0780 1A42     		tst	r2, r3
 1725 0782 09D0     		beq	.L30
 919:Generated_Source\PSoC6\pdl\middleware\ble/cy_ble_event_handler.c ****     {
 920:Generated_Source\PSoC6\pdl\middleware\ble/cy_ble_event_handler.c ****         cy_ble_eventHandlerFlag &= (uint8_t) ~CY_BLE_CALLBACK;
 1726              		.loc 1 920 0
 1727 0784 074A     		ldr	r2, .L112+4
 1728 0786 1378     		ldrb	r3, [r2]
 1729 0788 0121     		movs	r1, #1
ARM GAS  C:\Users\D4DE~1\AppData\Local\Temp\cccuUyWy.s 			page 66


 1730 078a 8B43     		bics	r3, r1
 1731 078c 1370     		strb	r3, [r2]
 921:Generated_Source\PSoC6\pdl\middleware\ble/cy_ble_event_handler.c ****         Cy_BLE_ApplCallback((uint32_t)event, evParam);
 1732              		.loc 1 921 0
 1733 078e 064B     		ldr	r3, .L112+8
 1734 0790 1B68     		ldr	r3, [r3]
 1735 0792 2900     		movs	r1, r5
 1736 0794 2000     		movs	r0, r4
 1737 0796 9847     		blx	r3
 1738              	.LVL179:
 1739              	.L30:
 922:Generated_Source\PSoC6\pdl\middleware\ble/cy_ble_event_handler.c ****     }
 923:Generated_Source\PSoC6\pdl\middleware\ble/cy_ble_event_handler.c **** }
 1740              		.loc 1 923 0
 1741 0798 0CB0     		add	sp, sp, #48
 1742              		@ sp needed
 1743              	.LVL180:
 1744 079a 04BC     		pop	{r2}
 1745 079c 9046     		mov	r8, r2
 1746 079e F0BD     		pop	{r4, r5, r6, r7, pc}
 1747              	.L113:
 1748              		.align	2
 1749              	.L112:
 1750 07a0 00000000 		.word	cy_ble_pendingFlashWrite
 1751 07a4 00000000 		.word	cy_ble_eventHandlerFlag
 1752 07a8 00000000 		.word	Cy_BLE_ApplCallback
 1753              		.cfi_endproc
 1754              	.LFE173:
 1755              		.size	Cy_BLE_EventHandler, .-Cy_BLE_EventHandler
 1756              		.comm	cy_ble_eventHandler,8,4
 1757              		.comm	cy_ble_advertisingIntervalType,1,1
 1758              		.comm	cy_ble_cmdStatus,4,4
 1759              		.comm	cy_ble_eventHandlerFlag,1,1
 1760              		.comm	cy_ble_busyStatus,2,4
 1761              		.section	.rodata
 1762              		.align	2
 1763              		.set	.LANCHOR0,. + 0
 1764              	.LC0:
 1765 0000 3F       		.byte	63
 1766 0001 06       		.byte	6
 1767 0002 00       		.byte	0
 1768 0003 00       		.byte	0
 1769 0004 00       		.byte	0
 1770 0005 00       		.byte	0
 1771 0006 00       		.byte	0
 1772 0007 00       		.byte	0
 1773              	.LC1:
 1774 0008 FF       		.byte	-1
 1775 0009 FF       		.byte	-1
 1776              		.section	.rodata.str1.4,"aMS",%progbits,1
 1777              		.align	2
 1778              	.LC16:
 1779 0000 47656E65 		.ascii	"Generated_Source\\PSoC6\\pdl\\middleware\\ble\\cy_b"
 1779      72617465 
 1779      645F536F 
 1779      75726365 
 1779      5C50536F 
ARM GAS  C:\Users\D4DE~1\AppData\Local\Temp\cccuUyWy.s 			page 67


 1780 002e 6C655F67 		.ascii	"le_gap.h\000"
 1780      61702E68 
 1780      00
 1781              		.bss
 1782              		.align	2
 1783              		.set	.LANCHOR1,. + 0
 1784              		.type	gPrepWriteReqMem.13613, %object
 1785              		.size	gPrepWriteReqMem.13613, 12
 1786              	gPrepWriteReqMem.13613:
 1787 0000 00000000 		.space	12
 1787      00000000 
 1787      00000000 
 1788              		.text
 1789              	.Letext0:
 1790              		.file 3 "c:\\program files (x86)\\cypress\\psoc creator\\4.4\\psoc creator\\import\\gnu\\arm\\5.4.
 1791              		.file 4 "c:\\program files (x86)\\cypress\\psoc creator\\4.4\\psoc creator\\import\\gnu\\arm\\5.4.
 1792              		.file 5 "Generated_Source\\PSoC6\\pdl\\devices/psoc6/include/ip/cyip_sflash.h"
 1793              		.file 6 "Generated_Source\\PSoC6\\pdl\\drivers/peripheral/device/cy_device.h"
 1794              		.file 7 "Generated_Source\\PSoC6\\pdl\\devices/psoc6/include/cyble_416045_02.h"
 1795              		.file 8 "Generated_Source\\PSoC6\\pdl\\devices/psoc6/include/psoc6_01_config.h"
 1796              		.file 9 "Generated_Source\\PSoC6\\pdl\\drivers/peripheral/syslib/cy_syslib.h"
 1797              		.file 10 "Generated_Source\\PSoC6\\pdl\\drivers/peripheral/sysint/cy_sysint.h"
 1798              		.file 11 "Generated_Source\\PSoC6\\pdl\\middleware\\ble\\cy_ble_stack.h"
 1799              		.file 12 "Generated_Source\\PSoC6\\pdl\\middleware\\ble\\cy_ble_stack_host_main.h"
 1800              		.file 13 "Generated_Source\\PSoC6\\pdl\\middleware\\ble\\cy_ble_stack_gatt.h"
 1801              		.file 14 "Generated_Source\\PSoC6\\pdl\\middleware\\ble\\cy_ble_stack_gap.h"
 1802              		.file 15 "Generated_Source\\PSoC6\\pdl\\middleware\\ble\\cy_ble_stack_gap_central.h"
 1803              		.file 16 "Generated_Source\\PSoC6\\pdl\\middleware\\ble\\cy_ble_stack_gap_peripheral.h"
 1804              		.file 17 "Generated_Source\\PSoC6\\pdl\\middleware\\ble\\cy_ble_stack_gatt_server.h"
 1805              		.file 18 "Generated_Source\\PSoC6\\pdl\\middleware\\ble\\cy_ble_stack_gatt_db.h"
 1806              		.file 19 "Generated_Source\\PSoC6\\pdl\\middleware\\ble\\cy_ble_gatt.h"
 1807              		.file 20 "Generated_Source\\PSoC6\\pdl\\middleware\\ble\\cy_ble_stack_l2cap.h"
 1808              		.file 21 "Generated_Source\\PSoC6\\pdl\\middleware\\ble\\cy_ble.h"
 1809              		.file 22 "Generated_Source\\PSoC6\\pdl\\middleware\\ble\\cy_ble_event_handler.h"
 1810              		.file 23 "Generated_Source\\PSoC6\\pdl\\middleware\\ble\\cy_ble_hal_pvt.h"
 1811              		.section	.debug_info,"",%progbits
 1812              	.Ldebug_info0:
 1813 0000 76400000 		.4byte	0x4076
 1814 0004 0400     		.2byte	0x4
 1815 0006 00000000 		.4byte	.Ldebug_abbrev0
 1816 000a 04       		.byte	0x4
 1817 000b 01       		.uleb128 0x1
 1818 000c 88530000 		.4byte	.LASF1263
 1819 0010 0C       		.byte	0xc
 1820 0011 A56B0000 		.4byte	.LASF1264
 1821 0015 44620000 		.4byte	.LASF1265
 1822 0019 18000000 		.4byte	.Ldebug_ranges0+0x18
 1823 001d 00000000 		.4byte	0
 1824 0021 00000000 		.4byte	.Ldebug_line0
 1825 0025 02       		.uleb128 0x2
 1826 0026 04       		.byte	0x4
 1827 0027 05       		.byte	0x5
 1828 0028 696E7400 		.ascii	"int\000"
 1829 002c 03       		.uleb128 0x3
 1830 002d 04       		.byte	0x4
 1831 002e 07       		.byte	0x7
 1832 002f 6C810000 		.4byte	.LASF0
ARM GAS  C:\Users\D4DE~1\AppData\Local\Temp\cccuUyWy.s 			page 68


 1833 0033 03       		.uleb128 0x3
 1834 0034 08       		.byte	0x8
 1835 0035 05       		.byte	0x5
 1836 0036 34000000 		.4byte	.LASF1
 1837 003a 03       		.uleb128 0x3
 1838 003b 08       		.byte	0x8
 1839 003c 04       		.byte	0x4
 1840 003d 0C0C0000 		.4byte	.LASF2
 1841 0041 03       		.uleb128 0x3
 1842 0042 01       		.byte	0x1
 1843 0043 06       		.byte	0x6
 1844 0044 CE670000 		.4byte	.LASF3
 1845 0048 04       		.uleb128 0x4
 1846 0049 C81B0000 		.4byte	.LASF5
 1847 004d 03       		.byte	0x3
 1848 004e 1D       		.byte	0x1d
 1849 004f 53000000 		.4byte	0x53
 1850 0053 03       		.uleb128 0x3
 1851 0054 01       		.byte	0x1
 1852 0055 08       		.byte	0x8
 1853 0056 2B430000 		.4byte	.LASF4
 1854 005a 04       		.uleb128 0x4
 1855 005b A93D0000 		.4byte	.LASF6
 1856 005f 03       		.byte	0x3
 1857 0060 29       		.byte	0x29
 1858 0061 65000000 		.4byte	0x65
 1859 0065 03       		.uleb128 0x3
 1860 0066 02       		.byte	0x2
 1861 0067 05       		.byte	0x5
 1862 0068 96590000 		.4byte	.LASF7
 1863 006c 04       		.uleb128 0x4
 1864 006d 932B0000 		.4byte	.LASF8
 1865 0071 03       		.byte	0x3
 1866 0072 2B       		.byte	0x2b
 1867 0073 77000000 		.4byte	0x77
 1868 0077 03       		.uleb128 0x3
 1869 0078 02       		.byte	0x2
 1870 0079 07       		.byte	0x7
 1871 007a 703C0000 		.4byte	.LASF9
 1872 007e 03       		.uleb128 0x3
 1873 007f 04       		.byte	0x4
 1874 0080 05       		.byte	0x5
 1875 0081 3F5E0000 		.4byte	.LASF10
 1876 0085 04       		.uleb128 0x4
 1877 0086 A44C0000 		.4byte	.LASF11
 1878 008a 03       		.byte	0x3
 1879 008b 41       		.byte	0x41
 1880 008c 90000000 		.4byte	0x90
 1881 0090 03       		.uleb128 0x3
 1882 0091 04       		.byte	0x4
 1883 0092 07       		.byte	0x7
 1884 0093 B8010000 		.4byte	.LASF12
 1885 0097 03       		.uleb128 0x3
 1886 0098 08       		.byte	0x8
 1887 0099 07       		.byte	0x7
 1888 009a 866D0000 		.4byte	.LASF13
 1889 009e 03       		.uleb128 0x3
ARM GAS  C:\Users\D4DE~1\AppData\Local\Temp\cccuUyWy.s 			page 69


 1890 009f 04       		.byte	0x4
 1891 00a0 07       		.byte	0x7
 1892 00a1 00610000 		.4byte	.LASF14
 1893 00a5 05       		.uleb128 0x5
 1894 00a6 04       		.byte	0x4
 1895 00a7 03       		.uleb128 0x3
 1896 00a8 01       		.byte	0x1
 1897 00a9 08       		.byte	0x8
 1898 00aa 19730000 		.4byte	.LASF15
 1899 00ae 04       		.uleb128 0x4
 1900 00af EB3F0000 		.4byte	.LASF16
 1901 00b3 04       		.byte	0x4
 1902 00b4 18       		.byte	0x18
 1903 00b5 48000000 		.4byte	0x48
 1904 00b9 04       		.uleb128 0x4
 1905 00ba 44610000 		.4byte	.LASF17
 1906 00be 04       		.byte	0x4
 1907 00bf 20       		.byte	0x20
 1908 00c0 5A000000 		.4byte	0x5a
 1909 00c4 04       		.uleb128 0x4
 1910 00c5 956C0000 		.4byte	.LASF18
 1911 00c9 04       		.byte	0x4
 1912 00ca 24       		.byte	0x24
 1913 00cb 6C000000 		.4byte	0x6c
 1914 00cf 04       		.uleb128 0x4
 1915 00d0 550A0000 		.4byte	.LASF19
 1916 00d4 04       		.byte	0x4
 1917 00d5 30       		.byte	0x30
 1918 00d6 85000000 		.4byte	0x85
 1919 00da 06       		.uleb128 0x6
 1920 00db CF000000 		.4byte	0xcf
 1921 00df 07       		.uleb128 0x7
 1922 00e0 DA000000 		.4byte	0xda
 1923 00e4 08       		.uleb128 0x8
 1924 00e5 DA000000 		.4byte	0xda
 1925 00e9 F4000000 		.4byte	0xf4
 1926 00ed 09       		.uleb128 0x9
 1927 00ee 9E000000 		.4byte	0x9e
 1928 00f2 0F       		.byte	0xf
 1929 00f3 00       		.byte	0
 1930 00f4 08       		.uleb128 0x8
 1931 00f5 DF000000 		.4byte	0xdf
 1932 00f9 04010000 		.4byte	0x104
 1933 00fd 09       		.uleb128 0x9
 1934 00fe 9E000000 		.4byte	0x9e
 1935 0102 06       		.byte	0x6
 1936 0103 00       		.byte	0
 1937 0104 08       		.uleb128 0x8
 1938 0105 DF000000 		.4byte	0xdf
 1939 0109 14010000 		.4byte	0x114
 1940 010d 09       		.uleb128 0x9
 1941 010e 9E000000 		.4byte	0x9e
 1942 0112 07       		.byte	0x7
 1943 0113 00       		.byte	0
 1944 0114 08       		.uleb128 0x8
 1945 0115 DF000000 		.4byte	0xdf
 1946 0119 24010000 		.4byte	0x124
ARM GAS  C:\Users\D4DE~1\AppData\Local\Temp\cccuUyWy.s 			page 70


 1947 011d 09       		.uleb128 0x9
 1948 011e 9E000000 		.4byte	0x9e
 1949 0122 01       		.byte	0x1
 1950 0123 00       		.byte	0
 1951 0124 0A       		.uleb128 0xa
 1952 0125 0080     		.2byte	0x8000
 1953 0127 05       		.byte	0x5
 1954 0128 21       		.byte	0x21
 1955 0129 0A070000 		.4byte	0x70a
 1956 012d 0B       		.uleb128 0xb
 1957 012e 585A0000 		.4byte	.LASF20
 1958 0132 05       		.byte	0x5
 1959 0133 22       		.byte	0x22
 1960 0134 0F070000 		.4byte	0x70f
 1961 0138 00       		.byte	0
 1962 0139 0B       		.uleb128 0xb
 1963 013a AC310000 		.4byte	.LASF21
 1964 013e 05       		.byte	0x5
 1965 013f 23       		.byte	0x23
 1966 0140 0A070000 		.4byte	0x70a
 1967 0144 01       		.byte	0x1
 1968 0145 0B       		.uleb128 0xb
 1969 0146 30320000 		.4byte	.LASF22
 1970 014a 05       		.byte	0x5
 1971 014b 24       		.byte	0x24
 1972 014c 14070000 		.4byte	0x714
 1973 0150 02       		.byte	0x2
 1974 0151 0B       		.uleb128 0xb
 1975 0152 403D0000 		.4byte	.LASF23
 1976 0156 05       		.byte	0x5
 1977 0157 25       		.byte	0x25
 1978 0158 1E070000 		.4byte	0x71e
 1979 015c 04       		.byte	0x4
 1980 015d 0B       		.uleb128 0xb
 1981 015e FA620000 		.4byte	.LASF24
 1982 0162 05       		.byte	0x5
 1983 0163 26       		.byte	0x26
 1984 0164 14070000 		.4byte	0x714
 1985 0168 0C       		.byte	0xc
 1986 0169 0B       		.uleb128 0xb
 1987 016a 4A3D0000 		.4byte	.LASF25
 1988 016e 05       		.byte	0x5
 1989 016f 27       		.byte	0x27
 1990 0170 3D070000 		.4byte	0x73d
 1991 0174 0E       		.byte	0xe
 1992 0175 0B       		.uleb128 0xb
 1993 0176 A2780000 		.4byte	.LASF26
 1994 017a 05       		.byte	0x5
 1995 017b 28       		.byte	0x28
 1996 017c DA000000 		.4byte	0xda
 1997 0180 14       		.byte	0x14
 1998 0181 0B       		.uleb128 0xb
 1999 0182 543D0000 		.4byte	.LASF27
 2000 0186 05       		.byte	0x5
 2001 0187 29       		.byte	0x29
 2002 0188 58070000 		.4byte	0x758
 2003 018c 18       		.byte	0x18
ARM GAS  C:\Users\D4DE~1\AppData\Local\Temp\cccuUyWy.s 			page 71


 2004 018d 0C       		.uleb128 0xc
 2005 018e AA0D0000 		.4byte	.LASF28
 2006 0192 05       		.byte	0x5
 2007 0193 2A       		.byte	0x2a
 2008 0194 6D070000 		.4byte	0x76d
 2009 0198 0006     		.2byte	0x600
 2010 019a 0C       		.uleb128 0xc
 2011 019b 56350000 		.4byte	.LASF29
 2012 019f 05       		.byte	0x5
 2013 01a0 2B       		.byte	0x2b
 2014 01a1 0A070000 		.4byte	0x70a
 2015 01a5 0306     		.2byte	0x603
 2016 01a7 0C       		.uleb128 0xc
 2017 01a8 5F090000 		.4byte	.LASF30
 2018 01ac 05       		.byte	0x5
 2019 01ad 2C       		.byte	0x2c
 2020 01ae 0A070000 		.4byte	0x70a
 2021 01b2 0406     		.2byte	0x604
 2022 01b4 0C       		.uleb128 0xc
 2023 01b5 65090000 		.4byte	.LASF31
 2024 01b9 05       		.byte	0x5
 2025 01ba 2D       		.byte	0x2d
 2026 01bb 0A070000 		.4byte	0x70a
 2027 01bf 0506     		.2byte	0x605
 2028 01c1 0C       		.uleb128 0xc
 2029 01c2 AC0E0000 		.4byte	.LASF32
 2030 01c6 05       		.byte	0x5
 2031 01c7 2E       		.byte	0x2e
 2032 01c8 0A070000 		.4byte	0x70a
 2033 01cc 0606     		.2byte	0x606
 2034 01ce 0C       		.uleb128 0xc
 2035 01cf AF0A0000 		.4byte	.LASF33
 2036 01d3 05       		.byte	0x5
 2037 01d4 2F       		.byte	0x2f
 2038 01d5 0A070000 		.4byte	0x70a
 2039 01d9 0706     		.2byte	0x607
 2040 01db 0C       		.uleb128 0xc
 2041 01dc E7500000 		.4byte	.LASF34
 2042 01e0 05       		.byte	0x5
 2043 01e1 30       		.byte	0x30
 2044 01e2 0A070000 		.4byte	0x70a
 2045 01e6 0806     		.2byte	0x608
 2046 01e8 0C       		.uleb128 0xc
 2047 01e9 90380000 		.4byte	.LASF35
 2048 01ed 05       		.byte	0x5
 2049 01ee 31       		.byte	0x31
 2050 01ef 0A070000 		.4byte	0x70a
 2051 01f3 0906     		.2byte	0x609
 2052 01f5 0C       		.uleb128 0xc
 2053 01f6 9C670000 		.4byte	.LASF36
 2054 01fa 05       		.byte	0x5
 2055 01fb 32       		.byte	0x32
 2056 01fc 0A070000 		.4byte	0x70a
 2057 0200 0A06     		.2byte	0x60a
 2058 0202 0C       		.uleb128 0xc
 2059 0203 5E3D0000 		.4byte	.LASF37
 2060 0207 05       		.byte	0x5
ARM GAS  C:\Users\D4DE~1\AppData\Local\Temp\cccuUyWy.s 			page 72


 2061 0208 33       		.byte	0x33
 2062 0209 87070000 		.4byte	0x787
 2063 020d 0B06     		.2byte	0x60b
 2064 020f 0C       		.uleb128 0xc
 2065 0210 9C150000 		.4byte	.LASF38
 2066 0214 05       		.byte	0x5
 2067 0215 34       		.byte	0x34
 2068 0216 14070000 		.4byte	0x714
 2069 021a 4806     		.2byte	0x648
 2070 021c 0C       		.uleb128 0xc
 2071 021d EA4F0000 		.4byte	.LASF39
 2072 0221 05       		.byte	0x5
 2073 0222 35       		.byte	0x35
 2074 0223 14070000 		.4byte	0x714
 2075 0227 4A06     		.2byte	0x64a
 2076 0229 0C       		.uleb128 0xc
 2077 022a 683D0000 		.4byte	.LASF40
 2078 022e 05       		.byte	0x5
 2079 022f 36       		.byte	0x36
 2080 0230 91070000 		.4byte	0x791
 2081 0234 4C06     		.2byte	0x64c
 2082 0236 0C       		.uleb128 0xc
 2083 0237 46210000 		.4byte	.LASF41
 2084 023b 05       		.byte	0x5
 2085 023c 37       		.byte	0x37
 2086 023d DA000000 		.4byte	0xda
 2087 0241 6C06     		.2byte	0x66c
 2088 0243 0C       		.uleb128 0xc
 2089 0244 723D0000 		.4byte	.LASF42
 2090 0248 05       		.byte	0x5
 2091 0249 38       		.byte	0x38
 2092 024a AB070000 		.4byte	0x7ab
 2093 024e 7006     		.2byte	0x670
 2094 0250 0C       		.uleb128 0xc
 2095 0251 194E0000 		.4byte	.LASF43
 2096 0255 05       		.byte	0x5
 2097 0256 39       		.byte	0x39
 2098 0257 0A070000 		.4byte	0x70a
 2099 025b 4007     		.2byte	0x740
 2100 025d 0C       		.uleb128 0xc
 2101 025e 165A0000 		.4byte	.LASF44
 2102 0262 05       		.byte	0x5
 2103 0263 3A       		.byte	0x3a
 2104 0264 0A070000 		.4byte	0x70a
 2105 0268 4107     		.2byte	0x741
 2106 026a 0C       		.uleb128 0xc
 2107 026b 7C3D0000 		.4byte	.LASF45
 2108 026f 05       		.byte	0x5
 2109 0270 3B       		.byte	0x3b
 2110 0271 C5070000 		.4byte	0x7c5
 2111 0275 4207     		.2byte	0x742
 2112 0277 0C       		.uleb128 0xc
 2113 0278 09610000 		.4byte	.LASF46
 2114 027c 05       		.byte	0x5
 2115 027d 3C       		.byte	0x3c
 2116 027e DA070000 		.4byte	0x7da
 2117 0282 0008     		.2byte	0x800
ARM GAS  C:\Users\D4DE~1\AppData\Local\Temp\cccuUyWy.s 			page 73


 2118 0284 0C       		.uleb128 0xc
 2119 0285 CF090000 		.4byte	.LASF47
 2120 0289 05       		.byte	0x5
 2121 028a 3D       		.byte	0x3d
 2122 028b DF070000 		.4byte	0x7df
 2123 028f 000A     		.2byte	0xa00
 2124 0291 0C       		.uleb128 0xc
 2125 0292 DE090000 		.4byte	.LASF48
 2126 0296 05       		.byte	0x5
 2127 0297 3E       		.byte	0x3e
 2128 0298 E4070000 		.4byte	0x7e4
 2129 029c 000C     		.2byte	0xc00
 2130 029e 0C       		.uleb128 0xc
 2131 029f ED090000 		.4byte	.LASF49
 2132 02a3 05       		.byte	0x5
 2133 02a4 3F       		.byte	0x3f
 2134 02a5 E9070000 		.4byte	0x7e9
 2135 02a9 000E     		.2byte	0xe00
 2136 02ab 0C       		.uleb128 0xc
 2137 02ac 863D0000 		.4byte	.LASF50
 2138 02b0 05       		.byte	0x5
 2139 02b1 40       		.byte	0x40
 2140 02b2 04080000 		.4byte	0x804
 2141 02b6 0010     		.2byte	0x1000
 2142 02b8 0C       		.uleb128 0xc
 2143 02b9 08320000 		.4byte	.LASF51
 2144 02bd 05       		.byte	0x5
 2145 02be 41       		.byte	0x41
 2146 02bf 19080000 		.4byte	0x819
 2147 02c3 B814     		.2byte	0x14b8
 2148 02c5 0C       		.uleb128 0xc
 2149 02c6 355C0000 		.4byte	.LASF52
 2150 02ca 05       		.byte	0x5
 2151 02cb 42       		.byte	0x42
 2152 02cc 1E080000 		.4byte	0x81e
 2153 02d0 C814     		.2byte	0x14c8
 2154 02d2 0C       		.uleb128 0xc
 2155 02d3 DC380000 		.4byte	.LASF53
 2156 02d7 05       		.byte	0x5
 2157 02d8 43       		.byte	0x43
 2158 02d9 23080000 		.4byte	0x823
 2159 02dd D814     		.2byte	0x14d8
 2160 02df 0C       		.uleb128 0xc
 2161 02e0 642D0000 		.4byte	.LASF54
 2162 02e4 05       		.byte	0x5
 2163 02e5 44       		.byte	0x44
 2164 02e6 28080000 		.4byte	0x828
 2165 02ea 1815     		.2byte	0x1518
 2166 02ec 0C       		.uleb128 0xc
 2167 02ed F15B0000 		.4byte	.LASF55
 2168 02f1 05       		.byte	0x5
 2169 02f2 45       		.byte	0x45
 2170 02f3 2D080000 		.4byte	0x82d
 2171 02f7 5815     		.2byte	0x1558
 2172 02f9 0C       		.uleb128 0xc
 2173 02fa 1C230000 		.4byte	.LASF56
 2174 02fe 05       		.byte	0x5
ARM GAS  C:\Users\D4DE~1\AppData\Local\Temp\cccuUyWy.s 			page 74


 2175 02ff 46       		.byte	0x46
 2176 0300 32080000 		.4byte	0x832
 2177 0304 9815     		.2byte	0x1598
 2178 0306 0C       		.uleb128 0xc
 2179 0307 62110000 		.4byte	.LASF57
 2180 030b 05       		.byte	0x5
 2181 030c 47       		.byte	0x47
 2182 030d 37080000 		.4byte	0x837
 2183 0311 D815     		.2byte	0x15d8
 2184 0313 0C       		.uleb128 0xc
 2185 0314 903D0000 		.4byte	.LASF58
 2186 0318 05       		.byte	0x5
 2187 0319 48       		.byte	0x48
 2188 031a 51080000 		.4byte	0x851
 2189 031e 1816     		.2byte	0x1618
 2190 0320 0C       		.uleb128 0xc
 2191 0321 274E0000 		.4byte	.LASF59
 2192 0325 05       		.byte	0x5
 2193 0326 49       		.byte	0x49
 2194 0327 14070000 		.4byte	0x714
 2195 032b 0018     		.2byte	0x1800
 2196 032d 0C       		.uleb128 0xc
 2197 032e A5020000 		.4byte	.LASF60
 2198 0332 05       		.byte	0x5
 2199 0333 4A       		.byte	0x4a
 2200 0334 33070000 		.4byte	0x733
 2201 0338 0218     		.2byte	0x1802
 2202 033a 0C       		.uleb128 0xc
 2203 033b 66450000 		.4byte	.LASF61
 2204 033f 05       		.byte	0x5
 2205 0340 4B       		.byte	0x4b
 2206 0341 DA000000 		.4byte	0xda
 2207 0345 0418     		.2byte	0x1804
 2208 0347 0C       		.uleb128 0xc
 2209 0348 7B450000 		.4byte	.LASF62
 2210 034c 05       		.byte	0x5
 2211 034d 4C       		.byte	0x4c
 2212 034e DA000000 		.4byte	0xda
 2213 0352 0818     		.2byte	0x1808
 2214 0354 0C       		.uleb128 0xc
 2215 0355 90450000 		.4byte	.LASF63
 2216 0359 05       		.byte	0x5
 2217 035a 4D       		.byte	0x4d
 2218 035b DA000000 		.4byte	0xda
 2219 035f 0C18     		.2byte	0x180c
 2220 0361 0C       		.uleb128 0xc
 2221 0362 34800000 		.4byte	.LASF64
 2222 0366 05       		.byte	0x5
 2223 0367 4E       		.byte	0x4e
 2224 0368 DA000000 		.4byte	0xda
 2225 036c 1018     		.2byte	0x1810
 2226 036e 0C       		.uleb128 0xc
 2227 036f B0020000 		.4byte	.LASF65
 2228 0373 05       		.byte	0x5
 2229 0374 4F       		.byte	0x4f
 2230 0375 33070000 		.4byte	0x733
 2231 0379 1418     		.2byte	0x1814
ARM GAS  C:\Users\D4DE~1\AppData\Local\Temp\cccuUyWy.s 			page 75


 2232 037b 0C       		.uleb128 0xc
 2233 037c F0410000 		.4byte	.LASF66
 2234 0380 05       		.byte	0x5
 2235 0381 50       		.byte	0x50
 2236 0382 14070000 		.4byte	0x714
 2237 0386 1618     		.2byte	0x1816
 2238 0388 0C       		.uleb128 0xc
 2239 0389 CD7E0000 		.4byte	.LASF67
 2240 038d 05       		.byte	0x5
 2241 038e 51       		.byte	0x51
 2242 038f DA000000 		.4byte	0xda
 2243 0393 1818     		.2byte	0x1818
 2244 0395 0C       		.uleb128 0xc
 2245 0396 F9790000 		.4byte	.LASF68
 2246 039a 05       		.byte	0x5
 2247 039b 52       		.byte	0x52
 2248 039c DA000000 		.4byte	0xda
 2249 03a0 1C18     		.2byte	0x181c
 2250 03a2 0C       		.uleb128 0xc
 2251 03a3 D42D0000 		.4byte	.LASF69
 2252 03a7 05       		.byte	0x5
 2253 03a8 53       		.byte	0x53
 2254 03a9 DA000000 		.4byte	0xda
 2255 03ad 2018     		.2byte	0x1820
 2256 03af 0C       		.uleb128 0xc
 2257 03b0 08560000 		.4byte	.LASF70
 2258 03b4 05       		.byte	0x5
 2259 03b5 54       		.byte	0x54
 2260 03b6 DA000000 		.4byte	0xda
 2261 03ba 2418     		.2byte	0x1824
 2262 03bc 0C       		.uleb128 0xc
 2263 03bd BB020000 		.4byte	.LASF71
 2264 03c1 05       		.byte	0x5
 2265 03c2 55       		.byte	0x55
 2266 03c3 5B080000 		.4byte	0x85b
 2267 03c7 2818     		.2byte	0x1828
 2268 03c9 0C       		.uleb128 0xc
 2269 03ca 3E310000 		.4byte	.LASF72
 2270 03ce 05       		.byte	0x5
 2271 03cf 56       		.byte	0x56
 2272 03d0 DA000000 		.4byte	0xda
 2273 03d4 4418     		.2byte	0x1844
 2274 03d6 0C       		.uleb128 0xc
 2275 03d7 26090000 		.4byte	.LASF73
 2276 03db 05       		.byte	0x5
 2277 03dc 57       		.byte	0x57
 2278 03dd DA000000 		.4byte	0xda
 2279 03e1 4818     		.2byte	0x1848
 2280 03e3 0C       		.uleb128 0xc
 2281 03e4 3E420000 		.4byte	.LASF74
 2282 03e8 05       		.byte	0x5
 2283 03e9 58       		.byte	0x58
 2284 03ea DA000000 		.4byte	0xda
 2285 03ee 4C18     		.2byte	0x184c
 2286 03f0 0C       		.uleb128 0xc
 2287 03f1 45730000 		.4byte	.LASF75
 2288 03f5 05       		.byte	0x5
ARM GAS  C:\Users\D4DE~1\AppData\Local\Temp\cccuUyWy.s 			page 76


 2289 03f6 59       		.byte	0x59
 2290 03f7 DA000000 		.4byte	0xda
 2291 03fb 5018     		.2byte	0x1850
 2292 03fd 0C       		.uleb128 0xc
 2293 03fe C6020000 		.4byte	.LASF76
 2294 0402 05       		.byte	0x5
 2295 0403 5A       		.byte	0x5a
 2296 0404 76080000 		.4byte	0x876
 2297 0408 5418     		.2byte	0x1854
 2298 040a 0C       		.uleb128 0xc
 2299 040b 32530000 		.4byte	.LASF77
 2300 040f 05       		.byte	0x5
 2301 0410 5B       		.byte	0x5b
 2302 0411 DA000000 		.4byte	0xda
 2303 0415 0020     		.2byte	0x2000
 2304 0417 0C       		.uleb128 0xc
 2305 0418 6E080000 		.4byte	.LASF78
 2306 041c 05       		.byte	0x5
 2307 041d 5C       		.byte	0x5c
 2308 041e DA000000 		.4byte	0xda
 2309 0422 0420     		.2byte	0x2004
 2310 0424 0C       		.uleb128 0xc
 2311 0425 4B1E0000 		.4byte	.LASF79
 2312 0429 05       		.byte	0x5
 2313 042a 5D       		.byte	0x5d
 2314 042b DA000000 		.4byte	0xda
 2315 042f 0820     		.2byte	0x2008
 2316 0431 0C       		.uleb128 0xc
 2317 0432 43500000 		.4byte	.LASF80
 2318 0436 05       		.byte	0x5
 2319 0437 5E       		.byte	0x5e
 2320 0438 DA000000 		.4byte	0xda
 2321 043c 0C20     		.2byte	0x200c
 2322 043e 0C       		.uleb128 0xc
 2323 043f 770C0000 		.4byte	.LASF81
 2324 0443 05       		.byte	0x5
 2325 0444 5F       		.byte	0x5f
 2326 0445 DA000000 		.4byte	0xda
 2327 0449 1020     		.2byte	0x2010
 2328 044b 0C       		.uleb128 0xc
 2329 044c 7D1F0000 		.4byte	.LASF82
 2330 0450 05       		.byte	0x5
 2331 0451 60       		.byte	0x60
 2332 0452 DA000000 		.4byte	0xda
 2333 0456 1420     		.2byte	0x2014
 2334 0458 0C       		.uleb128 0xc
 2335 0459 D1020000 		.4byte	.LASF83
 2336 045d 05       		.byte	0x5
 2337 045e 61       		.byte	0x61
 2338 045f 90080000 		.4byte	0x890
 2339 0463 1820     		.2byte	0x2018
 2340 0465 0C       		.uleb128 0xc
 2341 0466 A4800000 		.4byte	.LASF84
 2342 046a 05       		.byte	0x5
 2343 046b 62       		.byte	0x62
 2344 046c A6080000 		.4byte	0x8a6
 2345 0470 D820     		.2byte	0x20d8
ARM GAS  C:\Users\D4DE~1\AppData\Local\Temp\cccuUyWy.s 			page 77


 2346 0472 0C       		.uleb128 0xc
 2347 0473 CA570000 		.4byte	.LASF85
 2348 0477 05       		.byte	0x5
 2349 0478 63       		.byte	0x63
 2350 0479 BC080000 		.4byte	0x8bc
 2351 047d 005A     		.2byte	0x5a00
 2352 047f 0C       		.uleb128 0xc
 2353 0480 12360000 		.4byte	.LASF86
 2354 0484 05       		.byte	0x5
 2355 0485 64       		.byte	0x64
 2356 0486 D2080000 		.4byte	0x8d2
 2357 048a 0066     		.2byte	0x6600
 2358 048c 0C       		.uleb128 0xc
 2359 048d DC020000 		.4byte	.LASF87
 2360 0491 05       		.byte	0x5
 2361 0492 65       		.byte	0x65
 2362 0493 ED080000 		.4byte	0x8ed
 2363 0497 006C     		.2byte	0x6c00
 2364 0499 0C       		.uleb128 0xc
 2365 049a 10210000 		.4byte	.LASF88
 2366 049e 05       		.byte	0x5
 2367 049f 66       		.byte	0x66
 2368 04a0 DA000000 		.4byte	0xda
 2369 04a4 0078     		.2byte	0x7800
 2370 04a6 0C       		.uleb128 0xc
 2371 04a7 73680000 		.4byte	.LASF89
 2372 04ab 05       		.byte	0x5
 2373 04ac 68       		.byte	0x68
 2374 04ad DA000000 		.4byte	0xda
 2375 04b1 0478     		.2byte	0x7804
 2376 04b3 0C       		.uleb128 0xc
 2377 04b4 F5270000 		.4byte	.LASF90
 2378 04b8 05       		.byte	0x5
 2379 04b9 69       		.byte	0x69
 2380 04ba DA000000 		.4byte	0xda
 2381 04be 0878     		.2byte	0x7808
 2382 04c0 0C       		.uleb128 0xc
 2383 04c1 131B0000 		.4byte	.LASF91
 2384 04c5 05       		.byte	0x5
 2385 04c6 6B       		.byte	0x6b
 2386 04c7 DA000000 		.4byte	0xda
 2387 04cb 0C78     		.2byte	0x780c
 2388 04cd 0C       		.uleb128 0xc
 2389 04ce ED340000 		.4byte	.LASF92
 2390 04d2 05       		.byte	0x5
 2391 04d3 6C       		.byte	0x6c
 2392 04d4 DA000000 		.4byte	0xda
 2393 04d8 1078     		.2byte	0x7810
 2394 04da 0C       		.uleb128 0xc
 2395 04db 19710000 		.4byte	.LASF93
 2396 04df 05       		.byte	0x5
 2397 04e0 6D       		.byte	0x6d
 2398 04e1 DA000000 		.4byte	0xda
 2399 04e5 1478     		.2byte	0x7814
 2400 04e7 0C       		.uleb128 0xc
 2401 04e8 41380000 		.4byte	.LASF94
 2402 04ec 05       		.byte	0x5
ARM GAS  C:\Users\D4DE~1\AppData\Local\Temp\cccuUyWy.s 			page 78


 2403 04ed 6E       		.byte	0x6e
 2404 04ee DA000000 		.4byte	0xda
 2405 04f2 1878     		.2byte	0x7818
 2406 04f4 0C       		.uleb128 0xc
 2407 04f5 88630000 		.4byte	.LASF95
 2408 04f9 05       		.byte	0x5
 2409 04fa 6F       		.byte	0x6f
 2410 04fb DA000000 		.4byte	0xda
 2411 04ff 1C78     		.2byte	0x781c
 2412 0501 0C       		.uleb128 0xc
 2413 0502 E7020000 		.4byte	.LASF96
 2414 0506 05       		.byte	0x5
 2415 0507 70       		.byte	0x70
 2416 0508 07090000 		.4byte	0x907
 2417 050c 2078     		.2byte	0x7820
 2418 050e 0C       		.uleb128 0xc
 2419 050f 59520000 		.4byte	.LASF97
 2420 0513 05       		.byte	0x5
 2421 0514 71       		.byte	0x71
 2422 0515 DA000000 		.4byte	0xda
 2423 0519 FC79     		.2byte	0x79fc
 2424 051b 0C       		.uleb128 0xc
 2425 051c 314C0000 		.4byte	.LASF98
 2426 0520 05       		.byte	0x5
 2427 0521 72       		.byte	0x72
 2428 0522 DA000000 		.4byte	0xda
 2429 0526 007A     		.2byte	0x7a00
 2430 0528 0C       		.uleb128 0xc
 2431 0529 1E630000 		.4byte	.LASF99
 2432 052d 05       		.byte	0x5
 2433 052e 74       		.byte	0x74
 2434 052f DA000000 		.4byte	0xda
 2435 0533 047A     		.2byte	0x7a04
 2436 0535 0C       		.uleb128 0xc
 2437 0536 3C630000 		.4byte	.LASF100
 2438 053a 05       		.byte	0x5
 2439 053b 75       		.byte	0x75
 2440 053c DA000000 		.4byte	0xda
 2441 0540 087A     		.2byte	0x7a08
 2442 0542 0C       		.uleb128 0xc
 2443 0543 32650000 		.4byte	.LASF101
 2444 0547 05       		.byte	0x5
 2445 0548 77       		.byte	0x77
 2446 0549 DA000000 		.4byte	0xda
 2447 054d 0C7A     		.2byte	0x7a0c
 2448 054f 0C       		.uleb128 0xc
 2449 0550 4A7C0000 		.4byte	.LASF102
 2450 0554 05       		.byte	0x5
 2451 0555 78       		.byte	0x78
 2452 0556 DA000000 		.4byte	0xda
 2453 055a 107A     		.2byte	0x7a10
 2454 055c 0C       		.uleb128 0xc
 2455 055d 2D390000 		.4byte	.LASF103
 2456 0561 05       		.byte	0x5
 2457 0562 79       		.byte	0x79
 2458 0563 DA000000 		.4byte	0xda
 2459 0567 147A     		.2byte	0x7a14
ARM GAS  C:\Users\D4DE~1\AppData\Local\Temp\cccuUyWy.s 			page 79


 2460 0569 0C       		.uleb128 0xc
 2461 056a 8C410000 		.4byte	.LASF104
 2462 056e 05       		.byte	0x5
 2463 056f 7B       		.byte	0x7b
 2464 0570 DA000000 		.4byte	0xda
 2465 0574 187A     		.2byte	0x7a18
 2466 0576 0C       		.uleb128 0xc
 2467 0577 516F0000 		.4byte	.LASF105
 2468 057b 05       		.byte	0x5
 2469 057c 7C       		.byte	0x7c
 2470 057d DA000000 		.4byte	0xda
 2471 0581 1C7A     		.2byte	0x7a1c
 2472 0583 0C       		.uleb128 0xc
 2473 0584 F2020000 		.4byte	.LASF106
 2474 0588 05       		.byte	0x5
 2475 0589 7D       		.byte	0x7d
 2476 058a 11090000 		.4byte	0x911
 2477 058e 207A     		.2byte	0x7a20
 2478 0590 0C       		.uleb128 0xc
 2479 0591 D4680000 		.4byte	.LASF107
 2480 0595 05       		.byte	0x5
 2481 0596 7E       		.byte	0x7e
 2482 0597 DA000000 		.4byte	0xda
 2483 059b FC7B     		.2byte	0x7bfc
 2484 059d 0C       		.uleb128 0xc
 2485 059e DD320000 		.4byte	.LASF108
 2486 05a2 05       		.byte	0x5
 2487 05a3 80       		.byte	0x80
 2488 05a4 DA000000 		.4byte	0xda
 2489 05a8 007C     		.2byte	0x7c00
 2490 05aa 0C       		.uleb128 0xc
 2491 05ab 58760000 		.4byte	.LASF109
 2492 05af 05       		.byte	0x5
 2493 05b0 82       		.byte	0x82
 2494 05b1 DA000000 		.4byte	0xda
 2495 05b5 047C     		.2byte	0x7c04
 2496 05b7 0C       		.uleb128 0xc
 2497 05b8 152F0000 		.4byte	.LASF110
 2498 05bc 05       		.byte	0x5
 2499 05bd 83       		.byte	0x83
 2500 05be DA000000 		.4byte	0xda
 2501 05c2 087C     		.2byte	0x7c08
 2502 05c4 0C       		.uleb128 0xc
 2503 05c5 B1780000 		.4byte	.LASF111
 2504 05c9 05       		.byte	0x5
 2505 05ca 84       		.byte	0x84
 2506 05cb DA000000 		.4byte	0xda
 2507 05cf 0C7C     		.2byte	0x7c0c
 2508 05d1 0C       		.uleb128 0xc
 2509 05d2 92790000 		.4byte	.LASF112
 2510 05d6 05       		.byte	0x5
 2511 05d7 86       		.byte	0x86
 2512 05d8 DA000000 		.4byte	0xda
 2513 05dc 107C     		.2byte	0x7c10
 2514 05de 0C       		.uleb128 0xc
 2515 05df 542C0000 		.4byte	.LASF113
 2516 05e3 05       		.byte	0x5
ARM GAS  C:\Users\D4DE~1\AppData\Local\Temp\cccuUyWy.s 			page 80


 2517 05e4 87       		.byte	0x87
 2518 05e5 DA000000 		.4byte	0xda
 2519 05e9 147C     		.2byte	0x7c14
 2520 05eb 0C       		.uleb128 0xc
 2521 05ec 52810000 		.4byte	.LASF114
 2522 05f0 05       		.byte	0x5
 2523 05f1 89       		.byte	0x89
 2524 05f2 DA000000 		.4byte	0xda
 2525 05f6 187C     		.2byte	0x7c18
 2526 05f8 0C       		.uleb128 0xc
 2527 05f9 985B0000 		.4byte	.LASF115
 2528 05fd 05       		.byte	0x5
 2529 05fe 8A       		.byte	0x8a
 2530 05ff DA000000 		.4byte	0xda
 2531 0603 1C7C     		.2byte	0x7c1c
 2532 0605 0C       		.uleb128 0xc
 2533 0606 AE5F0000 		.4byte	.LASF116
 2534 060a 05       		.byte	0x5
 2535 060b 8C       		.byte	0x8c
 2536 060c DA000000 		.4byte	0xda
 2537 0610 207C     		.2byte	0x7c20
 2538 0612 0C       		.uleb128 0xc
 2539 0613 2F300000 		.4byte	.LASF117
 2540 0617 05       		.byte	0x5
 2541 0618 8F       		.byte	0x8f
 2542 0619 DA000000 		.4byte	0xda
 2543 061d 247C     		.2byte	0x7c24
 2544 061f 0C       		.uleb128 0xc
 2545 0620 FD020000 		.4byte	.LASF118
 2546 0624 05       		.byte	0x5
 2547 0625 91       		.byte	0x91
 2548 0626 2B090000 		.4byte	0x92b
 2549 062a 287C     		.2byte	0x7c28
 2550 062c 0C       		.uleb128 0xc
 2551 062d DF3A0000 		.4byte	.LASF119
 2552 0631 05       		.byte	0x5
 2553 0632 92       		.byte	0x92
 2554 0633 DA000000 		.4byte	0xda
 2555 0637 F47D     		.2byte	0x7df4
 2556 0639 0C       		.uleb128 0xc
 2557 063a 01090000 		.4byte	.LASF120
 2558 063e 05       		.byte	0x5
 2559 063f 93       		.byte	0x93
 2560 0640 DA000000 		.4byte	0xda
 2561 0644 F87D     		.2byte	0x7df8
 2562 0646 0C       		.uleb128 0xc
 2563 0647 B3740000 		.4byte	.LASF121
 2564 064b 05       		.byte	0x5
 2565 064c 94       		.byte	0x94
 2566 064d DA000000 		.4byte	0xda
 2567 0651 FC7D     		.2byte	0x7dfc
 2568 0653 0C       		.uleb128 0xc
 2569 0654 A75D0000 		.4byte	.LASF122
 2570 0658 05       		.byte	0x5
 2571 0659 95       		.byte	0x95
 2572 065a DA000000 		.4byte	0xda
 2573 065e 007E     		.2byte	0x7e00
ARM GAS  C:\Users\D4DE~1\AppData\Local\Temp\cccuUyWy.s 			page 81


 2574 0660 0C       		.uleb128 0xc
 2575 0661 3C410000 		.4byte	.LASF123
 2576 0665 05       		.byte	0x5
 2577 0666 97       		.byte	0x97
 2578 0667 DA000000 		.4byte	0xda
 2579 066b 047E     		.2byte	0x7e04
 2580 066d 0C       		.uleb128 0xc
 2581 066e AE750000 		.4byte	.LASF124
 2582 0672 05       		.byte	0x5
 2583 0673 98       		.byte	0x98
 2584 0674 DA000000 		.4byte	0xda
 2585 0678 087E     		.2byte	0x7e08
 2586 067a 0C       		.uleb128 0xc
 2587 067b DF460000 		.4byte	.LASF125
 2588 067f 05       		.byte	0x5
 2589 0680 99       		.byte	0x99
 2590 0681 DA000000 		.4byte	0xda
 2591 0685 0C7E     		.2byte	0x7e0c
 2592 0687 0C       		.uleb128 0xc
 2593 0688 B5420000 		.4byte	.LASF126
 2594 068c 05       		.byte	0x5
 2595 068d 9B       		.byte	0x9b
 2596 068e DA000000 		.4byte	0xda
 2597 0692 107E     		.2byte	0x7e10
 2598 0694 0C       		.uleb128 0xc
 2599 0695 EB660000 		.4byte	.LASF127
 2600 0699 05       		.byte	0x5
 2601 069a 9C       		.byte	0x9c
 2602 069b DA000000 		.4byte	0xda
 2603 069f 147E     		.2byte	0x7e14
 2604 06a1 0C       		.uleb128 0xc
 2605 06a2 754F0000 		.4byte	.LASF128
 2606 06a6 05       		.byte	0x5
 2607 06a7 9E       		.byte	0x9e
 2608 06a8 DA000000 		.4byte	0xda
 2609 06ac 187E     		.2byte	0x7e18
 2610 06ae 0C       		.uleb128 0xc
 2611 06af 9A710000 		.4byte	.LASF129
 2612 06b3 05       		.byte	0x5
 2613 06b4 9F       		.byte	0x9f
 2614 06b5 DA000000 		.4byte	0xda
 2615 06b9 1C7E     		.2byte	0x7e1c
 2616 06bb 0C       		.uleb128 0xc
 2617 06bc 1F1A0000 		.4byte	.LASF130
 2618 06c0 05       		.byte	0x5
 2619 06c1 A1       		.byte	0xa1
 2620 06c2 DA000000 		.4byte	0xda
 2621 06c6 207E     		.2byte	0x7e20
 2622 06c8 0C       		.uleb128 0xc
 2623 06c9 8F760000 		.4byte	.LASF131
 2624 06cd 05       		.byte	0x5
 2625 06ce A4       		.byte	0xa4
 2626 06cf DA000000 		.4byte	0xda
 2627 06d3 247E     		.2byte	0x7e24
 2628 06d5 0C       		.uleb128 0xc
 2629 06d6 08030000 		.4byte	.LASF132
 2630 06da 05       		.byte	0x5
ARM GAS  C:\Users\D4DE~1\AppData\Local\Temp\cccuUyWy.s 			page 82


 2631 06db A7       		.byte	0xa7
 2632 06dc 35090000 		.4byte	0x935
 2633 06e0 287E     		.2byte	0x7e28
 2634 06e2 0C       		.uleb128 0xc
 2635 06e3 46740000 		.4byte	.LASF133
 2636 06e7 05       		.byte	0x5
 2637 06e8 A8       		.byte	0xa8
 2638 06e9 DA000000 		.4byte	0xda
 2639 06ed F47F     		.2byte	0x7ff4
 2640 06ef 0C       		.uleb128 0xc
 2641 06f0 1B470000 		.4byte	.LASF134
 2642 06f4 05       		.byte	0x5
 2643 06f5 A9       		.byte	0xa9
 2644 06f6 DA000000 		.4byte	0xda
 2645 06fa F87F     		.2byte	0x7ff8
 2646 06fc 0C       		.uleb128 0xc
 2647 06fd 4D2F0000 		.4byte	.LASF135
 2648 0701 05       		.byte	0x5
 2649 0702 AA       		.byte	0xaa
 2650 0703 DA000000 		.4byte	0xda
 2651 0707 FC7F     		.2byte	0x7ffc
 2652 0709 00       		.byte	0
 2653 070a 06       		.uleb128 0x6
 2654 070b AE000000 		.4byte	0xae
 2655 070f 07       		.uleb128 0x7
 2656 0710 0A070000 		.4byte	0x70a
 2657 0714 06       		.uleb128 0x6
 2658 0715 C4000000 		.4byte	0xc4
 2659 0719 06       		.uleb128 0x6
 2660 071a 14010000 		.4byte	0x114
 2661 071e 07       		.uleb128 0x7
 2662 071f 19070000 		.4byte	0x719
 2663 0723 08       		.uleb128 0x8
 2664 0724 33070000 		.4byte	0x733
 2665 0728 33070000 		.4byte	0x733
 2666 072c 09       		.uleb128 0x9
 2667 072d 9E000000 		.4byte	0x9e
 2668 0731 02       		.byte	0x2
 2669 0732 00       		.byte	0
 2670 0733 07       		.uleb128 0x7
 2671 0734 14070000 		.4byte	0x714
 2672 0738 06       		.uleb128 0x6
 2673 0739 23070000 		.4byte	0x723
 2674 073d 07       		.uleb128 0x7
 2675 073e 38070000 		.4byte	0x738
 2676 0742 08       		.uleb128 0x8
 2677 0743 DF000000 		.4byte	0xdf
 2678 0747 53070000 		.4byte	0x753
 2679 074b 0D       		.uleb128 0xd
 2680 074c 9E000000 		.4byte	0x9e
 2681 0750 7901     		.2byte	0x179
 2682 0752 00       		.byte	0
 2683 0753 06       		.uleb128 0x6
 2684 0754 42070000 		.4byte	0x742
 2685 0758 07       		.uleb128 0x7
 2686 0759 53070000 		.4byte	0x753
 2687 075d 08       		.uleb128 0x8
ARM GAS  C:\Users\D4DE~1\AppData\Local\Temp\cccuUyWy.s 			page 83


 2688 075e 0A070000 		.4byte	0x70a
 2689 0762 6D070000 		.4byte	0x76d
 2690 0766 09       		.uleb128 0x9
 2691 0767 9E000000 		.4byte	0x9e
 2692 076b 02       		.byte	0x2
 2693 076c 00       		.byte	0
 2694 076d 06       		.uleb128 0x6
 2695 076e 5D070000 		.4byte	0x75d
 2696 0772 08       		.uleb128 0x8
 2697 0773 0F070000 		.4byte	0x70f
 2698 0777 82070000 		.4byte	0x782
 2699 077b 09       		.uleb128 0x9
 2700 077c 9E000000 		.4byte	0x9e
 2701 0780 3C       		.byte	0x3c
 2702 0781 00       		.byte	0
 2703 0782 06       		.uleb128 0x6
 2704 0783 72070000 		.4byte	0x772
 2705 0787 07       		.uleb128 0x7
 2706 0788 82070000 		.4byte	0x782
 2707 078c 06       		.uleb128 0x6
 2708 078d 04010000 		.4byte	0x104
 2709 0791 07       		.uleb128 0x7
 2710 0792 8C070000 		.4byte	0x78c
 2711 0796 08       		.uleb128 0x8
 2712 0797 DF000000 		.4byte	0xdf
 2713 079b A6070000 		.4byte	0x7a6
 2714 079f 09       		.uleb128 0x9
 2715 07a0 9E000000 		.4byte	0x9e
 2716 07a4 33       		.byte	0x33
 2717 07a5 00       		.byte	0
 2718 07a6 06       		.uleb128 0x6
 2719 07a7 96070000 		.4byte	0x796
 2720 07ab 07       		.uleb128 0x7
 2721 07ac A6070000 		.4byte	0x7a6
 2722 07b0 08       		.uleb128 0x8
 2723 07b1 33070000 		.4byte	0x733
 2724 07b5 C0070000 		.4byte	0x7c0
 2725 07b9 09       		.uleb128 0x9
 2726 07ba 9E000000 		.4byte	0x9e
 2727 07be 5E       		.byte	0x5e
 2728 07bf 00       		.byte	0
 2729 07c0 06       		.uleb128 0x6
 2730 07c1 B0070000 		.4byte	0x7b0
 2731 07c5 07       		.uleb128 0x7
 2732 07c6 C0070000 		.4byte	0x7c0
 2733 07ca 08       		.uleb128 0x8
 2734 07cb DA000000 		.4byte	0xda
 2735 07cf DA070000 		.4byte	0x7da
 2736 07d3 09       		.uleb128 0x9
 2737 07d4 9E000000 		.4byte	0x9e
 2738 07d8 7F       		.byte	0x7f
 2739 07d9 00       		.byte	0
 2740 07da 06       		.uleb128 0x6
 2741 07db CA070000 		.4byte	0x7ca
 2742 07df 06       		.uleb128 0x6
 2743 07e0 CA070000 		.4byte	0x7ca
 2744 07e4 06       		.uleb128 0x6
ARM GAS  C:\Users\D4DE~1\AppData\Local\Temp\cccuUyWy.s 			page 84


 2745 07e5 CA070000 		.4byte	0x7ca
 2746 07e9 06       		.uleb128 0x6
 2747 07ea CA070000 		.4byte	0x7ca
 2748 07ee 08       		.uleb128 0x8
 2749 07ef DF000000 		.4byte	0xdf
 2750 07f3 FF070000 		.4byte	0x7ff
 2751 07f7 0D       		.uleb128 0xd
 2752 07f8 9E000000 		.4byte	0x9e
 2753 07fc 2D01     		.2byte	0x12d
 2754 07fe 00       		.byte	0
 2755 07ff 06       		.uleb128 0x6
 2756 0800 EE070000 		.4byte	0x7ee
 2757 0804 07       		.uleb128 0x7
 2758 0805 FF070000 		.4byte	0x7ff
 2759 0809 08       		.uleb128 0x8
 2760 080a 0A070000 		.4byte	0x70a
 2761 080e 19080000 		.4byte	0x819
 2762 0812 09       		.uleb128 0x9
 2763 0813 9E000000 		.4byte	0x9e
 2764 0817 0F       		.byte	0xf
 2765 0818 00       		.byte	0
 2766 0819 06       		.uleb128 0x6
 2767 081a 09080000 		.4byte	0x809
 2768 081e 06       		.uleb128 0x6
 2769 081f 09080000 		.4byte	0x809
 2770 0823 06       		.uleb128 0x6
 2771 0824 E4000000 		.4byte	0xe4
 2772 0828 06       		.uleb128 0x6
 2773 0829 E4000000 		.4byte	0xe4
 2774 082d 06       		.uleb128 0x6
 2775 082e E4000000 		.4byte	0xe4
 2776 0832 06       		.uleb128 0x6
 2777 0833 E4000000 		.4byte	0xe4
 2778 0837 06       		.uleb128 0x6
 2779 0838 E4000000 		.4byte	0xe4
 2780 083c 08       		.uleb128 0x8
 2781 083d DF000000 		.4byte	0xdf
 2782 0841 4C080000 		.4byte	0x84c
 2783 0845 09       		.uleb128 0x9
 2784 0846 9E000000 		.4byte	0x9e
 2785 084a 79       		.byte	0x79
 2786 084b 00       		.byte	0
 2787 084c 06       		.uleb128 0x6
 2788 084d 3C080000 		.4byte	0x83c
 2789 0851 07       		.uleb128 0x7
 2790 0852 4C080000 		.4byte	0x84c
 2791 0856 06       		.uleb128 0x6
 2792 0857 F4000000 		.4byte	0xf4
 2793 085b 07       		.uleb128 0x7
 2794 085c 56080000 		.4byte	0x856
 2795 0860 08       		.uleb128 0x8
 2796 0861 DF000000 		.4byte	0xdf
 2797 0865 71080000 		.4byte	0x871
 2798 0869 0D       		.uleb128 0xd
 2799 086a 9E000000 		.4byte	0x9e
 2800 086e EA01     		.2byte	0x1ea
 2801 0870 00       		.byte	0
ARM GAS  C:\Users\D4DE~1\AppData\Local\Temp\cccuUyWy.s 			page 85


 2802 0871 06       		.uleb128 0x6
 2803 0872 60080000 		.4byte	0x860
 2804 0876 07       		.uleb128 0x7
 2805 0877 71080000 		.4byte	0x871
 2806 087b 08       		.uleb128 0x8
 2807 087c DF000000 		.4byte	0xdf
 2808 0880 8B080000 		.4byte	0x88b
 2809 0884 09       		.uleb128 0x9
 2810 0885 9E000000 		.4byte	0x9e
 2811 0889 2F       		.byte	0x2f
 2812 088a 00       		.byte	0
 2813 088b 06       		.uleb128 0x6
 2814 088c 7B080000 		.4byte	0x87b
 2815 0890 07       		.uleb128 0x7
 2816 0891 8B080000 		.4byte	0x88b
 2817 0895 08       		.uleb128 0x8
 2818 0896 0A070000 		.4byte	0x70a
 2819 089a A6080000 		.4byte	0x8a6
 2820 089e 0D       		.uleb128 0xd
 2821 089f 9E000000 		.4byte	0x9e
 2822 08a3 2739     		.2byte	0x3927
 2823 08a5 00       		.byte	0
 2824 08a6 06       		.uleb128 0x6
 2825 08a7 95080000 		.4byte	0x895
 2826 08ab 08       		.uleb128 0x8
 2827 08ac 0A070000 		.4byte	0x70a
 2828 08b0 BC080000 		.4byte	0x8bc
 2829 08b4 0D       		.uleb128 0xd
 2830 08b5 9E000000 		.4byte	0x9e
 2831 08b9 FF0B     		.2byte	0xbff
 2832 08bb 00       		.byte	0
 2833 08bc 06       		.uleb128 0x6
 2834 08bd AB080000 		.4byte	0x8ab
 2835 08c1 08       		.uleb128 0x8
 2836 08c2 DA000000 		.4byte	0xda
 2837 08c6 D2080000 		.4byte	0x8d2
 2838 08ca 0D       		.uleb128 0xd
 2839 08cb 9E000000 		.4byte	0x9e
 2840 08cf 7F01     		.2byte	0x17f
 2841 08d1 00       		.byte	0
 2842 08d2 06       		.uleb128 0x6
 2843 08d3 C1080000 		.4byte	0x8c1
 2844 08d7 08       		.uleb128 0x8
 2845 08d8 DF000000 		.4byte	0xdf
 2846 08dc E8080000 		.4byte	0x8e8
 2847 08e0 0D       		.uleb128 0xd
 2848 08e1 9E000000 		.4byte	0x9e
 2849 08e5 FF02     		.2byte	0x2ff
 2850 08e7 00       		.byte	0
 2851 08e8 06       		.uleb128 0x6
 2852 08e9 D7080000 		.4byte	0x8d7
 2853 08ed 07       		.uleb128 0x7
 2854 08ee E8080000 		.4byte	0x8e8
 2855 08f2 08       		.uleb128 0x8
 2856 08f3 DF000000 		.4byte	0xdf
 2857 08f7 02090000 		.4byte	0x902
 2858 08fb 09       		.uleb128 0x9
ARM GAS  C:\Users\D4DE~1\AppData\Local\Temp\cccuUyWy.s 			page 86


 2859 08fc 9E000000 		.4byte	0x9e
 2860 0900 76       		.byte	0x76
 2861 0901 00       		.byte	0
 2862 0902 06       		.uleb128 0x6
 2863 0903 F2080000 		.4byte	0x8f2
 2864 0907 07       		.uleb128 0x7
 2865 0908 02090000 		.4byte	0x902
 2866 090c 06       		.uleb128 0x6
 2867 090d F2080000 		.4byte	0x8f2
 2868 0911 07       		.uleb128 0x7
 2869 0912 0C090000 		.4byte	0x90c
 2870 0916 08       		.uleb128 0x8
 2871 0917 DF000000 		.4byte	0xdf
 2872 091b 26090000 		.4byte	0x926
 2873 091f 09       		.uleb128 0x9
 2874 0920 9E000000 		.4byte	0x9e
 2875 0924 72       		.byte	0x72
 2876 0925 00       		.byte	0
 2877 0926 06       		.uleb128 0x6
 2878 0927 16090000 		.4byte	0x916
 2879 092b 07       		.uleb128 0x7
 2880 092c 26090000 		.4byte	0x926
 2881 0930 06       		.uleb128 0x6
 2882 0931 16090000 		.4byte	0x916
 2883 0935 07       		.uleb128 0x7
 2884 0936 30090000 		.4byte	0x930
 2885 093a 04       		.uleb128 0x4
 2886 093b FB040000 		.4byte	.LASF136
 2887 093f 05       		.byte	0x5
 2888 0940 AC       		.byte	0xac
 2889 0941 24010000 		.4byte	0x124
 2890 0945 0E       		.uleb128 0xe
 2891 0946 B8       		.byte	0xb8
 2892 0947 06       		.byte	0x6
 2893 0948 34       		.byte	0x34
 2894 0949 560D0000 		.4byte	0xd56
 2895 094d 0B       		.uleb128 0xb
 2896 094e 020C0000 		.4byte	.LASF137
 2897 0952 06       		.byte	0x6
 2898 0953 37       		.byte	0x37
 2899 0954 CF000000 		.4byte	0xcf
 2900 0958 00       		.byte	0
 2901 0959 0B       		.uleb128 0xb
 2902 095a 1C610000 		.4byte	.LASF138
 2903 095e 06       		.byte	0x6
 2904 095f 38       		.byte	0x38
 2905 0960 CF000000 		.4byte	0xcf
 2906 0964 04       		.byte	0x4
 2907 0965 0B       		.uleb128 0xb
 2908 0966 F6290000 		.4byte	.LASF139
 2909 096a 06       		.byte	0x6
 2910 096b 39       		.byte	0x39
 2911 096c CF000000 		.4byte	0xcf
 2912 0970 08       		.byte	0x8
 2913 0971 0B       		.uleb128 0xb
 2914 0972 71640000 		.4byte	.LASF140
 2915 0976 06       		.byte	0x6
ARM GAS  C:\Users\D4DE~1\AppData\Local\Temp\cccuUyWy.s 			page 87


 2916 0977 3A       		.byte	0x3a
 2917 0978 CF000000 		.4byte	0xcf
 2918 097c 0C       		.byte	0xc
 2919 097d 0B       		.uleb128 0xb
 2920 097e A17A0000 		.4byte	.LASF141
 2921 0982 06       		.byte	0x6
 2922 0983 3B       		.byte	0x3b
 2923 0984 CF000000 		.4byte	0xcf
 2924 0988 10       		.byte	0x10
 2925 0989 0B       		.uleb128 0xb
 2926 098a E2670000 		.4byte	.LASF142
 2927 098e 06       		.byte	0x6
 2928 098f 3C       		.byte	0x3c
 2929 0990 CF000000 		.4byte	0xcf
 2930 0994 14       		.byte	0x14
 2931 0995 0B       		.uleb128 0xb
 2932 0996 2B000000 		.4byte	.LASF143
 2933 099a 06       		.byte	0x6
 2934 099b 3D       		.byte	0x3d
 2935 099c CF000000 		.4byte	0xcf
 2936 09a0 18       		.byte	0x18
 2937 09a1 0B       		.uleb128 0xb
 2938 09a2 FA420000 		.4byte	.LASF144
 2939 09a6 06       		.byte	0x6
 2940 09a7 3E       		.byte	0x3e
 2941 09a8 CF000000 		.4byte	0xcf
 2942 09ac 1C       		.byte	0x1c
 2943 09ad 0B       		.uleb128 0xb
 2944 09ae B45B0000 		.4byte	.LASF145
 2945 09b2 06       		.byte	0x6
 2946 09b3 3F       		.byte	0x3f
 2947 09b4 CF000000 		.4byte	0xcf
 2948 09b8 20       		.byte	0x20
 2949 09b9 0B       		.uleb128 0xb
 2950 09ba 31630000 		.4byte	.LASF146
 2951 09be 06       		.byte	0x6
 2952 09bf 40       		.byte	0x40
 2953 09c0 CF000000 		.4byte	0xcf
 2954 09c4 24       		.byte	0x24
 2955 09c5 0B       		.uleb128 0xb
 2956 09c6 9F310000 		.4byte	.LASF147
 2957 09ca 06       		.byte	0x6
 2958 09cb 43       		.byte	0x43
 2959 09cc AE000000 		.4byte	0xae
 2960 09d0 28       		.byte	0x28
 2961 09d1 0B       		.uleb128 0xb
 2962 09d2 632B0000 		.4byte	.LASF148
 2963 09d6 06       		.byte	0x6
 2964 09d7 44       		.byte	0x44
 2965 09d8 AE000000 		.4byte	0xae
 2966 09dc 29       		.byte	0x29
 2967 09dd 0B       		.uleb128 0xb
 2968 09de CD0F0000 		.4byte	.LASF149
 2969 09e2 06       		.byte	0x6
 2970 09e3 45       		.byte	0x45
 2971 09e4 AE000000 		.4byte	0xae
 2972 09e8 2A       		.byte	0x2a
ARM GAS  C:\Users\D4DE~1\AppData\Local\Temp\cccuUyWy.s 			page 88


 2973 09e9 0B       		.uleb128 0xb
 2974 09ea 1A2E0000 		.4byte	.LASF150
 2975 09ee 06       		.byte	0x6
 2976 09ef 46       		.byte	0x46
 2977 09f0 AE000000 		.4byte	0xae
 2978 09f4 2B       		.byte	0x2b
 2979 09f5 0B       		.uleb128 0xb
 2980 09f6 184F0000 		.4byte	.LASF151
 2981 09fa 06       		.byte	0x6
 2982 09fb 47       		.byte	0x47
 2983 09fc AE000000 		.4byte	0xae
 2984 0a00 2C       		.byte	0x2c
 2985 0a01 0B       		.uleb128 0xb
 2986 0a02 A0550000 		.4byte	.LASF152
 2987 0a06 06       		.byte	0x6
 2988 0a07 48       		.byte	0x48
 2989 0a08 AE000000 		.4byte	0xae
 2990 0a0c 2D       		.byte	0x2d
 2991 0a0d 0B       		.uleb128 0xb
 2992 0a0e 6A1B0000 		.4byte	.LASF153
 2993 0a12 06       		.byte	0x6
 2994 0a13 49       		.byte	0x49
 2995 0a14 AE000000 		.4byte	0xae
 2996 0a18 2E       		.byte	0x2e
 2997 0a19 0B       		.uleb128 0xb
 2998 0a1a BC1B0000 		.4byte	.LASF154
 2999 0a1e 06       		.byte	0x6
 3000 0a1f 4A       		.byte	0x4a
 3001 0a20 AE000000 		.4byte	0xae
 3002 0a24 2F       		.byte	0x2f
 3003 0a25 0B       		.uleb128 0xb
 3004 0a26 FA610000 		.4byte	.LASF155
 3005 0a2a 06       		.byte	0x6
 3006 0a2b 4B       		.byte	0x4b
 3007 0a2c AE000000 		.4byte	0xae
 3008 0a30 30       		.byte	0x30
 3009 0a31 0B       		.uleb128 0xb
 3010 0a32 33270000 		.4byte	.LASF156
 3011 0a36 06       		.byte	0x6
 3012 0a37 4E       		.byte	0x4e
 3013 0a38 AE000000 		.4byte	0xae
 3014 0a3c 31       		.byte	0x31
 3015 0a3d 0B       		.uleb128 0xb
 3016 0a3e 65100000 		.4byte	.LASF157
 3017 0a42 06       		.byte	0x6
 3018 0a43 4F       		.byte	0x4f
 3019 0a44 AE000000 		.4byte	0xae
 3020 0a48 32       		.byte	0x32
 3021 0a49 0B       		.uleb128 0xb
 3022 0a4a 7A020000 		.4byte	.LASF158
 3023 0a4e 06       		.byte	0x6
 3024 0a4f 50       		.byte	0x50
 3025 0a50 AE000000 		.4byte	0xae
 3026 0a54 33       		.byte	0x33
 3027 0a55 0B       		.uleb128 0xb
 3028 0a56 27610000 		.4byte	.LASF159
 3029 0a5a 06       		.byte	0x6
ARM GAS  C:\Users\D4DE~1\AppData\Local\Temp\cccuUyWy.s 			page 89


 3030 0a5b 51       		.byte	0x51
 3031 0a5c AE000000 		.4byte	0xae
 3032 0a60 34       		.byte	0x34
 3033 0a61 0B       		.uleb128 0xb
 3034 0a62 EC790000 		.4byte	.LASF160
 3035 0a66 06       		.byte	0x6
 3036 0a67 52       		.byte	0x52
 3037 0a68 B9000000 		.4byte	0xb9
 3038 0a6c 36       		.byte	0x36
 3039 0a6d 0B       		.uleb128 0xb
 3040 0a6e D55E0000 		.4byte	.LASF161
 3041 0a72 06       		.byte	0x6
 3042 0a73 53       		.byte	0x53
 3043 0a74 B9000000 		.4byte	0xb9
 3044 0a78 38       		.byte	0x38
 3045 0a79 0B       		.uleb128 0xb
 3046 0a7a C34A0000 		.4byte	.LASF162
 3047 0a7e 06       		.byte	0x6
 3048 0a7f 54       		.byte	0x54
 3049 0a80 B9000000 		.4byte	0xb9
 3050 0a84 3A       		.byte	0x3a
 3051 0a85 0B       		.uleb128 0xb
 3052 0a86 C4560000 		.4byte	.LASF163
 3053 0a8a 06       		.byte	0x6
 3054 0a8b 55       		.byte	0x55
 3055 0a8c AE000000 		.4byte	0xae
 3056 0a90 3C       		.byte	0x3c
 3057 0a91 0B       		.uleb128 0xb
 3058 0a92 82070000 		.4byte	.LASF164
 3059 0a96 06       		.byte	0x6
 3060 0a97 56       		.byte	0x56
 3061 0a98 AE000000 		.4byte	0xae
 3062 0a9c 3D       		.byte	0x3d
 3063 0a9d 0B       		.uleb128 0xb
 3064 0a9e 0D330000 		.4byte	.LASF165
 3065 0aa2 06       		.byte	0x6
 3066 0aa3 57       		.byte	0x57
 3067 0aa4 AE000000 		.4byte	0xae
 3068 0aa8 3E       		.byte	0x3e
 3069 0aa9 0B       		.uleb128 0xb
 3070 0aaa B7710000 		.4byte	.LASF166
 3071 0aae 06       		.byte	0x6
 3072 0aaf 58       		.byte	0x58
 3073 0ab0 AE000000 		.4byte	0xae
 3074 0ab4 3F       		.byte	0x3f
 3075 0ab5 0B       		.uleb128 0xb
 3076 0ab6 62270000 		.4byte	.LASF167
 3077 0aba 06       		.byte	0x6
 3078 0abb 59       		.byte	0x59
 3079 0abc AE000000 		.4byte	0xae
 3080 0ac0 40       		.byte	0x40
 3081 0ac1 0B       		.uleb128 0xb
 3082 0ac2 B53F0000 		.4byte	.LASF168
 3083 0ac6 06       		.byte	0x6
 3084 0ac7 5A       		.byte	0x5a
 3085 0ac8 AE000000 		.4byte	0xae
 3086 0acc 41       		.byte	0x41
ARM GAS  C:\Users\D4DE~1\AppData\Local\Temp\cccuUyWy.s 			page 90


 3087 0acd 0B       		.uleb128 0xb
 3088 0ace 5D700000 		.4byte	.LASF169
 3089 0ad2 06       		.byte	0x6
 3090 0ad3 5B       		.byte	0x5b
 3091 0ad4 AE000000 		.4byte	0xae
 3092 0ad8 42       		.byte	0x42
 3093 0ad9 0B       		.uleb128 0xb
 3094 0ada 69700000 		.4byte	.LASF170
 3095 0ade 06       		.byte	0x6
 3096 0adf 5C       		.byte	0x5c
 3097 0ae0 AE000000 		.4byte	0xae
 3098 0ae4 43       		.byte	0x43
 3099 0ae5 0B       		.uleb128 0xb
 3100 0ae6 3A020000 		.4byte	.LASF171
 3101 0aea 06       		.byte	0x6
 3102 0aeb 5D       		.byte	0x5d
 3103 0aec AE000000 		.4byte	0xae
 3104 0af0 44       		.byte	0x44
 3105 0af1 0B       		.uleb128 0xb
 3106 0af2 6C540000 		.4byte	.LASF172
 3107 0af6 06       		.byte	0x6
 3108 0af7 5E       		.byte	0x5e
 3109 0af8 CF000000 		.4byte	0xcf
 3110 0afc 48       		.byte	0x48
 3111 0afd 0B       		.uleb128 0xb
 3112 0afe C9340000 		.4byte	.LASF173
 3113 0b02 06       		.byte	0x6
 3114 0b03 5F       		.byte	0x5f
 3115 0b04 CF000000 		.4byte	0xcf
 3116 0b08 4C       		.byte	0x4c
 3117 0b09 0B       		.uleb128 0xb
 3118 0b0a 39450000 		.4byte	.LASF174
 3119 0b0e 06       		.byte	0x6
 3120 0b0f 60       		.byte	0x60
 3121 0b10 AE000000 		.4byte	0xae
 3122 0b14 50       		.byte	0x50
 3123 0b15 0B       		.uleb128 0xb
 3124 0b16 43330000 		.4byte	.LASF175
 3125 0b1a 06       		.byte	0x6
 3126 0b1b 61       		.byte	0x61
 3127 0b1c AE000000 		.4byte	0xae
 3128 0b20 51       		.byte	0x51
 3129 0b21 0B       		.uleb128 0xb
 3130 0b22 F45D0000 		.4byte	.LASF176
 3131 0b26 06       		.byte	0x6
 3132 0b27 62       		.byte	0x62
 3133 0b28 AE000000 		.4byte	0xae
 3134 0b2c 52       		.byte	0x52
 3135 0b2d 0B       		.uleb128 0xb
 3136 0b2e 9E6C0000 		.4byte	.LASF177
 3137 0b32 06       		.byte	0x6
 3138 0b33 63       		.byte	0x63
 3139 0b34 AE000000 		.4byte	0xae
 3140 0b38 53       		.byte	0x53
 3141 0b39 0B       		.uleb128 0xb
 3142 0b3a B2350000 		.4byte	.LASF178
 3143 0b3e 06       		.byte	0x6
ARM GAS  C:\Users\D4DE~1\AppData\Local\Temp\cccuUyWy.s 			page 91


 3144 0b3f 64       		.byte	0x64
 3145 0b40 AE000000 		.4byte	0xae
 3146 0b44 54       		.byte	0x54
 3147 0b45 0B       		.uleb128 0xb
 3148 0b46 E6560000 		.4byte	.LASF179
 3149 0b4a 06       		.byte	0x6
 3150 0b4b 65       		.byte	0x65
 3151 0b4c AE000000 		.4byte	0xae
 3152 0b50 55       		.byte	0x55
 3153 0b51 0B       		.uleb128 0xb
 3154 0b52 6E670000 		.4byte	.LASF180
 3155 0b56 06       		.byte	0x6
 3156 0b57 66       		.byte	0x66
 3157 0b58 AE000000 		.4byte	0xae
 3158 0b5c 56       		.byte	0x56
 3159 0b5d 0B       		.uleb128 0xb
 3160 0b5e 7A7A0000 		.4byte	.LASF181
 3161 0b62 06       		.byte	0x6
 3162 0b63 67       		.byte	0x67
 3163 0b64 AE000000 		.4byte	0xae
 3164 0b68 57       		.byte	0x57
 3165 0b69 0B       		.uleb128 0xb
 3166 0b6a 6C0E0000 		.4byte	.LASF182
 3167 0b6e 06       		.byte	0x6
 3168 0b6f 68       		.byte	0x68
 3169 0b70 AE000000 		.4byte	0xae
 3170 0b74 58       		.byte	0x58
 3171 0b75 0B       		.uleb128 0xb
 3172 0b76 93220000 		.4byte	.LASF183
 3173 0b7a 06       		.byte	0x6
 3174 0b7b 69       		.byte	0x69
 3175 0b7c AE000000 		.4byte	0xae
 3176 0b80 59       		.byte	0x59
 3177 0b81 0B       		.uleb128 0xb
 3178 0b82 61540000 		.4byte	.LASF184
 3179 0b86 06       		.byte	0x6
 3180 0b87 6E       		.byte	0x6e
 3181 0b88 C4000000 		.4byte	0xc4
 3182 0b8c 5A       		.byte	0x5a
 3183 0b8d 0B       		.uleb128 0xb
 3184 0b8e D1290000 		.4byte	.LASF185
 3185 0b92 06       		.byte	0x6
 3186 0b93 6F       		.byte	0x6f
 3187 0b94 C4000000 		.4byte	0xc4
 3188 0b98 5C       		.byte	0x5c
 3189 0b99 0B       		.uleb128 0xb
 3190 0b9a B5260000 		.4byte	.LASF186
 3191 0b9e 06       		.byte	0x6
 3192 0b9f 70       		.byte	0x70
 3193 0ba0 AE000000 		.4byte	0xae
 3194 0ba4 5E       		.byte	0x5e
 3195 0ba5 0B       		.uleb128 0xb
 3196 0ba6 ED480000 		.4byte	.LASF187
 3197 0baa 06       		.byte	0x6
 3198 0bab 71       		.byte	0x71
 3199 0bac AE000000 		.4byte	0xae
 3200 0bb0 5F       		.byte	0x5f
ARM GAS  C:\Users\D4DE~1\AppData\Local\Temp\cccuUyWy.s 			page 92


 3201 0bb1 0B       		.uleb128 0xb
 3202 0bb2 80080000 		.4byte	.LASF188
 3203 0bb6 06       		.byte	0x6
 3204 0bb7 72       		.byte	0x72
 3205 0bb8 AE000000 		.4byte	0xae
 3206 0bbc 60       		.byte	0x60
 3207 0bbd 0B       		.uleb128 0xb
 3208 0bbe 443B0000 		.4byte	.LASF189
 3209 0bc2 06       		.byte	0x6
 3210 0bc3 73       		.byte	0x73
 3211 0bc4 CF000000 		.4byte	0xcf
 3212 0bc8 64       		.byte	0x64
 3213 0bc9 0B       		.uleb128 0xb
 3214 0bca 7C550000 		.4byte	.LASF190
 3215 0bce 06       		.byte	0x6
 3216 0bcf 76       		.byte	0x76
 3217 0bd0 C4000000 		.4byte	0xc4
 3218 0bd4 68       		.byte	0x68
 3219 0bd5 0B       		.uleb128 0xb
 3220 0bd6 B6700000 		.4byte	.LASF191
 3221 0bda 06       		.byte	0x6
 3222 0bdb 77       		.byte	0x77
 3223 0bdc C4000000 		.4byte	0xc4
 3224 0be0 6A       		.byte	0x6a
 3225 0be1 0B       		.uleb128 0xb
 3226 0be2 640D0000 		.4byte	.LASF192
 3227 0be6 06       		.byte	0x6
 3228 0be7 78       		.byte	0x78
 3229 0be8 C4000000 		.4byte	0xc4
 3230 0bec 6C       		.byte	0x6c
 3231 0bed 0B       		.uleb128 0xb
 3232 0bee 286F0000 		.4byte	.LASF193
 3233 0bf2 06       		.byte	0x6
 3234 0bf3 79       		.byte	0x79
 3235 0bf4 C4000000 		.4byte	0xc4
 3236 0bf8 6E       		.byte	0x6e
 3237 0bf9 0B       		.uleb128 0xb
 3238 0bfa D60D0000 		.4byte	.LASF194
 3239 0bfe 06       		.byte	0x6
 3240 0bff 7B       		.byte	0x7b
 3241 0c00 AE000000 		.4byte	0xae
 3242 0c04 70       		.byte	0x70
 3243 0c05 0B       		.uleb128 0xb
 3244 0c06 98240000 		.4byte	.LASF195
 3245 0c0a 06       		.byte	0x6
 3246 0c0b 7C       		.byte	0x7c
 3247 0c0c AE000000 		.4byte	0xae
 3248 0c10 71       		.byte	0x71
 3249 0c11 0B       		.uleb128 0xb
 3250 0c12 751B0000 		.4byte	.LASF196
 3251 0c16 06       		.byte	0x6
 3252 0c17 7D       		.byte	0x7d
 3253 0c18 AE000000 		.4byte	0xae
 3254 0c1c 72       		.byte	0x72
 3255 0c1d 0B       		.uleb128 0xb
 3256 0c1e EA2B0000 		.4byte	.LASF197
 3257 0c22 06       		.byte	0x6
ARM GAS  C:\Users\D4DE~1\AppData\Local\Temp\cccuUyWy.s 			page 93


 3258 0c23 7E       		.byte	0x7e
 3259 0c24 AE000000 		.4byte	0xae
 3260 0c28 73       		.byte	0x73
 3261 0c29 0B       		.uleb128 0xb
 3262 0c2a 6F2C0000 		.4byte	.LASF198
 3263 0c2e 06       		.byte	0x6
 3264 0c2f 80       		.byte	0x80
 3265 0c30 C4000000 		.4byte	0xc4
 3266 0c34 74       		.byte	0x74
 3267 0c35 0B       		.uleb128 0xb
 3268 0c36 E0280000 		.4byte	.LASF199
 3269 0c3a 06       		.byte	0x6
 3270 0c3b 81       		.byte	0x81
 3271 0c3c C4000000 		.4byte	0xc4
 3272 0c40 76       		.byte	0x76
 3273 0c41 0B       		.uleb128 0xb
 3274 0c42 52660000 		.4byte	.LASF200
 3275 0c46 06       		.byte	0x6
 3276 0c47 82       		.byte	0x82
 3277 0c48 C4000000 		.4byte	0xc4
 3278 0c4c 78       		.byte	0x78
 3279 0c4d 0B       		.uleb128 0xb
 3280 0c4e 5C5C0000 		.4byte	.LASF201
 3281 0c52 06       		.byte	0x6
 3282 0c53 83       		.byte	0x83
 3283 0c54 C4000000 		.4byte	0xc4
 3284 0c58 7A       		.byte	0x7a
 3285 0c59 0B       		.uleb128 0xb
 3286 0c5a F1540000 		.4byte	.LASF202
 3287 0c5e 06       		.byte	0x6
 3288 0c5f 86       		.byte	0x86
 3289 0c60 AE000000 		.4byte	0xae
 3290 0c64 7C       		.byte	0x7c
 3291 0c65 0B       		.uleb128 0xb
 3292 0c66 8C750000 		.4byte	.LASF203
 3293 0c6a 06       		.byte	0x6
 3294 0c6b 87       		.byte	0x87
 3295 0c6c AE000000 		.4byte	0xae
 3296 0c70 7D       		.byte	0x7d
 3297 0c71 0B       		.uleb128 0xb
 3298 0c72 21800000 		.4byte	.LASF204
 3299 0c76 06       		.byte	0x6
 3300 0c77 88       		.byte	0x88
 3301 0c78 AE000000 		.4byte	0xae
 3302 0c7c 7E       		.byte	0x7e
 3303 0c7d 0B       		.uleb128 0xb
 3304 0c7e D62B0000 		.4byte	.LASF205
 3305 0c82 06       		.byte	0x6
 3306 0c83 89       		.byte	0x89
 3307 0c84 AE000000 		.4byte	0xae
 3308 0c88 7F       		.byte	0x7f
 3309 0c89 0B       		.uleb128 0xb
 3310 0c8a F90A0000 		.4byte	.LASF206
 3311 0c8e 06       		.byte	0x6
 3312 0c8f 8A       		.byte	0x8a
 3313 0c90 AE000000 		.4byte	0xae
 3314 0c94 80       		.byte	0x80
ARM GAS  C:\Users\D4DE~1\AppData\Local\Temp\cccuUyWy.s 			page 94


 3315 0c95 0B       		.uleb128 0xb
 3316 0c96 AE720000 		.4byte	.LASF207
 3317 0c9a 06       		.byte	0x6
 3318 0c9b 8D       		.byte	0x8d
 3319 0c9c CF000000 		.4byte	0xcf
 3320 0ca0 84       		.byte	0x84
 3321 0ca1 0B       		.uleb128 0xb
 3322 0ca2 D6480000 		.4byte	.LASF208
 3323 0ca6 06       		.byte	0x6
 3324 0ca7 8E       		.byte	0x8e
 3325 0ca8 CF000000 		.4byte	0xcf
 3326 0cac 88       		.byte	0x88
 3327 0cad 0B       		.uleb128 0xb
 3328 0cae 6C2F0000 		.4byte	.LASF209
 3329 0cb2 06       		.byte	0x6
 3330 0cb3 8F       		.byte	0x8f
 3331 0cb4 CF000000 		.4byte	0xcf
 3332 0cb8 8C       		.byte	0x8c
 3333 0cb9 0B       		.uleb128 0xb
 3334 0cba 85690000 		.4byte	.LASF210
 3335 0cbe 06       		.byte	0x6
 3336 0cbf 90       		.byte	0x90
 3337 0cc0 CF000000 		.4byte	0xcf
 3338 0cc4 90       		.byte	0x90
 3339 0cc5 0B       		.uleb128 0xb
 3340 0cc6 B95D0000 		.4byte	.LASF211
 3341 0cca 06       		.byte	0x6
 3342 0ccb 91       		.byte	0x91
 3343 0ccc CF000000 		.4byte	0xcf
 3344 0cd0 94       		.byte	0x94
 3345 0cd1 0B       		.uleb128 0xb
 3346 0cd2 09110000 		.4byte	.LASF212
 3347 0cd6 06       		.byte	0x6
 3348 0cd7 92       		.byte	0x92
 3349 0cd8 CF000000 		.4byte	0xcf
 3350 0cdc 98       		.byte	0x98
 3351 0cdd 0B       		.uleb128 0xb
 3352 0cde 1B4C0000 		.4byte	.LASF213
 3353 0ce2 06       		.byte	0x6
 3354 0ce3 93       		.byte	0x93
 3355 0ce4 CF000000 		.4byte	0xcf
 3356 0ce8 9C       		.byte	0x9c
 3357 0ce9 0B       		.uleb128 0xb
 3358 0cea 46180000 		.4byte	.LASF214
 3359 0cee 06       		.byte	0x6
 3360 0cef 94       		.byte	0x94
 3361 0cf0 CF000000 		.4byte	0xcf
 3362 0cf4 A0       		.byte	0xa0
 3363 0cf5 0B       		.uleb128 0xb
 3364 0cf6 6D220000 		.4byte	.LASF215
 3365 0cfa 06       		.byte	0x6
 3366 0cfb 95       		.byte	0x95
 3367 0cfc C4000000 		.4byte	0xc4
 3368 0d00 A4       		.byte	0xa4
 3369 0d01 0B       		.uleb128 0xb
 3370 0d02 BF680000 		.4byte	.LASF216
 3371 0d06 06       		.byte	0x6
ARM GAS  C:\Users\D4DE~1\AppData\Local\Temp\cccuUyWy.s 			page 95


 3372 0d07 96       		.byte	0x96
 3373 0d08 C4000000 		.4byte	0xc4
 3374 0d0c A6       		.byte	0xa6
 3375 0d0d 0B       		.uleb128 0xb
 3376 0d0e FC310000 		.4byte	.LASF217
 3377 0d12 06       		.byte	0x6
 3378 0d13 97       		.byte	0x97
 3379 0d14 C4000000 		.4byte	0xc4
 3380 0d18 A8       		.byte	0xa8
 3381 0d19 0B       		.uleb128 0xb
 3382 0d1a 72200000 		.4byte	.LASF218
 3383 0d1e 06       		.byte	0x6
 3384 0d1f 98       		.byte	0x98
 3385 0d20 C4000000 		.4byte	0xc4
 3386 0d24 AA       		.byte	0xaa
 3387 0d25 0B       		.uleb128 0xb
 3388 0d26 83330000 		.4byte	.LASF219
 3389 0d2a 06       		.byte	0x6
 3390 0d2b 99       		.byte	0x99
 3391 0d2c C4000000 		.4byte	0xc4
 3392 0d30 AC       		.byte	0xac
 3393 0d31 0B       		.uleb128 0xb
 3394 0d32 FA490000 		.4byte	.LASF220
 3395 0d36 06       		.byte	0x6
 3396 0d37 9A       		.byte	0x9a
 3397 0d38 C4000000 		.4byte	0xc4
 3398 0d3c AE       		.byte	0xae
 3399 0d3d 0B       		.uleb128 0xb
 3400 0d3e DF5F0000 		.4byte	.LASF221
 3401 0d42 06       		.byte	0x6
 3402 0d43 9D       		.byte	0x9d
 3403 0d44 C4000000 		.4byte	0xc4
 3404 0d48 B0       		.byte	0xb0
 3405 0d49 0B       		.uleb128 0xb
 3406 0d4a 79640000 		.4byte	.LASF222
 3407 0d4e 06       		.byte	0x6
 3408 0d4f 9E       		.byte	0x9e
 3409 0d50 CF000000 		.4byte	0xcf
 3410 0d54 B4       		.byte	0xb4
 3411 0d55 00       		.byte	0
 3412 0d56 04       		.uleb128 0x4
 3413 0d57 EF7B0000 		.4byte	.LASF223
 3414 0d5b 06       		.byte	0x6
 3415 0d5c 9F       		.byte	0x9f
 3416 0d5d 45090000 		.4byte	0x945
 3417 0d61 0F       		.uleb128 0xf
 3418 0d62 02       		.byte	0x2
 3419 0d63 65000000 		.4byte	0x65
 3420 0d67 07       		.byte	0x7
 3421 0d68 24       		.byte	0x24
 3422 0d69 580E0000 		.4byte	0xe58
 3423 0d6d 10       		.uleb128 0x10
 3424 0d6e 58770000 		.4byte	.LASF224
 3425 0d72 71       		.sleb128 -15
 3426 0d73 10       		.uleb128 0x10
 3427 0d74 2A200000 		.4byte	.LASF225
 3428 0d78 72       		.sleb128 -14
ARM GAS  C:\Users\D4DE~1\AppData\Local\Temp\cccuUyWy.s 			page 96


 3429 0d79 10       		.uleb128 0x10
 3430 0d7a C7480000 		.4byte	.LASF226
 3431 0d7e 73       		.sleb128 -13
 3432 0d7f 10       		.uleb128 0x10
 3433 0d80 967C0000 		.4byte	.LASF227
 3434 0d84 7B       		.sleb128 -5
 3435 0d85 10       		.uleb128 0x10
 3436 0d86 CD7D0000 		.4byte	.LASF228
 3437 0d8a 7E       		.sleb128 -2
 3438 0d8b 10       		.uleb128 0x10
 3439 0d8c FB170000 		.4byte	.LASF229
 3440 0d90 7F       		.sleb128 -1
 3441 0d91 11       		.uleb128 0x11
 3442 0d92 D9500000 		.4byte	.LASF230
 3443 0d96 00       		.byte	0
 3444 0d97 11       		.uleb128 0x11
 3445 0d98 7E750000 		.4byte	.LASF231
 3446 0d9c 01       		.byte	0x1
 3447 0d9d 11       		.uleb128 0x11
 3448 0d9e 221E0000 		.4byte	.LASF232
 3449 0da2 02       		.byte	0x2
 3450 0da3 11       		.uleb128 0x11
 3451 0da4 99480000 		.4byte	.LASF233
 3452 0da8 03       		.byte	0x3
 3453 0da9 11       		.uleb128 0x11
 3454 0daa F46E0000 		.4byte	.LASF234
 3455 0dae 04       		.byte	0x4
 3456 0daf 11       		.uleb128 0x11
 3457 0db0 5E160000 		.4byte	.LASF235
 3458 0db4 05       		.byte	0x5
 3459 0db5 11       		.uleb128 0x11
 3460 0db6 223F0000 		.4byte	.LASF236
 3461 0dba 06       		.byte	0x6
 3462 0dbb 11       		.uleb128 0x11
 3463 0dbc 8C660000 		.4byte	.LASF237
 3464 0dc0 07       		.byte	0x7
 3465 0dc1 11       		.uleb128 0x11
 3466 0dc2 BA0C0000 		.4byte	.LASF238
 3467 0dc6 08       		.byte	0x8
 3468 0dc7 11       		.uleb128 0x11
 3469 0dc8 C2350000 		.4byte	.LASF239
 3470 0dcc 09       		.byte	0x9
 3471 0dcd 11       		.uleb128 0x11
 3472 0dce EC060000 		.4byte	.LASF240
 3473 0dd2 0A       		.byte	0xa
 3474 0dd3 11       		.uleb128 0x11
 3475 0dd4 2F310000 		.4byte	.LASF241
 3476 0dd8 0B       		.byte	0xb
 3477 0dd9 11       		.uleb128 0x11
 3478 0dda 245A0000 		.4byte	.LASF242
 3479 0dde 0C       		.byte	0xc
 3480 0ddf 11       		.uleb128 0x11
 3481 0de0 A97F0000 		.4byte	.LASF243
 3482 0de4 0D       		.byte	0xd
 3483 0de5 11       		.uleb128 0x11
 3484 0de6 C2290000 		.4byte	.LASF244
 3485 0dea 0E       		.byte	0xe
ARM GAS  C:\Users\D4DE~1\AppData\Local\Temp\cccuUyWy.s 			page 97


 3486 0deb 11       		.uleb128 0x11
 3487 0dec A0510000 		.4byte	.LASF245
 3488 0df0 0F       		.byte	0xf
 3489 0df1 11       		.uleb128 0x11
 3490 0df2 63770000 		.4byte	.LASF246
 3491 0df6 10       		.byte	0x10
 3492 0df7 11       		.uleb128 0x11
 3493 0df8 63200000 		.4byte	.LASF247
 3494 0dfc 11       		.byte	0x11
 3495 0dfd 11       		.uleb128 0x11
 3496 0dfe EB490000 		.4byte	.LASF248
 3497 0e02 12       		.byte	0x12
 3498 0e03 11       		.uleb128 0x11
 3499 0e04 4E700000 		.4byte	.LASF249
 3500 0e08 13       		.byte	0x13
 3501 0e09 11       		.uleb128 0x11
 3502 0e0a 627D0000 		.4byte	.LASF250
 3503 0e0e 14       		.byte	0x14
 3504 0e0f 11       		.uleb128 0x11
 3505 0e10 E0260000 		.4byte	.LASF251
 3506 0e14 15       		.byte	0x15
 3507 0e15 11       		.uleb128 0x11
 3508 0e16 B54F0000 		.4byte	.LASF252
 3509 0e1a 16       		.byte	0x16
 3510 0e1b 11       		.uleb128 0x11
 3511 0e1c 36750000 		.4byte	.LASF253
 3512 0e20 17       		.byte	0x17
 3513 0e21 11       		.uleb128 0x11
 3514 0e22 A21D0000 		.4byte	.LASF254
 3515 0e26 18       		.byte	0x18
 3516 0e27 11       		.uleb128 0x11
 3517 0e28 A2460000 		.4byte	.LASF255
 3518 0e2c 19       		.byte	0x19
 3519 0e2d 11       		.uleb128 0x11
 3520 0e2e 9D6D0000 		.4byte	.LASF256
 3521 0e32 1A       		.byte	0x1a
 3522 0e33 11       		.uleb128 0x11
 3523 0e34 B0150000 		.4byte	.LASF257
 3524 0e38 1B       		.byte	0x1b
 3525 0e39 11       		.uleb128 0x11
 3526 0e3a 9A3D0000 		.4byte	.LASF258
 3527 0e3e 1C       		.byte	0x1c
 3528 0e3f 11       		.uleb128 0x11
 3529 0e40 75650000 		.4byte	.LASF259
 3530 0e44 1D       		.byte	0x1d
 3531 0e45 11       		.uleb128 0x11
 3532 0e46 5E720000 		.4byte	.LASF260
 3533 0e4a 1E       		.byte	0x1e
 3534 0e4b 11       		.uleb128 0x11
 3535 0e4c 101A0000 		.4byte	.LASF261
 3536 0e50 1F       		.byte	0x1f
 3537 0e51 11       		.uleb128 0x11
 3538 0e52 82220000 		.4byte	.LASF262
 3539 0e56 F0       		.byte	0xf0
 3540 0e57 00       		.byte	0
 3541 0e58 04       		.uleb128 0x4
 3542 0e59 A0630000 		.4byte	.LASF263
ARM GAS  C:\Users\D4DE~1\AppData\Local\Temp\cccuUyWy.s 			page 98


 3543 0e5d 07       		.byte	0x7
 3544 0e5e F4       		.byte	0xf4
 3545 0e5f 610D0000 		.4byte	0xd61
 3546 0e63 0F       		.uleb128 0xf
 3547 0e64 01       		.byte	0x1
 3548 0e65 53000000 		.4byte	0x53
 3549 0e69 07       		.byte	0x7
 3550 0e6a FD       		.byte	0xfd
 3551 0e6b E8110000 		.4byte	0x11e8
 3552 0e6f 11       		.uleb128 0x11
 3553 0e70 EA470000 		.4byte	.LASF264
 3554 0e74 00       		.byte	0
 3555 0e75 11       		.uleb128 0x11
 3556 0e76 AF6E0000 		.4byte	.LASF265
 3557 0e7a 01       		.byte	0x1
 3558 0e7b 11       		.uleb128 0x11
 3559 0e7c EA150000 		.4byte	.LASF266
 3560 0e80 02       		.byte	0x2
 3561 0e81 11       		.uleb128 0x11
 3562 0e82 C23E0000 		.4byte	.LASF267
 3563 0e86 03       		.byte	0x3
 3564 0e87 11       		.uleb128 0x11
 3565 0e88 2C660000 		.4byte	.LASF268
 3566 0e8c 04       		.byte	0x4
 3567 0e8d 11       		.uleb128 0x11
 3568 0e8e E60B0000 		.4byte	.LASF269
 3569 0e92 05       		.byte	0x5
 3570 0e93 11       		.uleb128 0x11
 3571 0e94 60350000 		.4byte	.LASF270
 3572 0e98 06       		.byte	0x6
 3573 0e99 11       		.uleb128 0x11
 3574 0e9a 8C5F0000 		.4byte	.LASF271
 3575 0e9e 07       		.byte	0x7
 3576 0e9f 11       		.uleb128 0x11
 3577 0ea0 40030000 		.4byte	.LASF272
 3578 0ea4 08       		.byte	0x8
 3579 0ea5 11       		.uleb128 0x11
 3580 0ea6 3E2E0000 		.4byte	.LASF273
 3581 0eaa 09       		.byte	0x9
 3582 0eab 11       		.uleb128 0x11
 3583 0eac D84A0000 		.4byte	.LASF274
 3584 0eb0 0A       		.byte	0xa
 3585 0eb1 11       		.uleb128 0x11
 3586 0eb2 99700000 		.4byte	.LASF275
 3587 0eb6 0B       		.byte	0xb
 3588 0eb7 11       		.uleb128 0x11
 3589 0eb8 23190000 		.4byte	.LASF276
 3590 0ebc 0C       		.byte	0xc
 3591 0ebd 11       		.uleb128 0x11
 3592 0ebe 6D720000 		.4byte	.LASF277
 3593 0ec2 0D       		.byte	0xd
 3594 0ec3 11       		.uleb128 0x11
 3595 0ec4 A2680000 		.4byte	.LASF278
 3596 0ec8 0E       		.byte	0xe
 3597 0ec9 11       		.uleb128 0x11
 3598 0eca C6460000 		.4byte	.LASF279
 3599 0ece 0F       		.byte	0xf
ARM GAS  C:\Users\D4DE~1\AppData\Local\Temp\cccuUyWy.s 			page 99


 3600 0ecf 11       		.uleb128 0x11
 3601 0ed0 74700000 		.4byte	.LASF280
 3602 0ed4 10       		.byte	0x10
 3603 0ed5 11       		.uleb128 0x11
 3604 0ed6 613B0000 		.4byte	.LASF281
 3605 0eda 11       		.byte	0x11
 3606 0edb 11       		.uleb128 0x11
 3607 0edc CF030000 		.4byte	.LASF282
 3608 0ee0 12       		.byte	0x12
 3609 0ee1 11       		.uleb128 0x11
 3610 0ee2 C1080000 		.4byte	.LASF283
 3611 0ee6 13       		.byte	0x13
 3612 0ee7 11       		.uleb128 0x11
 3613 0ee8 55320000 		.4byte	.LASF284
 3614 0eec 14       		.byte	0x14
 3615 0eed 11       		.uleb128 0x11
 3616 0eee 21410000 		.4byte	.LASF285
 3617 0ef2 15       		.byte	0x15
 3618 0ef3 11       		.uleb128 0x11
 3619 0ef4 D20B0000 		.4byte	.LASF286
 3620 0ef8 16       		.byte	0x16
 3621 0ef9 11       		.uleb128 0x11
 3622 0efa 017F0000 		.4byte	.LASF287
 3623 0efe 17       		.byte	0x17
 3624 0eff 11       		.uleb128 0x11
 3625 0f00 BF2F0000 		.4byte	.LASF288
 3626 0f04 18       		.byte	0x18
 3627 0f05 11       		.uleb128 0x11
 3628 0f06 337E0000 		.4byte	.LASF289
 3629 0f0a 19       		.byte	0x19
 3630 0f0b 11       		.uleb128 0x11
 3631 0f0c D85C0000 		.4byte	.LASF290
 3632 0f10 1A       		.byte	0x1a
 3633 0f11 11       		.uleb128 0x11
 3634 0f12 8B500000 		.4byte	.LASF291
 3635 0f16 1B       		.byte	0x1b
 3636 0f17 11       		.uleb128 0x11
 3637 0f18 DD750000 		.4byte	.LASF292
 3638 0f1c 1C       		.byte	0x1c
 3639 0f1d 11       		.uleb128 0x11
 3640 0f1e 01250000 		.4byte	.LASF293
 3641 0f22 1D       		.byte	0x1d
 3642 0f23 11       		.uleb128 0x11
 3643 0f24 CE470000 		.4byte	.LASF294
 3644 0f28 1E       		.byte	0x1e
 3645 0f29 11       		.uleb128 0x11
 3646 0f2a 936E0000 		.4byte	.LASF295
 3647 0f2e 1F       		.byte	0x1f
 3648 0f2f 11       		.uleb128 0x11
 3649 0f30 356F0000 		.4byte	.LASF296
 3650 0f34 20       		.byte	0x20
 3651 0f35 11       		.uleb128 0x11
 3652 0f36 A63E0000 		.4byte	.LASF297
 3653 0f3a 21       		.byte	0x21
 3654 0f3b 11       		.uleb128 0x11
 3655 0f3c 10660000 		.4byte	.LASF298
 3656 0f40 22       		.byte	0x22
ARM GAS  C:\Users\D4DE~1\AppData\Local\Temp\cccuUyWy.s 			page 100


 3657 0f41 11       		.uleb128 0x11
 3658 0f42 4F0E0000 		.4byte	.LASF299
 3659 0f46 23       		.byte	0x23
 3660 0f47 11       		.uleb128 0x11
 3661 0f48 8D360000 		.4byte	.LASF300
 3662 0f4c 24       		.byte	0x24
 3663 0f4d 11       		.uleb128 0x11
 3664 0f4e 28600000 		.4byte	.LASF301
 3665 0f52 25       		.byte	0x25
 3666 0f53 11       		.uleb128 0x11
 3667 0f54 DE040000 		.4byte	.LASF302
 3668 0f58 26       		.byte	0x26
 3669 0f59 11       		.uleb128 0x11
 3670 0f5a D42F0000 		.4byte	.LASF303
 3671 0f5e 27       		.byte	0x27
 3672 0f5f 11       		.uleb128 0x11
 3673 0f60 A0590000 		.4byte	.LASF304
 3674 0f64 28       		.byte	0x28
 3675 0f65 11       		.uleb128 0x11
 3676 0f66 B4810000 		.4byte	.LASF305
 3677 0f6a 29       		.byte	0x29
 3678 0f6b 11       		.uleb128 0x11
 3679 0f6c E4440000 		.4byte	.LASF306
 3680 0f70 2A       		.byte	0x2a
 3681 0f71 11       		.uleb128 0x11
 3682 0f72 DC000000 		.4byte	.LASF307
 3683 0f76 2B       		.byte	0x2b
 3684 0f77 11       		.uleb128 0x11
 3685 0f78 C9450000 		.4byte	.LASF308
 3686 0f7c 2C       		.byte	0x2c
 3687 0f7d 11       		.uleb128 0x11
 3688 0f7e CA010000 		.4byte	.LASF309
 3689 0f82 2D       		.byte	0x2d
 3690 0f83 11       		.uleb128 0x11
 3691 0f84 B1460000 		.4byte	.LASF310
 3692 0f88 2E       		.byte	0x2e
 3693 0f89 11       		.uleb128 0x11
 3694 0f8a 2B030000 		.4byte	.LASF311
 3695 0f8e 2F       		.byte	0x2f
 3696 0f8f 11       		.uleb128 0x11
 3697 0f90 99470000 		.4byte	.LASF312
 3698 0f94 30       		.byte	0x30
 3699 0f95 11       		.uleb128 0x11
 3700 0f96 1B3B0000 		.4byte	.LASF313
 3701 0f9a 31       		.byte	0x31
 3702 0f9b 11       		.uleb128 0x11
 3703 0f9c 83310000 		.4byte	.LASF314
 3704 0fa0 32       		.byte	0x32
 3705 0fa1 11       		.uleb128 0x11
 3706 0fa2 F55A0000 		.4byte	.LASF315
 3707 0fa6 33       		.byte	0x33
 3708 0fa7 11       		.uleb128 0x11
 3709 0fa8 1C810000 		.4byte	.LASF316
 3710 0fac 34       		.byte	0x34
 3711 0fad 11       		.uleb128 0x11
 3712 0fae DA290000 		.4byte	.LASF317
 3713 0fb2 35       		.byte	0x35
ARM GAS  C:\Users\D4DE~1\AppData\Local\Temp\cccuUyWy.s 			page 101


 3714 0fb3 11       		.uleb128 0x11
 3715 0fb4 6C530000 		.4byte	.LASF318
 3716 0fb8 36       		.byte	0x36
 3717 0fb9 11       		.uleb128 0x11
 3718 0fba FD770000 		.4byte	.LASF319
 3719 0fbe 37       		.byte	0x37
 3720 0fbf 11       		.uleb128 0x11
 3721 0fc0 AB200000 		.4byte	.LASF320
 3722 0fc4 38       		.byte	0x38
 3723 0fc5 11       		.uleb128 0x11
 3724 0fc6 6F4B0000 		.4byte	.LASF321
 3725 0fca 39       		.byte	0x39
 3726 0fcb 11       		.uleb128 0x11
 3727 0fcc FD700000 		.4byte	.LASF322
 3728 0fd0 3A       		.byte	0x3a
 3729 0fd1 11       		.uleb128 0x11
 3730 0fd2 88190000 		.4byte	.LASF323
 3731 0fd6 3B       		.byte	0x3b
 3732 0fd7 11       		.uleb128 0x11
 3733 0fd8 4E690000 		.4byte	.LASF324
 3734 0fdc 3C       		.byte	0x3c
 3735 0fdd 11       		.uleb128 0x11
 3736 0fde 76110000 		.4byte	.LASF325
 3737 0fe2 3D       		.byte	0x3d
 3738 0fe3 11       		.uleb128 0x11
 3739 0fe4 D9390000 		.4byte	.LASF326
 3740 0fe8 3E       		.byte	0x3e
 3741 0fe9 11       		.uleb128 0x11
 3742 0fea 92610000 		.4byte	.LASF327
 3743 0fee 3F       		.byte	0x3f
 3744 0fef 11       		.uleb128 0x11
 3745 0ff0 E4070000 		.4byte	.LASF328
 3746 0ff4 40       		.byte	0x40
 3747 0ff5 11       		.uleb128 0x11
 3748 0ff6 13320000 		.4byte	.LASF329
 3749 0ffa 41       		.byte	0x41
 3750 0ffb 11       		.uleb128 0x11
 3751 0ffc 1B570000 		.4byte	.LASF330
 3752 1000 42       		.byte	0x42
 3753 1001 11       		.uleb128 0x11
 3754 1002 FD1E0000 		.4byte	.LASF331
 3755 1006 43       		.byte	0x43
 3756 1007 11       		.uleb128 0x11
 3757 1008 24250000 		.4byte	.LASF332
 3758 100c 44       		.byte	0x44
 3759 100d 11       		.uleb128 0x11
 3760 100e 774E0000 		.4byte	.LASF333
 3761 1012 45       		.byte	0x45
 3762 1013 11       		.uleb128 0x11
 3763 1014 B6730000 		.4byte	.LASF334
 3764 1018 46       		.byte	0x46
 3765 1019 11       		.uleb128 0x11
 3766 101a 5C1C0000 		.4byte	.LASF335
 3767 101e 47       		.byte	0x47
 3768 101f 11       		.uleb128 0x11
 3769 1020 4A450000 		.4byte	.LASF336
 3770 1024 48       		.byte	0x48
ARM GAS  C:\Users\D4DE~1\AppData\Local\Temp\cccuUyWy.s 			page 102


 3771 1025 11       		.uleb128 0x11
 3772 1026 556C0000 		.4byte	.LASF337
 3773 102a 49       		.byte	0x49
 3774 102b 11       		.uleb128 0x11
 3775 102c 09140000 		.4byte	.LASF338
 3776 1030 4A       		.byte	0x4a
 3777 1031 11       		.uleb128 0x11
 3778 1032 3A3C0000 		.4byte	.LASF339
 3779 1036 4B       		.byte	0x4b
 3780 1037 11       		.uleb128 0x11
 3781 1038 551D0000 		.4byte	.LASF340
 3782 103c 4C       		.byte	0x4c
 3783 103d 11       		.uleb128 0x11
 3784 103e 58470000 		.4byte	.LASF341
 3785 1042 4D       		.byte	0x4d
 3786 1043 11       		.uleb128 0x11
 3787 1044 2C6E0000 		.4byte	.LASF342
 3788 1048 4E       		.byte	0x4e
 3789 1049 11       		.uleb128 0x11
 3790 104a 7F150000 		.4byte	.LASF343
 3791 104e 4F       		.byte	0x4f
 3792 104f 11       		.uleb128 0x11
 3793 1050 4B3E0000 		.4byte	.LASF344
 3794 1054 50       		.byte	0x50
 3795 1055 11       		.uleb128 0x11
 3796 1056 C8650000 		.4byte	.LASF345
 3797 105a 51       		.byte	0x51
 3798 105b 11       		.uleb128 0x11
 3799 105c 71320000 		.4byte	.LASF346
 3800 1060 52       		.byte	0x52
 3801 1061 11       		.uleb128 0x11
 3802 1062 9B5C0000 		.4byte	.LASF347
 3803 1066 53       		.byte	0x53
 3804 1067 11       		.uleb128 0x11
 3805 1068 7E540000 		.4byte	.LASF348
 3806 106c 54       		.byte	0x54
 3807 106d 11       		.uleb128 0x11
 3808 106e 115D0000 		.4byte	.LASF349
 3809 1072 55       		.byte	0x55
 3810 1073 11       		.uleb128 0x11
 3811 1074 704A0000 		.4byte	.LASF350
 3812 1078 56       		.byte	0x56
 3813 1079 11       		.uleb128 0x11
 3814 107a 730D0000 		.4byte	.LASF351
 3815 107e 57       		.byte	0x57
 3816 107f 11       		.uleb128 0x11
 3817 1080 0D1C0000 		.4byte	.LASF352
 3818 1084 58       		.byte	0x58
 3819 1085 11       		.uleb128 0x11
 3820 1086 570C0000 		.4byte	.LASF353
 3821 108a 59       		.byte	0x59
 3822 108b 11       		.uleb128 0x11
 3823 108c D01A0000 		.4byte	.LASF354
 3824 1090 5A       		.byte	0x5a
 3825 1091 11       		.uleb128 0x11
 3826 1092 D8430000 		.4byte	.LASF355
 3827 1096 5B       		.byte	0x5b
ARM GAS  C:\Users\D4DE~1\AppData\Local\Temp\cccuUyWy.s 			page 103


 3828 1097 11       		.uleb128 0x11
 3829 1098 546A0000 		.4byte	.LASF356
 3830 109c 5C       		.byte	0x5c
 3831 109d 11       		.uleb128 0x11
 3832 109e A8120000 		.4byte	.LASF357
 3833 10a2 5D       		.byte	0x5d
 3834 10a3 11       		.uleb128 0x11
 3835 10a4 5C3A0000 		.4byte	.LASF358
 3836 10a8 5E       		.byte	0x5e
 3837 10a9 11       		.uleb128 0x11
 3838 10aa 04630000 		.4byte	.LASF359
 3839 10ae 5F       		.byte	0x5f
 3840 10af 11       		.uleb128 0x11
 3841 10b0 0C090000 		.4byte	.LASF360
 3842 10b4 60       		.byte	0x60
 3843 10b5 11       		.uleb128 0x11
 3844 10b6 3B320000 		.4byte	.LASF361
 3845 10ba 61       		.byte	0x61
 3846 10bb 11       		.uleb128 0x11
 3847 10bc 3E770000 		.4byte	.LASF362
 3848 10c0 62       		.byte	0x62
 3849 10c1 11       		.uleb128 0x11
 3850 10c2 371F0000 		.4byte	.LASF363
 3851 10c6 63       		.byte	0x63
 3852 10c7 11       		.uleb128 0x11
 3853 10c8 C1490000 		.4byte	.LASF364
 3854 10cc 64       		.byte	0x64
 3855 10cd 11       		.uleb128 0x11
 3856 10ce 34700000 		.4byte	.LASF365
 3857 10d2 65       		.byte	0x65
 3858 10d3 11       		.uleb128 0x11
 3859 10d4 951C0000 		.4byte	.LASF366
 3860 10d8 66       		.byte	0x66
 3861 10d9 11       		.uleb128 0x11
 3862 10da F33F0000 		.4byte	.LASF367
 3863 10de 67       		.byte	0x67
 3864 10df 11       		.uleb128 0x11
 3865 10e0 82670000 		.4byte	.LASF368
 3866 10e4 68       		.byte	0x68
 3867 10e5 11       		.uleb128 0x11
 3868 10e6 B30F0000 		.4byte	.LASF369
 3869 10ea 69       		.byte	0x69
 3870 10eb 11       		.uleb128 0x11
 3871 10ec AA360000 		.4byte	.LASF370
 3872 10f0 6A       		.byte	0x6a
 3873 10f1 11       		.uleb128 0x11
 3874 10f2 7D600000 		.4byte	.LASF371
 3875 10f6 6B       		.byte	0x6b
 3876 10f7 11       		.uleb128 0x11
 3877 10f8 175F0000 		.4byte	.LASF372
 3878 10fc 6C       		.byte	0x6c
 3879 10fd 11       		.uleb128 0x11
 3880 10fe 76030000 		.4byte	.LASF373
 3881 1102 6D       		.byte	0x6d
 3882 1103 11       		.uleb128 0x11
 3883 1104 7E2E0000 		.4byte	.LASF374
 3884 1108 6E       		.byte	0x6e
ARM GAS  C:\Users\D4DE~1\AppData\Local\Temp\cccuUyWy.s 			page 104


 3885 1109 11       		.uleb128 0x11
 3886 110a 7B580000 		.4byte	.LASF375
 3887 110e 6F       		.byte	0x6f
 3888 110f 11       		.uleb128 0x11
 3889 1110 BF7C0000 		.4byte	.LASF376
 3890 1114 70       		.byte	0x70
 3891 1115 11       		.uleb128 0x11
 3892 1116 35260000 		.4byte	.LASF377
 3893 111a 71       		.byte	0x71
 3894 111b 11       		.uleb128 0x11
 3895 111c 28500000 		.4byte	.LASF378
 3896 1120 72       		.byte	0x72
 3897 1121 11       		.uleb128 0x11
 3898 1122 7A740000 		.4byte	.LASF379
 3899 1126 73       		.byte	0x73
 3900 1127 11       		.uleb128 0x11
 3901 1128 021D0000 		.4byte	.LASF380
 3902 112c 74       		.byte	0x74
 3903 112d 11       		.uleb128 0x11
 3904 112e 683E0000 		.4byte	.LASF381
 3905 1132 75       		.byte	0x75
 3906 1133 11       		.uleb128 0x11
 3907 1134 AD550000 		.4byte	.LASF382
 3908 1138 76       		.byte	0x76
 3909 1139 11       		.uleb128 0x11
 3910 113a D1790000 		.4byte	.LASF383
 3911 113e 77       		.byte	0x77
 3912 113f 11       		.uleb128 0x11
 3913 1140 DC220000 		.4byte	.LASF384
 3914 1144 78       		.byte	0x78
 3915 1145 11       		.uleb128 0x11
 3916 1146 AF4C0000 		.4byte	.LASF385
 3917 114a 79       		.byte	0x79
 3918 114b 11       		.uleb128 0x11
 3919 114c 49230000 		.4byte	.LASF386
 3920 1150 7A       		.byte	0x7a
 3921 1151 11       		.uleb128 0x11
 3922 1152 034E0000 		.4byte	.LASF387
 3923 1156 7B       		.byte	0x7b
 3924 1157 11       		.uleb128 0x11
 3925 1158 85730000 		.4byte	.LASF388
 3926 115c 7C       		.byte	0x7c
 3927 115d 11       		.uleb128 0x11
 3928 115e F71B0000 		.4byte	.LASF389
 3929 1162 7D       		.byte	0x7d
 3930 1163 11       		.uleb128 0x11
 3931 1164 F9440000 		.4byte	.LASF390
 3932 1168 7E       		.byte	0x7e
 3933 1169 11       		.uleb128 0x11
 3934 116a 8F6B0000 		.4byte	.LASF391
 3935 116e 7F       		.byte	0x7f
 3936 116f 11       		.uleb128 0x11
 3937 1170 C6130000 		.4byte	.LASF392
 3938 1174 80       		.byte	0x80
 3939 1175 11       		.uleb128 0x11
 3940 1176 2E3B0000 		.4byte	.LASF393
 3941 117a 81       		.byte	0x81
ARM GAS  C:\Users\D4DE~1\AppData\Local\Temp\cccuUyWy.s 			page 105


 3942 117b 11       		.uleb128 0x11
 3943 117c 5B640000 		.4byte	.LASF394
 3944 1180 82       		.byte	0x82
 3945 1181 11       		.uleb128 0x11
 3946 1182 200A0000 		.4byte	.LASF395
 3947 1186 83       		.byte	0x83
 3948 1187 11       		.uleb128 0x11
 3949 1188 695D0000 		.4byte	.LASF396
 3950 118c 84       		.byte	0x84
 3951 118d 11       		.uleb128 0x11
 3952 118e 15010000 		.4byte	.LASF397
 3953 1192 85       		.byte	0x85
 3954 1193 11       		.uleb128 0x11
 3955 1194 7C2B0000 		.4byte	.LASF398
 3956 1198 86       		.byte	0x86
 3957 1199 11       		.uleb128 0x11
 3958 119a 1E560000 		.4byte	.LASF399
 3959 119e 87       		.byte	0x87
 3960 119f 11       		.uleb128 0x11
 3961 11a0 637A0000 		.4byte	.LASF400
 3962 11a4 88       		.byte	0x88
 3963 11a5 11       		.uleb128 0x11
 3964 11a6 56220000 		.4byte	.LASF401
 3965 11aa 89       		.byte	0x89
 3966 11ab 11       		.uleb128 0x11
 3967 11ac C7230000 		.4byte	.LASF402
 3968 11b0 8A       		.byte	0x8a
 3969 11b1 11       		.uleb128 0x11
 3970 11b2 00420000 		.4byte	.LASF403
 3971 11b6 8B       		.byte	0x8b
 3972 11b7 11       		.uleb128 0x11
 3973 11b8 7D240000 		.4byte	.LASF404
 3974 11bc 8C       		.byte	0x8c
 3975 11bd 11       		.uleb128 0x11
 3976 11be AB6A0000 		.4byte	.LASF405
 3977 11c2 8D       		.byte	0x8d
 3978 11c3 11       		.uleb128 0x11
 3979 11c4 21100000 		.4byte	.LASF406
 3980 11c8 8E       		.byte	0x8e
 3981 11c9 11       		.uleb128 0x11
 3982 11ca E5170000 		.4byte	.LASF407
 3983 11ce 8F       		.byte	0x8f
 3984 11cf 11       		.uleb128 0x11
 3985 11d0 49280000 		.4byte	.LASF408
 3986 11d4 90       		.byte	0x90
 3987 11d5 11       		.uleb128 0x11
 3988 11d6 295E0000 		.4byte	.LASF409
 3989 11da 91       		.byte	0x91
 3990 11db 11       		.uleb128 0x11
 3991 11dc B90A0000 		.4byte	.LASF410
 3992 11e0 92       		.byte	0x92
 3993 11e1 11       		.uleb128 0x11
 3994 11e2 A7500000 		.4byte	.LASF411
 3995 11e6 F0       		.byte	0xf0
 3996 11e7 00       		.byte	0
 3997 11e8 12       		.uleb128 0x12
 3998 11e9 35100000 		.4byte	.LASF412
ARM GAS  C:\Users\D4DE~1\AppData\Local\Temp\cccuUyWy.s 			page 106


 3999 11ed 07       		.byte	0x7
 4000 11ee 9201     		.2byte	0x192
 4001 11f0 630E0000 		.4byte	0xe63
 4002 11f4 08       		.uleb128 0x8
 4003 11f5 AE000000 		.4byte	0xae
 4004 11f9 04120000 		.4byte	0x1204
 4005 11fd 09       		.uleb128 0x9
 4006 11fe 9E000000 		.4byte	0x9e
 4007 1202 01       		.byte	0x1
 4008 1203 00       		.byte	0
 4009 1204 08       		.uleb128 0x8
 4010 1205 AE000000 		.4byte	0xae
 4011 1209 14120000 		.4byte	0x1214
 4012 120d 09       		.uleb128 0x9
 4013 120e 9E000000 		.4byte	0x9e
 4014 1212 07       		.byte	0x7
 4015 1213 00       		.byte	0
 4016 1214 12       		.uleb128 0x12
 4017 1215 DA580000 		.4byte	.LASF413
 4018 1219 08       		.byte	0x8
 4019 121a 1106     		.2byte	0x611
 4020 121c 3A090000 		.4byte	0x93a
 4021 1220 12       		.uleb128 0x12
 4022 1221 06160000 		.4byte	.LASF414
 4023 1225 09       		.byte	0x9
 4024 1226 F601     		.2byte	0x1f6
 4025 1228 A7000000 		.4byte	0xa7
 4026 122c 03       		.uleb128 0x3
 4027 122d 04       		.byte	0x4
 4028 122e 04       		.byte	0x4
 4029 122f AF420000 		.4byte	.LASF415
 4030 1233 03       		.uleb128 0x3
 4031 1234 08       		.byte	0x8
 4032 1235 04       		.byte	0x4
 4033 1236 A7220000 		.4byte	.LASF416
 4034 123a 13       		.uleb128 0x13
 4035 123b 08       		.byte	0x8
 4036 123c 0A       		.byte	0xa
 4037 123d 2D01     		.2byte	0x12d
 4038 123f 6B120000 		.4byte	0x126b
 4039 1243 14       		.uleb128 0x14
 4040 1244 39430000 		.4byte	.LASF417
 4041 1248 0A       		.byte	0xa
 4042 1249 2E01     		.2byte	0x12e
 4043 124b 580E0000 		.4byte	0xe58
 4044 124f 00       		.byte	0
 4045 1250 14       		.uleb128 0x14
 4046 1251 DA670000 		.4byte	.LASF418
 4047 1255 0A       		.byte	0xa
 4048 1256 3001     		.2byte	0x130
 4049 1258 E8110000 		.4byte	0x11e8
 4050 125c 02       		.byte	0x2
 4051 125d 14       		.uleb128 0x14
 4052 125e 1F6E0000 		.4byte	.LASF419
 4053 1262 0A       		.byte	0xa
 4054 1263 3201     		.2byte	0x132
 4055 1265 CF000000 		.4byte	0xcf
ARM GAS  C:\Users\D4DE~1\AppData\Local\Temp\cccuUyWy.s 			page 107


 4056 1269 04       		.byte	0x4
 4057 126a 00       		.byte	0
 4058 126b 12       		.uleb128 0x12
 4059 126c EC4B0000 		.4byte	.LASF420
 4060 1270 0A       		.byte	0xa
 4061 1271 3301     		.2byte	0x133
 4062 1273 3A120000 		.4byte	0x123a
 4063 1277 15       		.uleb128 0x15
 4064 1278 02       		.byte	0x2
 4065 1279 77000000 		.4byte	0x77
 4066 127d 0B       		.byte	0xb
 4067 127e 5401     		.2byte	0x154
 4068 1280 B7150000 		.4byte	0x15b7
 4069 1284 11       		.uleb128 0x11
 4070 1285 721D0000 		.4byte	.LASF421
 4071 1289 00       		.byte	0
 4072 128a 16       		.uleb128 0x16
 4073 128b 044F0000 		.4byte	.LASF422
 4074 128f 0010     		.2byte	0x1000
 4075 1291 16       		.uleb128 0x16
 4076 1292 8E7A0000 		.4byte	.LASF423
 4077 1296 0110     		.2byte	0x1001
 4078 1298 16       		.uleb128 0x16
 4079 1299 9A380000 		.4byte	.LASF424
 4080 129d 0210     		.2byte	0x1002
 4081 129f 16       		.uleb128 0x16
 4082 12a0 73100000 		.4byte	.LASF425
 4083 12a4 0310     		.2byte	0x1003
 4084 12a6 16       		.uleb128 0x16
 4085 12a7 931F0000 		.4byte	.LASF426
 4086 12ab 0410     		.2byte	0x1004
 4087 12ad 16       		.uleb128 0x16
 4088 12ae F47D0000 		.4byte	.LASF427
 4089 12b2 0510     		.2byte	0x1005
 4090 12b4 16       		.uleb128 0x16
 4091 12b5 350E0000 		.4byte	.LASF428
 4092 12b9 0020     		.2byte	0x2000
 4093 12bb 16       		.uleb128 0x16
 4094 12bc 5D050000 		.4byte	.LASF429
 4095 12c0 0120     		.2byte	0x2001
 4096 12c2 16       		.uleb128 0x16
 4097 12c3 04390000 		.4byte	.LASF430
 4098 12c7 0220     		.2byte	0x2002
 4099 12c9 16       		.uleb128 0x16
 4100 12ca 3F7A0000 		.4byte	.LASF431
 4101 12ce 0320     		.2byte	0x2003
 4102 12d0 16       		.uleb128 0x16
 4103 12d1 3D060000 		.4byte	.LASF432
 4104 12d5 0420     		.2byte	0x2004
 4105 12d7 16       		.uleb128 0x16
 4106 12d8 B9500000 		.4byte	.LASF433
 4107 12dc 0520     		.2byte	0x2005
 4108 12de 16       		.uleb128 0x16
 4109 12df DD080000 		.4byte	.LASF434
 4110 12e3 0620     		.2byte	0x2006
 4111 12e5 16       		.uleb128 0x16
 4112 12e6 0B0D0000 		.4byte	.LASF435
ARM GAS  C:\Users\D4DE~1\AppData\Local\Temp\cccuUyWy.s 			page 108


 4113 12ea 0720     		.2byte	0x2007
 4114 12ec 16       		.uleb128 0x16
 4115 12ed EF740000 		.4byte	.LASF436
 4116 12f1 0820     		.2byte	0x2008
 4117 12f3 16       		.uleb128 0x16
 4118 12f4 3A160000 		.4byte	.LASF437
 4119 12f8 0920     		.2byte	0x2009
 4120 12fa 16       		.uleb128 0x16
 4121 12fb 6B010000 		.4byte	.LASF438
 4122 12ff 0A20     		.2byte	0x200a
 4123 1301 16       		.uleb128 0x16
 4124 1302 763A0000 		.4byte	.LASF439
 4125 1306 0B20     		.2byte	0x200b
 4126 1308 16       		.uleb128 0x16
 4127 1309 F1190000 		.4byte	.LASF440
 4128 130d 0C20     		.2byte	0x200c
 4129 130f 16       		.uleb128 0x16
 4130 1310 B3270000 		.4byte	.LASF441
 4131 1314 0D20     		.2byte	0x200d
 4132 1316 16       		.uleb128 0x16
 4133 1317 C8520000 		.4byte	.LASF442
 4134 131b 0E20     		.2byte	0x200e
 4135 131d 16       		.uleb128 0x16
 4136 131e AA630000 		.4byte	.LASF443
 4137 1322 0F20     		.2byte	0x200f
 4138 1324 16       		.uleb128 0x16
 4139 1325 A01A0000 		.4byte	.LASF444
 4140 1329 1020     		.2byte	0x2010
 4141 132b 16       		.uleb128 0x16
 4142 132c 42390000 		.4byte	.LASF445
 4143 1330 1120     		.2byte	0x2011
 4144 1332 16       		.uleb128 0x16
 4145 1333 720F0000 		.4byte	.LASF446
 4146 1337 1220     		.2byte	0x2012
 4147 1339 16       		.uleb128 0x16
 4148 133a 833C0000 		.4byte	.LASF447
 4149 133e 1320     		.2byte	0x2013
 4150 1340 16       		.uleb128 0x16
 4151 1341 C7200000 		.4byte	.LASF448
 4152 1345 1420     		.2byte	0x2014
 4153 1347 16       		.uleb128 0x16
 4154 1348 93420000 		.4byte	.LASF449
 4155 134c 1520     		.2byte	0x2015
 4156 134e 16       		.uleb128 0x16
 4157 134f 1B3C0000 		.4byte	.LASF450
 4158 1353 1620     		.2byte	0x2016
 4159 1355 16       		.uleb128 0x16
 4160 1356 C73C0000 		.4byte	.LASF451
 4161 135a 1720     		.2byte	0x2017
 4162 135c 16       		.uleb128 0x16
 4163 135d 06550000 		.4byte	.LASF452
 4164 1361 0030     		.2byte	0x3000
 4165 1363 16       		.uleb128 0x16
 4166 1364 354D0000 		.4byte	.LASF453
 4167 1368 0130     		.2byte	0x3001
 4168 136a 16       		.uleb128 0x16
 4169 136b B4800000 		.4byte	.LASF454
ARM GAS  C:\Users\D4DE~1\AppData\Local\Temp\cccuUyWy.s 			page 109


 4170 136f 0230     		.2byte	0x3002
 4171 1371 16       		.uleb128 0x16
 4172 1372 716C0000 		.4byte	.LASF455
 4173 1376 0330     		.2byte	0x3003
 4174 1378 16       		.uleb128 0x16
 4175 1379 EF260000 		.4byte	.LASF456
 4176 137d 0430     		.2byte	0x3004
 4177 137f 16       		.uleb128 0x16
 4178 1380 C5300000 		.4byte	.LASF457
 4179 1384 0530     		.2byte	0x3005
 4180 1386 16       		.uleb128 0x16
 4181 1387 760B0000 		.4byte	.LASF458
 4182 138b 0630     		.2byte	0x3006
 4183 138d 16       		.uleb128 0x16
 4184 138e 34040000 		.4byte	.LASF459
 4185 1392 0730     		.2byte	0x3007
 4186 1394 16       		.uleb128 0x16
 4187 1395 A7570000 		.4byte	.LASF460
 4188 1399 0830     		.2byte	0x3008
 4189 139b 16       		.uleb128 0x16
 4190 139c F0730000 		.4byte	.LASF461
 4191 13a0 0930     		.2byte	0x3009
 4192 13a2 16       		.uleb128 0x16
 4193 13a3 96580000 		.4byte	.LASF462
 4194 13a7 0A30     		.2byte	0x300a
 4195 13a9 16       		.uleb128 0x16
 4196 13aa 462A0000 		.4byte	.LASF463
 4197 13ae 0B30     		.2byte	0x300b
 4198 13b0 16       		.uleb128 0x16
 4199 13b1 256B0000 		.4byte	.LASF464
 4200 13b5 0C30     		.2byte	0x300c
 4201 13b7 16       		.uleb128 0x16
 4202 13b8 F46D0000 		.4byte	.LASF465
 4203 13bc 1130     		.2byte	0x3011
 4204 13be 16       		.uleb128 0x16
 4205 13bf 38640000 		.4byte	.LASF466
 4206 13c3 1230     		.2byte	0x3012
 4207 13c5 16       		.uleb128 0x16
 4208 13c6 AC410000 		.4byte	.LASF467
 4209 13ca 1330     		.2byte	0x3013
 4210 13cc 16       		.uleb128 0x16
 4211 13cd 180C0000 		.4byte	.LASF468
 4212 13d1 1430     		.2byte	0x3014
 4213 13d3 16       		.uleb128 0x16
 4214 13d4 934E0000 		.4byte	.LASF469
 4215 13d8 1530     		.2byte	0x3015
 4216 13da 16       		.uleb128 0x16
 4217 13db 4F1A0000 		.4byte	.LASF470
 4218 13df 1630     		.2byte	0x3016
 4219 13e1 16       		.uleb128 0x16
 4220 13e2 544D0000 		.4byte	.LASF471
 4221 13e6 1730     		.2byte	0x3017
 4222 13e8 16       		.uleb128 0x16
 4223 13e9 995E0000 		.4byte	.LASF472
 4224 13ed 1830     		.2byte	0x3018
 4225 13ef 16       		.uleb128 0x16
 4226 13f0 F2430000 		.4byte	.LASF473
ARM GAS  C:\Users\D4DE~1\AppData\Local\Temp\cccuUyWy.s 			page 110


 4227 13f4 1930     		.2byte	0x3019
 4228 13f6 16       		.uleb128 0x16
 4229 13f7 4F410000 		.4byte	.LASF474
 4230 13fb 0040     		.2byte	0x4000
 4231 13fd 16       		.uleb128 0x16
 4232 13fe 32760000 		.4byte	.LASF475
 4233 1402 0140     		.2byte	0x4001
 4234 1404 16       		.uleb128 0x16
 4235 1405 045E0000 		.4byte	.LASF476
 4236 1409 0240     		.2byte	0x4002
 4237 140b 16       		.uleb128 0x16
 4238 140c 244F0000 		.4byte	.LASF477
 4239 1410 0340     		.2byte	0x4003
 4240 1412 16       		.uleb128 0x16
 4241 1413 084A0000 		.4byte	.LASF478
 4242 1417 0440     		.2byte	0x4004
 4243 1419 16       		.uleb128 0x16
 4244 141a 62240000 		.4byte	.LASF479
 4245 141e 0540     		.2byte	0x4005
 4246 1420 16       		.uleb128 0x16
 4247 1421 CA180000 		.4byte	.LASF480
 4248 1425 0640     		.2byte	0x4006
 4249 1427 16       		.uleb128 0x16
 4250 1428 B62E0000 		.4byte	.LASF481
 4251 142c 0740     		.2byte	0x4007
 4252 142e 16       		.uleb128 0x16
 4253 142f CB780000 		.4byte	.LASF482
 4254 1433 0840     		.2byte	0x4008
 4255 1435 16       		.uleb128 0x16
 4256 1436 CD620000 		.4byte	.LASF483
 4257 143a 0940     		.2byte	0x4009
 4258 143c 16       		.uleb128 0x16
 4259 143d 8F140000 		.4byte	.LASF484
 4260 1441 0A40     		.2byte	0x400a
 4261 1443 16       		.uleb128 0x16
 4262 1444 370C0000 		.4byte	.LASF485
 4263 1448 0B40     		.2byte	0x400b
 4264 144a 16       		.uleb128 0x16
 4265 144b 0D650000 		.4byte	.LASF486
 4266 144f 0C40     		.2byte	0x400c
 4267 1451 16       		.uleb128 0x16
 4268 1452 D94C0000 		.4byte	.LASF487
 4269 1456 0D40     		.2byte	0x400d
 4270 1458 16       		.uleb128 0x16
 4271 1459 55740000 		.4byte	.LASF488
 4272 145d 0E40     		.2byte	0x400e
 4273 145f 16       		.uleb128 0x16
 4274 1460 AF1C0000 		.4byte	.LASF489
 4275 1464 0F40     		.2byte	0x400f
 4276 1466 16       		.uleb128 0x16
 4277 1467 7B040000 		.4byte	.LASF490
 4278 146b 1040     		.2byte	0x4010
 4279 146d 16       		.uleb128 0x16
 4280 146e 7C440000 		.4byte	.LASF491
 4281 1472 1140     		.2byte	0x4011
 4282 1474 16       		.uleb128 0x16
 4283 1475 B21F0000 		.4byte	.LASF492
ARM GAS  C:\Users\D4DE~1\AppData\Local\Temp\cccuUyWy.s 			page 111


 4284 1479 1240     		.2byte	0x4012
 4285 147b 16       		.uleb128 0x16
 4286 147c 1B330000 		.4byte	.LASF493
 4287 1480 1340     		.2byte	0x4013
 4288 1482 16       		.uleb128 0x16
 4289 1483 FA460000 		.4byte	.LASF494
 4290 1487 1440     		.2byte	0x4014
 4291 1489 16       		.uleb128 0x16
 4292 148a DB0E0000 		.4byte	.LASF495
 4293 148e 1540     		.2byte	0x4015
 4294 1490 16       		.uleb128 0x16
 4295 1491 37570000 		.4byte	.LASF496
 4296 1495 1640     		.2byte	0x4016
 4297 1497 16       		.uleb128 0x16
 4298 1498 CF420000 		.4byte	.LASF497
 4299 149c 1740     		.2byte	0x4017
 4300 149e 16       		.uleb128 0x16
 4301 149f BB2D0000 		.4byte	.LASF498
 4302 14a3 1840     		.2byte	0x4018
 4303 14a5 16       		.uleb128 0x16
 4304 14a6 25140000 		.4byte	.LASF499
 4305 14aa 1940     		.2byte	0x4019
 4306 14ac 16       		.uleb128 0x16
 4307 14ad FC350000 		.4byte	.LASF500
 4308 14b1 1A40     		.2byte	0x401a
 4309 14b3 16       		.uleb128 0x16
 4310 14b4 73430000 		.4byte	.LASF501
 4311 14b8 0050     		.2byte	0x5000
 4312 14ba 16       		.uleb128 0x16
 4313 14bb DF230000 		.4byte	.LASF502
 4314 14bf 0150     		.2byte	0x5001
 4315 14c1 16       		.uleb128 0x16
 4316 14c2 B6280000 		.4byte	.LASF503
 4317 14c6 0250     		.2byte	0x5002
 4318 14c8 16       		.uleb128 0x16
 4319 14c9 EE320000 		.4byte	.LASF504
 4320 14cd 0350     		.2byte	0x5003
 4321 14cf 16       		.uleb128 0x16
 4322 14d0 25620000 		.4byte	.LASF505
 4323 14d4 0450     		.2byte	0x5004
 4324 14d6 16       		.uleb128 0x16
 4325 14d7 112B0000 		.4byte	.LASF506
 4326 14db 0550     		.2byte	0x5005
 4327 14dd 16       		.uleb128 0x16
 4328 14de 983A0000 		.4byte	.LASF507
 4329 14e2 0650     		.2byte	0x5006
 4330 14e4 16       		.uleb128 0x16
 4331 14e5 A3290000 		.4byte	.LASF508
 4332 14e9 0750     		.2byte	0x5007
 4333 14eb 16       		.uleb128 0x16
 4334 14ec 07310000 		.4byte	.LASF509
 4335 14f0 0850     		.2byte	0x5008
 4336 14f2 16       		.uleb128 0x16
 4337 14f3 7F3B0000 		.4byte	.LASF510
 4338 14f7 0950     		.2byte	0x5009
 4339 14f9 16       		.uleb128 0x16
 4340 14fa 5B480000 		.4byte	.LASF511
ARM GAS  C:\Users\D4DE~1\AppData\Local\Temp\cccuUyWy.s 			page 112


 4341 14fe 0A50     		.2byte	0x500a
 4342 1500 16       		.uleb128 0x16
 4343 1501 41340000 		.4byte	.LASF512
 4344 1505 0B50     		.2byte	0x500b
 4345 1507 16       		.uleb128 0x16
 4346 1508 D97D0000 		.4byte	.LASF513
 4347 150c 0C50     		.2byte	0x500c
 4348 150e 16       		.uleb128 0x16
 4349 150f 17170000 		.4byte	.LASF514
 4350 1513 0D50     		.2byte	0x500d
 4351 1515 16       		.uleb128 0x16
 4352 1516 67520000 		.4byte	.LASF515
 4353 151a 0E50     		.2byte	0x500e
 4354 151c 16       		.uleb128 0x16
 4355 151d F8760000 		.4byte	.LASF516
 4356 1521 0F50     		.2byte	0x500f
 4357 1523 16       		.uleb128 0x16
 4358 1524 4E400000 		.4byte	.LASF517
 4359 1528 1050     		.2byte	0x5010
 4360 152a 16       		.uleb128 0x16
 4361 152b AE470000 		.4byte	.LASF518
 4362 152f 1150     		.2byte	0x5011
 4363 1531 16       		.uleb128 0x16
 4364 1532 6E6A0000 		.4byte	.LASF519
 4365 1536 1250     		.2byte	0x5012
 4366 1538 16       		.uleb128 0x16
 4367 1539 AD030000 		.4byte	.LASF520
 4368 153d 1350     		.2byte	0x5013
 4369 153f 16       		.uleb128 0x16
 4370 1540 9A660000 		.4byte	.LASF521
 4371 1544 1450     		.2byte	0x5014
 4372 1546 16       		.uleb128 0x16
 4373 1547 371C0000 		.4byte	.LASF522
 4374 154b 1550     		.2byte	0x5015
 4375 154d 16       		.uleb128 0x16
 4376 154e 01080000 		.4byte	.LASF523
 4377 1552 1650     		.2byte	0x5016
 4378 1554 16       		.uleb128 0x16
 4379 1555 0F450000 		.4byte	.LASF524
 4380 1559 1750     		.2byte	0x5017
 4381 155b 16       		.uleb128 0x16
 4382 155c 63300000 		.4byte	.LASF525
 4383 1560 1850     		.2byte	0x5018
 4384 1562 16       		.uleb128 0x16
 4385 1563 89170000 		.4byte	.LASF526
 4386 1567 0060     		.2byte	0x6000
 4387 1569 16       		.uleb128 0x16
 4388 156a 0C270000 		.4byte	.LASF527
 4389 156e 0160     		.2byte	0x6001
 4390 1570 16       		.uleb128 0x16
 4391 1571 FE3A0000 		.4byte	.LASF528
 4392 1575 0260     		.2byte	0x6002
 4393 1577 16       		.uleb128 0x16
 4394 1578 434C0000 		.4byte	.LASF529
 4395 157c 0360     		.2byte	0x6003
 4396 157e 16       		.uleb128 0x16
 4397 157f 99250000 		.4byte	.LASF530
ARM GAS  C:\Users\D4DE~1\AppData\Local\Temp\cccuUyWy.s 			page 113


 4398 1583 0460     		.2byte	0x6004
 4399 1585 16       		.uleb128 0x16
 4400 1586 82800000 		.4byte	.LASF531
 4401 158a 0560     		.2byte	0x6005
 4402 158c 16       		.uleb128 0x16
 4403 158d 5B5E0000 		.4byte	.LASF532
 4404 1591 0660     		.2byte	0x6006
 4405 1593 16       		.uleb128 0x16
 4406 1594 D5570000 		.4byte	.LASF533
 4407 1598 0760     		.2byte	0x6007
 4408 159a 16       		.uleb128 0x16
 4409 159b 67570000 		.4byte	.LASF534
 4410 159f 0860     		.2byte	0x6008
 4411 15a1 16       		.uleb128 0x16
 4412 15a2 CB1E0000 		.4byte	.LASF535
 4413 15a6 0960     		.2byte	0x6009
 4414 15a8 16       		.uleb128 0x16
 4415 15a9 A3520000 		.4byte	.LASF536
 4416 15ad 0A60     		.2byte	0x600a
 4417 15af 16       		.uleb128 0x16
 4418 15b0 77210000 		.4byte	.LASF537
 4419 15b4 FFFF     		.2byte	0xffff
 4420 15b6 00       		.byte	0
 4421 15b7 12       		.uleb128 0x12
 4422 15b8 AF610000 		.4byte	.LASF538
 4423 15bc 0B       		.byte	0xb
 4424 15bd D604     		.2byte	0x4d6
 4425 15bf 77120000 		.4byte	0x1277
 4426 15c3 15       		.uleb128 0x15
 4427 15c4 04       		.byte	0x4
 4428 15c5 2C000000 		.4byte	0x2c
 4429 15c9 0B       		.byte	0xb
 4430 15ca E004     		.2byte	0x4e0
 4431 15cc DC160000 		.4byte	0x16dc
 4432 15d0 11       		.uleb128 0x11
 4433 15d1 50630000 		.4byte	.LASF539
 4434 15d5 00       		.byte	0
 4435 15d6 17       		.uleb128 0x17
 4436 15d7 273E0000 		.4byte	.LASF540
 4437 15db 01001400 		.4byte	0x140001
 4438 15df 17       		.uleb128 0x17
 4439 15e0 B35A0000 		.4byte	.LASF541
 4440 15e4 01001600 		.4byte	0x160001
 4441 15e8 17       		.uleb128 0x17
 4442 15e9 1E680000 		.4byte	.LASF542
 4443 15ed 02001600 		.4byte	0x160002
 4444 15f1 17       		.uleb128 0x17
 4445 15f2 01350000 		.4byte	.LASF543
 4446 15f6 03001600 		.4byte	0x160003
 4447 15fa 17       		.uleb128 0x17
 4448 15fb 4E0F0000 		.4byte	.LASF544
 4449 15ff 04001600 		.4byte	0x160004
 4450 1603 17       		.uleb128 0x17
 4451 1604 FC4B0000 		.4byte	.LASF545
 4452 1608 05001600 		.4byte	0x160005
 4453 160c 17       		.uleb128 0x17
 4454 160d 9A540000 		.4byte	.LASF546
ARM GAS  C:\Users\D4DE~1\AppData\Local\Temp\cccuUyWy.s 			page 114


 4455 1611 06001600 		.4byte	0x160006
 4456 1615 17       		.uleb128 0x17
 4457 1616 4C1B0000 		.4byte	.LASF547
 4458 161a 07001600 		.4byte	0x160007
 4459 161e 17       		.uleb128 0x17
 4460 161f 76250000 		.4byte	.LASF548
 4461 1623 08001600 		.4byte	0x160008
 4462 1627 17       		.uleb128 0x17
 4463 1628 09500000 		.4byte	.LASF549
 4464 162c 09001600 		.4byte	0x160009
 4465 1630 17       		.uleb128 0x17
 4466 1631 00460000 		.4byte	.LASF550
 4467 1635 0A001600 		.4byte	0x16000a
 4468 1639 17       		.uleb128 0x17
 4469 163a CD210000 		.4byte	.LASF551
 4470 163e 0B001600 		.4byte	0x16000b
 4471 1642 17       		.uleb128 0x17
 4472 1643 A3340000 		.4byte	.LASF552
 4473 1647 0C001600 		.4byte	0x16000c
 4474 164b 17       		.uleb128 0x17
 4475 164c 812C0000 		.4byte	.LASF553
 4476 1650 0D001600 		.4byte	0x16000d
 4477 1654 17       		.uleb128 0x17
 4478 1655 F1160000 		.4byte	.LASF554
 4479 1659 0E001600 		.4byte	0x16000e
 4480 165d 17       		.uleb128 0x17
 4481 165e 8D640000 		.4byte	.LASF555
 4482 1662 0F001600 		.4byte	0x16000f
 4483 1666 17       		.uleb128 0x17
 4484 1667 D36C0000 		.4byte	.LASF556
 4485 166b 10001600 		.4byte	0x160010
 4486 166f 17       		.uleb128 0x17
 4487 1670 A4430000 		.4byte	.LASF557
 4488 1674 11001600 		.4byte	0x160011
 4489 1678 17       		.uleb128 0x17
 4490 1679 BD600000 		.4byte	.LASF558
 4491 167d 12001600 		.4byte	0x160012
 4492 1681 17       		.uleb128 0x17
 4493 1682 30230000 		.4byte	.LASF559
 4494 1686 13001600 		.4byte	0x160013
 4495 168a 17       		.uleb128 0x17
 4496 168b 8D390000 		.4byte	.LASF560
 4497 168f 14001600 		.4byte	0x160014
 4498 1693 17       		.uleb128 0x17
 4499 1694 A93C0000 		.4byte	.LASF561
 4500 1698 15001600 		.4byte	0x160015
 4501 169c 17       		.uleb128 0x17
 4502 169d BC5B0000 		.4byte	.LASF562
 4503 16a1 16001600 		.4byte	0x160016
 4504 16a5 17       		.uleb128 0x17
 4505 16a6 38810000 		.4byte	.LASF563
 4506 16aa 17001600 		.4byte	0x160017
 4507 16ae 17       		.uleb128 0x17
 4508 16af 9E440000 		.4byte	.LASF564
 4509 16b3 18001600 		.4byte	0x160018
 4510 16b7 17       		.uleb128 0x17
 4511 16b8 C5640000 		.4byte	.LASF565
ARM GAS  C:\Users\D4DE~1\AppData\Local\Temp\cccuUyWy.s 			page 115


 4512 16bc 19001600 		.4byte	0x160019
 4513 16c0 17       		.uleb128 0x17
 4514 16c1 35560000 		.4byte	.LASF566
 4515 16c5 FE001600 		.4byte	0x1600fe
 4516 16c9 17       		.uleb128 0x17
 4517 16ca 9A3F0000 		.4byte	.LASF567
 4518 16ce FF001600 		.4byte	0x1600ff
 4519 16d2 17       		.uleb128 0x17
 4520 16d3 BC620000 		.4byte	.LASF568
 4521 16d7 FFFF1600 		.4byte	0x16ffff
 4522 16db 00       		.byte	0
 4523 16dc 12       		.uleb128 0x12
 4524 16dd 6C120000 		.4byte	.LASF569
 4525 16e1 0B       		.byte	0xb
 4526 16e2 4305     		.2byte	0x543
 4527 16e4 C3150000 		.4byte	0x15c3
 4528 16e8 13       		.uleb128 0x13
 4529 16e9 07       		.byte	0x7
 4530 16ea 0B       		.byte	0xb
 4531 16eb 6105     		.2byte	0x561
 4532 16ed 0C170000 		.4byte	0x170c
 4533 16f1 14       		.uleb128 0x14
 4534 16f2 1D1D0000 		.4byte	.LASF570
 4535 16f6 0B       		.byte	0xb
 4536 16f7 6405     		.2byte	0x564
 4537 16f9 0C170000 		.4byte	0x170c
 4538 16fd 00       		.byte	0
 4539 16fe 14       		.uleb128 0x14
 4540 16ff 7A480000 		.4byte	.LASF571
 4541 1703 0B       		.byte	0xb
 4542 1704 6705     		.2byte	0x567
 4543 1706 AE000000 		.4byte	0xae
 4544 170a 06       		.byte	0x6
 4545 170b 00       		.byte	0
 4546 170c 08       		.uleb128 0x8
 4547 170d AE000000 		.4byte	0xae
 4548 1711 1C170000 		.4byte	0x171c
 4549 1715 09       		.uleb128 0x9
 4550 1716 9E000000 		.4byte	0x9e
 4551 171a 05       		.byte	0x5
 4552 171b 00       		.byte	0
 4553 171c 12       		.uleb128 0x12
 4554 171d EF500000 		.4byte	.LASF572
 4555 1721 0B       		.byte	0xb
 4556 1722 6905     		.2byte	0x569
 4557 1724 E8160000 		.4byte	0x16e8
 4558 1728 13       		.uleb128 0x13
 4559 1729 22       		.byte	0x22
 4560 172a 0B       		.byte	0xb
 4561 172b B305     		.2byte	0x5b3
 4562 172d 73170000 		.4byte	0x1773
 4563 1731 14       		.uleb128 0x14
 4564 1732 32170000 		.4byte	.LASF573
 4565 1736 0B       		.byte	0xb
 4566 1737 C205     		.2byte	0x5c2
 4567 1739 73170000 		.4byte	0x1773
 4568 173d 00       		.byte	0
ARM GAS  C:\Users\D4DE~1\AppData\Local\Temp\cccuUyWy.s 			page 116


 4569 173e 14       		.uleb128 0x14
 4570 173f 0B5F0000 		.4byte	.LASF574
 4571 1743 0B       		.byte	0xb
 4572 1744 D505     		.2byte	0x5d5
 4573 1746 83170000 		.4byte	0x1783
 4574 174a 08       		.byte	0x8
 4575 174b 14       		.uleb128 0x14
 4576 174c E55B0000 		.4byte	.LASF575
 4577 1750 0B       		.byte	0xb
 4578 1751 DB05     		.2byte	0x5db
 4579 1753 AE000000 		.4byte	0xae
 4580 1757 16       		.byte	0x16
 4581 1758 14       		.uleb128 0x14
 4582 1759 38610000 		.4byte	.LASF576
 4583 175d 0B       		.byte	0xb
 4584 175e E105     		.2byte	0x5e1
 4585 1760 C4000000 		.4byte	0xc4
 4586 1764 18       		.byte	0x18
 4587 1765 14       		.uleb128 0x14
 4588 1766 1B000000 		.4byte	.LASF577
 4589 176a 0B       		.byte	0xb
 4590 176b F005     		.2byte	0x5f0
 4591 176d 73170000 		.4byte	0x1773
 4592 1771 1A       		.byte	0x1a
 4593 1772 00       		.byte	0
 4594 1773 08       		.uleb128 0x8
 4595 1774 C4000000 		.4byte	0xc4
 4596 1778 83170000 		.4byte	0x1783
 4597 177c 09       		.uleb128 0x9
 4598 177d 9E000000 		.4byte	0x9e
 4599 1781 03       		.byte	0x3
 4600 1782 00       		.byte	0
 4601 1783 08       		.uleb128 0x8
 4602 1784 C4000000 		.4byte	0xc4
 4603 1788 93170000 		.4byte	0x1793
 4604 178c 09       		.uleb128 0x9
 4605 178d 9E000000 		.4byte	0x9e
 4606 1791 06       		.byte	0x6
 4607 1792 00       		.byte	0
 4608 1793 12       		.uleb128 0x12
 4609 1794 D8800000 		.4byte	.LASF578
 4610 1798 0B       		.byte	0xb
 4611 1799 F205     		.2byte	0x5f2
 4612 179b 28170000 		.4byte	0x1728
 4613 179f 18       		.uleb128 0x18
 4614 17a0 04       		.byte	0x4
 4615 17a1 AE000000 		.4byte	0xae
 4616 17a5 15       		.uleb128 0x15
 4617 17a6 01       		.byte	0x1
 4618 17a7 41000000 		.4byte	0x41
 4619 17ab 0B       		.byte	0xb
 4620 17ac 7B06     		.2byte	0x67b
 4621 17ae D7170000 		.4byte	0x17d7
 4622 17b2 10       		.uleb128 0x10
 4623 17b3 241D0000 		.4byte	.LASF579
 4624 17b7 6C       		.sleb128 -20
 4625 17b8 10       		.uleb128 0x10
ARM GAS  C:\Users\D4DE~1\AppData\Local\Temp\cccuUyWy.s 			page 117


 4626 17b9 1B640000 		.4byte	.LASF580
 4627 17bd 70       		.sleb128 -16
 4628 17be 10       		.uleb128 0x10
 4629 17bf 72140000 		.4byte	.LASF581
 4630 17c3 74       		.sleb128 -12
 4631 17c4 10       		.uleb128 0x10
 4632 17c5 25340000 		.4byte	.LASF582
 4633 17c9 7A       		.sleb128 -6
 4634 17ca 11       		.uleb128 0x11
 4635 17cb E41F0000 		.4byte	.LASF583
 4636 17cf 00       		.byte	0
 4637 17d0 11       		.uleb128 0x11
 4638 17d1 8E430000 		.4byte	.LASF584
 4639 17d5 04       		.byte	0x4
 4640 17d6 00       		.byte	0
 4641 17d7 12       		.uleb128 0x12
 4642 17d8 563C0000 		.4byte	.LASF585
 4643 17dc 0B       		.byte	0xb
 4644 17dd 8E06     		.2byte	0x68e
 4645 17df A5170000 		.4byte	0x17a5
 4646 17e3 15       		.uleb128 0x15
 4647 17e4 01       		.byte	0x1
 4648 17e5 53000000 		.4byte	0x53
 4649 17e9 0B       		.byte	0xb
 4650 17ea 9206     		.2byte	0x692
 4651 17ec 03180000 		.4byte	0x1803
 4652 17f0 11       		.uleb128 0x11
 4653 17f1 6C160000 		.4byte	.LASF586
 4654 17f5 00       		.byte	0
 4655 17f6 11       		.uleb128 0x11
 4656 17f7 E5310000 		.4byte	.LASF587
 4657 17fb 01       		.byte	0x1
 4658 17fc 11       		.uleb128 0x11
 4659 17fd EC670000 		.4byte	.LASF588
 4660 1801 02       		.byte	0x2
 4661 1802 00       		.byte	0
 4662 1803 12       		.uleb128 0x12
 4663 1804 35490000 		.4byte	.LASF589
 4664 1808 0B       		.byte	0xb
 4665 1809 9C06     		.2byte	0x69c
 4666 180b E3170000 		.4byte	0x17e3
 4667 180f 13       		.uleb128 0x13
 4668 1810 08       		.byte	0x8
 4669 1811 0B       		.byte	0xb
 4670 1812 DD06     		.2byte	0x6dd
 4671 1814 40180000 		.4byte	0x1840
 4672 1818 14       		.uleb128 0x14
 4673 1819 F3760000 		.4byte	.LASF590
 4674 181d 0B       		.byte	0xb
 4675 181e 3907     		.2byte	0x739
 4676 1820 9F170000 		.4byte	0x179f
 4677 1824 00       		.byte	0
 4678 1825 14       		.uleb128 0x14
 4679 1826 A0770000 		.4byte	.LASF591
 4680 182a 0B       		.byte	0xb
 4681 182b 3E07     		.2byte	0x73e
 4682 182d C4000000 		.4byte	0xc4
ARM GAS  C:\Users\D4DE~1\AppData\Local\Temp\cccuUyWy.s 			page 118


 4683 1831 04       		.byte	0x4
 4684 1832 14       		.uleb128 0x14
 4685 1833 AE220000 		.4byte	.LASF592
 4686 1837 0B       		.byte	0xb
 4687 1838 4D07     		.2byte	0x74d
 4688 183a AE000000 		.4byte	0xae
 4689 183e 06       		.byte	0x6
 4690 183f 00       		.byte	0
 4691 1840 12       		.uleb128 0x12
 4692 1841 5B780000 		.4byte	.LASF593
 4693 1845 0B       		.byte	0xb
 4694 1846 4F07     		.2byte	0x74f
 4695 1848 0F180000 		.4byte	0x180f
 4696 184c 15       		.uleb128 0x15
 4697 184d 01       		.byte	0x1
 4698 184e 53000000 		.4byte	0x53
 4699 1852 0C       		.byte	0xc
 4700 1853 0C01     		.2byte	0x10c
 4701 1855 72180000 		.4byte	0x1872
 4702 1859 11       		.uleb128 0x11
 4703 185a 44220000 		.4byte	.LASF594
 4704 185e 01       		.byte	0x1
 4705 185f 11       		.uleb128 0x11
 4706 1860 3B400000 		.4byte	.LASF595
 4707 1864 02       		.byte	0x2
 4708 1865 11       		.uleb128 0x11
 4709 1866 DC7B0000 		.4byte	.LASF596
 4710 186a 03       		.byte	0x3
 4711 186b 11       		.uleb128 0x11
 4712 186c A0040000 		.4byte	.LASF597
 4713 1870 04       		.byte	0x4
 4714 1871 00       		.byte	0
 4715 1872 12       		.uleb128 0x12
 4716 1873 4C7F0000 		.4byte	.LASF598
 4717 1877 0C       		.byte	0xc
 4718 1878 1901     		.2byte	0x119
 4719 187a 4C180000 		.4byte	0x184c
 4720 187e 15       		.uleb128 0x15
 4721 187f 01       		.byte	0x1
 4722 1880 53000000 		.4byte	0x53
 4723 1884 0C       		.byte	0xc
 4724 1885 1D01     		.2byte	0x11d
 4725 1887 98180000 		.4byte	0x1898
 4726 188b 11       		.uleb128 0x11
 4727 188c ED5E0000 		.4byte	.LASF599
 4728 1890 00       		.byte	0
 4729 1891 11       		.uleb128 0x11
 4730 1892 2C120000 		.4byte	.LASF600
 4731 1896 01       		.byte	0x1
 4732 1897 00       		.byte	0
 4733 1898 12       		.uleb128 0x12
 4734 1899 E5720000 		.4byte	.LASF601
 4735 189d 0C       		.byte	0xc
 4736 189e 2401     		.2byte	0x124
 4737 18a0 7E180000 		.4byte	0x187e
 4738 18a4 13       		.uleb128 0x13
 4739 18a5 02       		.byte	0x2
ARM GAS  C:\Users\D4DE~1\AppData\Local\Temp\cccuUyWy.s 			page 119


 4740 18a6 0C       		.byte	0xc
 4741 18a7 6401     		.2byte	0x164
 4742 18a9 C8180000 		.4byte	0x18c8
 4743 18ad 14       		.uleb128 0x14
 4744 18ae 84360000 		.4byte	.LASF602
 4745 18b2 0C       		.byte	0xc
 4746 18b3 6E01     		.2byte	0x16e
 4747 18b5 AE000000 		.4byte	0xae
 4748 18b9 00       		.byte	0
 4749 18ba 14       		.uleb128 0x14
 4750 18bb 60020000 		.4byte	.LASF603
 4751 18bf 0C       		.byte	0xc
 4752 18c0 7201     		.2byte	0x172
 4753 18c2 AE000000 		.4byte	0xae
 4754 18c6 01       		.byte	0x1
 4755 18c7 00       		.byte	0
 4756 18c8 12       		.uleb128 0x12
 4757 18c9 782A0000 		.4byte	.LASF604
 4758 18cd 0C       		.byte	0xc
 4759 18ce 7401     		.2byte	0x174
 4760 18d0 A4180000 		.4byte	0x18a4
 4761 18d4 13       		.uleb128 0x13
 4762 18d5 02       		.byte	0x2
 4763 18d6 0C       		.byte	0xc
 4764 18d7 9B01     		.2byte	0x19b
 4765 18d9 F8180000 		.4byte	0x18f8
 4766 18dd 14       		.uleb128 0x14
 4767 18de DB170000 		.4byte	.LASF605
 4768 18e2 0C       		.byte	0xc
 4769 18e3 9E01     		.2byte	0x19e
 4770 18e5 03180000 		.4byte	0x1803
 4771 18e9 00       		.byte	0
 4772 18ea 14       		.uleb128 0x14
 4773 18eb 84360000 		.4byte	.LASF602
 4774 18ef 0C       		.byte	0xc
 4775 18f0 A101     		.2byte	0x1a1
 4776 18f2 AE000000 		.4byte	0xae
 4777 18f6 01       		.byte	0x1
 4778 18f7 00       		.byte	0
 4779 18f8 12       		.uleb128 0x12
 4780 18f9 BD040000 		.4byte	.LASF606
 4781 18fd 0C       		.byte	0xc
 4782 18fe A301     		.2byte	0x1a3
 4783 1900 D4180000 		.4byte	0x18d4
 4784 1904 13       		.uleb128 0x13
 4785 1905 03       		.byte	0x3
 4786 1906 0C       		.byte	0xc
 4787 1907 A601     		.2byte	0x1a6
 4788 1909 28190000 		.4byte	0x1928
 4789 190d 14       		.uleb128 0x14
 4790 190e 8D100000 		.4byte	.LASF607
 4791 1912 0C       		.byte	0xc
 4792 1913 A901     		.2byte	0x1a9
 4793 1915 D7170000 		.4byte	0x17d7
 4794 1919 00       		.byte	0
 4795 191a 14       		.uleb128 0x14
 4796 191b EB620000 		.4byte	.LASF608
ARM GAS  C:\Users\D4DE~1\AppData\Local\Temp\cccuUyWy.s 			page 120


 4797 191f 0C       		.byte	0xc
 4798 1920 AC01     		.2byte	0x1ac
 4799 1922 F8180000 		.4byte	0x18f8
 4800 1926 01       		.byte	0x1
 4801 1927 00       		.byte	0
 4802 1928 12       		.uleb128 0x12
 4803 1929 992E0000 		.4byte	.LASF609
 4804 192d 0C       		.byte	0xc
 4805 192e AE01     		.2byte	0x1ae
 4806 1930 04190000 		.4byte	0x1904
 4807 1934 13       		.uleb128 0x13
 4808 1935 0C       		.byte	0xc
 4809 1936 0C       		.byte	0xc
 4810 1937 EE02     		.2byte	0x2ee
 4811 1939 72190000 		.4byte	0x1972
 4812 193d 14       		.uleb128 0x14
 4813 193e 7A070000 		.4byte	.LASF610
 4814 1942 0C       		.byte	0xc
 4815 1943 F102     		.2byte	0x2f1
 4816 1945 98180000 		.4byte	0x1898
 4817 1949 00       		.byte	0
 4818 194a 14       		.uleb128 0x14
 4819 194b B4080000 		.4byte	.LASF611
 4820 194f 0C       		.byte	0xc
 4821 1950 F902     		.2byte	0x2f9
 4822 1952 A5000000 		.4byte	0xa5
 4823 1956 04       		.byte	0x4
 4824 1957 14       		.uleb128 0x14
 4825 1958 912A0000 		.4byte	.LASF612
 4826 195c 0C       		.byte	0xc
 4827 195d FE02     		.2byte	0x2fe
 4828 195f AE000000 		.4byte	0xae
 4829 1963 08       		.byte	0x8
 4830 1964 14       		.uleb128 0x14
 4831 1965 B4000000 		.4byte	.LASF613
 4832 1969 0C       		.byte	0xc
 4833 196a 0103     		.2byte	0x301
 4834 196c C8180000 		.4byte	0x18c8
 4835 1970 09       		.byte	0x9
 4836 1971 00       		.byte	0
 4837 1972 12       		.uleb128 0x12
 4838 1973 F52A0000 		.4byte	.LASF614
 4839 1977 0C       		.byte	0xc
 4840 1978 0303     		.2byte	0x303
 4841 197a 34190000 		.4byte	0x1934
 4842 197e 19       		.uleb128 0x19
 4843 197f 02       		.byte	0x2
 4844 1980 0C       		.byte	0xc
 4845 1981 1B03     		.2byte	0x31b
 4846 1983 A0190000 		.4byte	0x19a0
 4847 1987 1A       		.uleb128 0x1a
 4848 1988 B4000000 		.4byte	.LASF613
 4849 198c 0C       		.byte	0xc
 4850 198d 1E03     		.2byte	0x31e
 4851 198f C8180000 		.4byte	0x18c8
 4852 1993 1A       		.uleb128 0x1a
 4853 1994 84360000 		.4byte	.LASF602
ARM GAS  C:\Users\D4DE~1\AppData\Local\Temp\cccuUyWy.s 			page 121


 4854 1998 0C       		.byte	0xc
 4855 1999 2103     		.2byte	0x321
 4856 199b AE000000 		.4byte	0xae
 4857 199f 00       		.byte	0
 4858 19a0 13       		.uleb128 0x13
 4859 19a1 04       		.byte	0x4
 4860 19a2 0C       		.byte	0xc
 4861 19a3 1503     		.2byte	0x315
 4862 19a5 D1190000 		.4byte	0x19d1
 4863 19a9 14       		.uleb128 0x14
 4864 19aa B9560000 		.4byte	.LASF615
 4865 19ae 0C       		.byte	0xc
 4866 19af 1803     		.2byte	0x318
 4867 19b1 72180000 		.4byte	0x1872
 4868 19b5 00       		.byte	0
 4869 19b6 14       		.uleb128 0x14
 4870 19b7 79810000 		.4byte	.LASF616
 4871 19bb 0C       		.byte	0xc
 4872 19bc 2303     		.2byte	0x323
 4873 19be 7E190000 		.4byte	0x197e
 4874 19c2 01       		.byte	0x1
 4875 19c3 14       		.uleb128 0x14
 4876 19c4 91030000 		.4byte	.LASF617
 4877 19c8 0C       		.byte	0xc
 4878 19c9 2603     		.2byte	0x326
 4879 19cb AE000000 		.4byte	0xae
 4880 19cf 03       		.byte	0x3
 4881 19d0 00       		.byte	0
 4882 19d1 12       		.uleb128 0x12
 4883 19d2 00570000 		.4byte	.LASF618
 4884 19d6 0C       		.byte	0xc
 4885 19d7 2803     		.2byte	0x328
 4886 19d9 A0190000 		.4byte	0x19a0
 4887 19dd 0F       		.uleb128 0xf
 4888 19de 01       		.byte	0x1
 4889 19df 53000000 		.4byte	0x53
 4890 19e3 0D       		.byte	0xd
 4891 19e4 4E       		.byte	0x4e
 4892 19e5 981A0000 		.4byte	0x1a98
 4893 19e9 11       		.uleb128 0x11
 4894 19ea F12F0000 		.4byte	.LASF619
 4895 19ee 01       		.byte	0x1
 4896 19ef 11       		.uleb128 0x11
 4897 19f0 E4030000 		.4byte	.LASF620
 4898 19f4 02       		.byte	0x2
 4899 19f5 11       		.uleb128 0x11
 4900 19f6 5C030000 		.4byte	.LASF621
 4901 19fa 03       		.byte	0x3
 4902 19fb 11       		.uleb128 0x11
 4903 19fc F63D0000 		.4byte	.LASF622
 4904 1a00 04       		.byte	0x4
 4905 1a01 11       		.uleb128 0x11
 4906 1a02 53210000 		.4byte	.LASF623
 4907 1a06 05       		.byte	0x5
 4908 1a07 11       		.uleb128 0x11
 4909 1a08 393A0000 		.4byte	.LASF624
 4910 1a0c 06       		.byte	0x6
ARM GAS  C:\Users\D4DE~1\AppData\Local\Temp\cccuUyWy.s 			page 122


 4911 1a0d 11       		.uleb128 0x11
 4912 1a0e 194B0000 		.4byte	.LASF625
 4913 1a12 07       		.byte	0x7
 4914 1a13 11       		.uleb128 0x11
 4915 1a14 874C0000 		.4byte	.LASF626
 4916 1a18 08       		.byte	0x8
 4917 1a19 11       		.uleb128 0x11
 4918 1a1a 7C5A0000 		.4byte	.LASF627
 4919 1a1e 09       		.byte	0x9
 4920 1a1f 11       		.uleb128 0x11
 4921 1a20 4B020000 		.4byte	.LASF628
 4922 1a24 0A       		.byte	0xa
 4923 1a25 11       		.uleb128 0x11
 4924 1a26 01130000 		.4byte	.LASF629
 4925 1a2a 0B       		.byte	0xb
 4926 1a2b 11       		.uleb128 0x11
 4927 1a2c 295D0000 		.4byte	.LASF630
 4928 1a30 0C       		.byte	0xc
 4929 1a31 11       		.uleb128 0x11
 4930 1a32 6B690000 		.4byte	.LASF631
 4931 1a36 0D       		.byte	0xd
 4932 1a37 11       		.uleb128 0x11
 4933 1a38 191F0000 		.4byte	.LASF632
 4934 1a3c 0E       		.byte	0xe
 4935 1a3d 11       		.uleb128 0x11
 4936 1a3e 5F460000 		.4byte	.LASF633
 4937 1a42 0F       		.byte	0xf
 4938 1a43 11       		.uleb128 0x11
 4939 1a44 9C110000 		.4byte	.LASF634
 4940 1a48 10       		.byte	0x10
 4941 1a49 11       		.uleb128 0x11
 4942 1a4a 14530000 		.4byte	.LASF635
 4943 1a4e 11       		.byte	0x11
 4944 1a4f 11       		.uleb128 0x11
 4945 1a50 42000000 		.4byte	.LASF636
 4946 1a54 12       		.byte	0x12
 4947 1a55 11       		.uleb128 0x11
 4948 1a56 F3100000 		.4byte	.LASF637
 4949 1a5a 13       		.byte	0x13
 4950 1a5b 11       		.uleb128 0x11
 4951 1a5c CB6E0000 		.4byte	.LASF638
 4952 1a60 52       		.byte	0x52
 4953 1a61 11       		.uleb128 0x11
 4954 1a62 22670000 		.4byte	.LASF639
 4955 1a66 16       		.byte	0x16
 4956 1a67 11       		.uleb128 0x11
 4957 1a68 60750000 		.4byte	.LASF640
 4958 1a6c 17       		.byte	0x17
 4959 1a6d 11       		.uleb128 0x11
 4960 1a6e C3710000 		.4byte	.LASF641
 4961 1a72 18       		.byte	0x18
 4962 1a73 11       		.uleb128 0x11
 4963 1a74 03800000 		.4byte	.LASF642
 4964 1a78 19       		.byte	0x19
 4965 1a79 11       		.uleb128 0x11
 4966 1a7a 8D070000 		.4byte	.LASF643
 4967 1a7e 1B       		.byte	0x1b
ARM GAS  C:\Users\D4DE~1\AppData\Local\Temp\cccuUyWy.s 			page 123


 4968 1a7f 11       		.uleb128 0x11
 4969 1a80 FB230000 		.4byte	.LASF644
 4970 1a84 1D       		.byte	0x1d
 4971 1a85 11       		.uleb128 0x11
 4972 1a86 E47E0000 		.4byte	.LASF645
 4973 1a8a 1E       		.byte	0x1e
 4974 1a8b 11       		.uleb128 0x11
 4975 1a8c 85680000 		.4byte	.LASF646
 4976 1a90 D2       		.byte	0xd2
 4977 1a91 11       		.uleb128 0x11
 4978 1a92 99260000 		.4byte	.LASF647
 4979 1a96 FF       		.byte	0xff
 4980 1a97 00       		.byte	0
 4981 1a98 04       		.uleb128 0x4
 4982 1a99 DA740000 		.4byte	.LASF648
 4983 1a9d 0D       		.byte	0xd
 4984 1a9e A6       		.byte	0xa6
 4985 1a9f DD190000 		.4byte	0x19dd
 4986 1aa3 0F       		.uleb128 0xf
 4987 1aa4 01       		.byte	0x1
 4988 1aa5 53000000 		.4byte	0x53
 4989 1aa9 0D       		.byte	0xd
 4990 1aaa AA       		.byte	0xaa
 4991 1aab 941B0000 		.4byte	0x1b94
 4992 1aaf 11       		.uleb128 0x11
 4993 1ab0 7B000000 		.4byte	.LASF649
 4994 1ab4 00       		.byte	0
 4995 1ab5 11       		.uleb128 0x11
 4996 1ab6 D6270000 		.4byte	.LASF650
 4997 1aba 01       		.byte	0x1
 4998 1abb 11       		.uleb128 0x11
 4999 1abc F3280000 		.4byte	.LASF651
 5000 1ac0 02       		.byte	0x2
 5001 1ac1 11       		.uleb128 0x11
 5002 1ac2 A6180000 		.4byte	.LASF652
 5003 1ac6 03       		.byte	0x3
 5004 1ac7 11       		.uleb128 0x11
 5005 1ac8 D7100000 		.4byte	.LASF653
 5006 1acc 04       		.byte	0x4
 5007 1acd 11       		.uleb128 0x11
 5008 1ace 77290000 		.4byte	.LASF654
 5009 1ad2 05       		.byte	0x5
 5010 1ad3 11       		.uleb128 0x11
 5011 1ad4 8A1E0000 		.4byte	.LASF655
 5012 1ad8 06       		.byte	0x6
 5013 1ad9 11       		.uleb128 0x11
 5014 1ada 17590000 		.4byte	.LASF656
 5015 1ade 07       		.byte	0x7
 5016 1adf 11       		.uleb128 0x11
 5017 1ae0 9A690000 		.4byte	.LASF657
 5018 1ae4 08       		.byte	0x8
 5019 1ae5 11       		.uleb128 0x11
 5020 1ae6 31290000 		.4byte	.LASF658
 5021 1aea 09       		.byte	0x9
 5022 1aeb 11       		.uleb128 0x11
 5023 1aec CD540000 		.4byte	.LASF659
 5024 1af0 0A       		.byte	0xa
ARM GAS  C:\Users\D4DE~1\AppData\Local\Temp\cccuUyWy.s 			page 124


 5025 1af1 11       		.uleb128 0x11
 5026 1af2 125C0000 		.4byte	.LASF660
 5027 1af6 0B       		.byte	0xb
 5028 1af7 11       		.uleb128 0x11
 5029 1af8 EE780000 		.4byte	.LASF661
 5030 1afc 0C       		.byte	0xc
 5031 1afd 11       		.uleb128 0x11
 5032 1afe 24080000 		.4byte	.LASF662
 5033 1b02 0D       		.byte	0xd
 5034 1b03 11       		.uleb128 0x11
 5035 1b04 53140000 		.4byte	.LASF663
 5036 1b08 0E       		.byte	0xe
 5037 1b09 11       		.uleb128 0x11
 5038 1b0a 25360000 		.4byte	.LASF664
 5039 1b0e 0F       		.byte	0xf
 5040 1b0f 11       		.uleb128 0x11
 5041 1b10 123A0000 		.4byte	.LASF665
 5042 1b14 10       		.byte	0x10
 5043 1b15 11       		.uleb128 0x11
 5044 1b16 435D0000 		.4byte	.LASF666
 5045 1b1a 11       		.byte	0x11
 5046 1b1b 11       		.uleb128 0x11
 5047 1b1c 5F7C0000 		.4byte	.LASF667
 5048 1b20 80       		.byte	0x80
 5049 1b21 11       		.uleb128 0x11
 5050 1b22 63790000 		.4byte	.LASF668
 5051 1b26 80       		.byte	0x80
 5052 1b27 11       		.uleb128 0x11
 5053 1b28 04720000 		.4byte	.LASF669
 5054 1b2c 80       		.byte	0x80
 5055 1b2d 11       		.uleb128 0x11
 5056 1b2e E3680000 		.4byte	.LASF670
 5057 1b32 80       		.byte	0x80
 5058 1b33 11       		.uleb128 0x11
 5059 1b34 336D0000 		.4byte	.LASF671
 5060 1b38 80       		.byte	0x80
 5061 1b39 11       		.uleb128 0x11
 5062 1b3a FF7B0000 		.4byte	.LASF672
 5063 1b3e 80       		.byte	0x80
 5064 1b3f 11       		.uleb128 0x11
 5065 1b40 02680000 		.4byte	.LASF673
 5066 1b44 80       		.byte	0x80
 5067 1b45 11       		.uleb128 0x11
 5068 1b46 800E0000 		.4byte	.LASF674
 5069 1b4a 81       		.byte	0x81
 5070 1b4b 11       		.uleb128 0x11
 5071 1b4c C9810000 		.4byte	.LASF675
 5072 1b50 81       		.byte	0x81
 5073 1b51 11       		.uleb128 0x11
 5074 1b52 320F0000 		.4byte	.LASF676
 5075 1b56 81       		.byte	0x81
 5076 1b57 11       		.uleb128 0x11
 5077 1b58 B8250000 		.4byte	.LASF677
 5078 1b5c 81       		.byte	0x81
 5079 1b5d 11       		.uleb128 0x11
 5080 1b5e AB770000 		.4byte	.LASF678
 5081 1b62 82       		.byte	0x82
ARM GAS  C:\Users\D4DE~1\AppData\Local\Temp\cccuUyWy.s 			page 125


 5082 1b63 11       		.uleb128 0x11
 5083 1b64 BB310000 		.4byte	.LASF679
 5084 1b68 A0       		.byte	0xa0
 5085 1b69 11       		.uleb128 0x11
 5086 1b6a 3C540000 		.4byte	.LASF680
 5087 1b6e A0       		.byte	0xa0
 5088 1b6f 11       		.uleb128 0x11
 5089 1b70 83120000 		.4byte	.LASF681
 5090 1b74 A1       		.byte	0xa1
 5091 1b75 11       		.uleb128 0x11
 5092 1b76 D03B0000 		.4byte	.LASF682
 5093 1b7a A2       		.byte	0xa2
 5094 1b7b 11       		.uleb128 0x11
 5095 1b7c 18790000 		.4byte	.LASF683
 5096 1b80 A3       		.byte	0xa3
 5097 1b81 11       		.uleb128 0x11
 5098 1b82 01120000 		.4byte	.LASF684
 5099 1b86 FD       		.byte	0xfd
 5100 1b87 11       		.uleb128 0x11
 5101 1b88 721A0000 		.4byte	.LASF685
 5102 1b8c FE       		.byte	0xfe
 5103 1b8d 11       		.uleb128 0x11
 5104 1b8e 40050000 		.4byte	.LASF686
 5105 1b92 FF       		.byte	0xff
 5106 1b93 00       		.byte	0
 5107 1b94 12       		.uleb128 0x12
 5108 1b95 C1610000 		.4byte	.LASF687
 5109 1b99 0D       		.byte	0xd
 5110 1b9a 6101     		.2byte	0x161
 5111 1b9c A31A0000 		.4byte	0x1aa3
 5112 1ba0 12       		.uleb128 0x12
 5113 1ba1 F45C0000 		.4byte	.LASF688
 5114 1ba5 0D       		.byte	0xd
 5115 1ba6 7F01     		.2byte	0x17f
 5116 1ba8 C4000000 		.4byte	0xc4
 5117 1bac 13       		.uleb128 0x13
 5118 1bad 08       		.byte	0x8
 5119 1bae 0D       		.byte	0xd
 5120 1baf 9401     		.2byte	0x194
 5121 1bb1 DD1B0000 		.4byte	0x1bdd
 5122 1bb5 1B       		.uleb128 0x1b
 5123 1bb6 76616C00 		.ascii	"val\000"
 5124 1bba 0D       		.byte	0xd
 5125 1bbb 9701     		.2byte	0x197
 5126 1bbd 9F170000 		.4byte	0x179f
 5127 1bc1 00       		.byte	0
 5128 1bc2 1B       		.uleb128 0x1b
 5129 1bc3 6C656E00 		.ascii	"len\000"
 5130 1bc7 0D       		.byte	0xd
 5131 1bc8 9A01     		.2byte	0x19a
 5132 1bca C4000000 		.4byte	0xc4
 5133 1bce 04       		.byte	0x4
 5134 1bcf 14       		.uleb128 0x14
 5135 1bd0 2D1C0000 		.4byte	.LASF689
 5136 1bd4 0D       		.byte	0xd
 5137 1bd5 A101     		.2byte	0x1a1
 5138 1bd7 C4000000 		.4byte	0xc4
ARM GAS  C:\Users\D4DE~1\AppData\Local\Temp\cccuUyWy.s 			page 126


 5139 1bdb 06       		.byte	0x6
 5140 1bdc 00       		.byte	0
 5141 1bdd 12       		.uleb128 0x12
 5142 1bde 74410000 		.4byte	.LASF690
 5143 1be2 0D       		.byte	0xd
 5144 1be3 A301     		.2byte	0x1a3
 5145 1be5 AC1B0000 		.4byte	0x1bac
 5146 1be9 13       		.uleb128 0x13
 5147 1bea 0C       		.byte	0xc
 5148 1beb 0D       		.byte	0xd
 5149 1bec A601     		.2byte	0x1a6
 5150 1bee 0D1C0000 		.4byte	0x1c0d
 5151 1bf2 14       		.uleb128 0x14
 5152 1bf3 D34C0000 		.4byte	.LASF691
 5153 1bf7 0D       		.byte	0xd
 5154 1bf8 A901     		.2byte	0x1a9
 5155 1bfa DD1B0000 		.4byte	0x1bdd
 5156 1bfe 00       		.byte	0
 5157 1bff 14       		.uleb128 0x14
 5158 1c00 84650000 		.4byte	.LASF692
 5159 1c04 0D       		.byte	0xd
 5160 1c05 AC01     		.2byte	0x1ac
 5161 1c07 A01B0000 		.4byte	0x1ba0
 5162 1c0b 08       		.byte	0x8
 5163 1c0c 00       		.byte	0
 5164 1c0d 12       		.uleb128 0x12
 5165 1c0e C5690000 		.4byte	.LASF693
 5166 1c12 0D       		.byte	0xd
 5167 1c13 AE01     		.2byte	0x1ae
 5168 1c15 E91B0000 		.4byte	0x1be9
 5169 1c19 13       		.uleb128 0x13
 5170 1c1a 04       		.byte	0x4
 5171 1c1b 0D       		.byte	0xd
 5172 1c1c BC01     		.2byte	0x1bc
 5173 1c1e 3D1C0000 		.4byte	0x1c3d
 5174 1c22 14       		.uleb128 0x14
 5175 1c23 B4000000 		.4byte	.LASF613
 5176 1c27 0D       		.byte	0xd
 5177 1c28 BF01     		.2byte	0x1bf
 5178 1c2a C8180000 		.4byte	0x18c8
 5179 1c2e 00       		.byte	0
 5180 1c2f 1B       		.uleb128 0x1b
 5181 1c30 6D747500 		.ascii	"mtu\000"
 5182 1c34 0D       		.byte	0xd
 5183 1c35 C201     		.2byte	0x1c2
 5184 1c37 C4000000 		.4byte	0xc4
 5185 1c3b 02       		.byte	0x2
 5186 1c3c 00       		.byte	0
 5187 1c3d 12       		.uleb128 0x12
 5188 1c3e D42A0000 		.4byte	.LASF694
 5189 1c42 0D       		.byte	0xd
 5190 1c43 C401     		.2byte	0x1c4
 5191 1c45 191C0000 		.4byte	0x1c19
 5192 1c49 13       		.uleb128 0x13
 5193 1c4a 10       		.byte	0x10
 5194 1c4b 0D       		.byte	0xd
 5195 1c4c D201     		.2byte	0x1d2
ARM GAS  C:\Users\D4DE~1\AppData\Local\Temp\cccuUyWy.s 			page 127


 5196 1c4e 6D1C0000 		.4byte	0x1c6d
 5197 1c52 14       		.uleb128 0x14
 5198 1c53 0F3D0000 		.4byte	.LASF695
 5199 1c57 0D       		.byte	0xd
 5200 1c58 D501     		.2byte	0x1d5
 5201 1c5a 0D1C0000 		.4byte	0x1c0d
 5202 1c5e 00       		.byte	0
 5203 1c5f 14       		.uleb128 0x14
 5204 1c60 B4000000 		.4byte	.LASF613
 5205 1c64 0D       		.byte	0xd
 5206 1c65 D801     		.2byte	0x1d8
 5207 1c67 C8180000 		.4byte	0x18c8
 5208 1c6b 0C       		.byte	0xc
 5209 1c6c 00       		.byte	0
 5210 1c6d 12       		.uleb128 0x12
 5211 1c6e DB4D0000 		.4byte	.LASF696
 5212 1c72 0D       		.byte	0xd
 5213 1c73 DA01     		.2byte	0x1da
 5214 1c75 491C0000 		.4byte	0x1c49
 5215 1c79 13       		.uleb128 0x13
 5216 1c7a 04       		.byte	0x4
 5217 1c7b 0D       		.byte	0xd
 5218 1c7c DD01     		.2byte	0x1dd
 5219 1c7e AA1C0000 		.4byte	0x1caa
 5220 1c82 14       		.uleb128 0x14
 5221 1c83 84650000 		.4byte	.LASF692
 5222 1c87 0D       		.byte	0xd
 5223 1c88 E001     		.2byte	0x1e0
 5224 1c8a A01B0000 		.4byte	0x1ba0
 5225 1c8e 00       		.byte	0
 5226 1c8f 14       		.uleb128 0x14
 5227 1c90 B87C0000 		.4byte	.LASF697
 5228 1c94 0D       		.byte	0xd
 5229 1c95 E301     		.2byte	0x1e3
 5230 1c97 981A0000 		.4byte	0x1a98
 5231 1c9b 02       		.byte	0x2
 5232 1c9c 14       		.uleb128 0x14
 5233 1c9d F94D0000 		.4byte	.LASF698
 5234 1ca1 0D       		.byte	0xd
 5235 1ca2 E601     		.2byte	0x1e6
 5236 1ca4 941B0000 		.4byte	0x1b94
 5237 1ca8 03       		.byte	0x3
 5238 1ca9 00       		.byte	0
 5239 1caa 12       		.uleb128 0x12
 5240 1cab F0140000 		.4byte	.LASF699
 5241 1caf 0D       		.byte	0xd
 5242 1cb0 E801     		.2byte	0x1e8
 5243 1cb2 791C0000 		.4byte	0x1c79
 5244 1cb6 13       		.uleb128 0x13
 5245 1cb7 06       		.byte	0x6
 5246 1cb8 0D       		.byte	0xd
 5247 1cb9 EB01     		.2byte	0x1eb
 5248 1cbb DA1C0000 		.4byte	0x1cda
 5249 1cbf 14       		.uleb128 0x14
 5250 1cc0 B4000000 		.4byte	.LASF613
 5251 1cc4 0D       		.byte	0xd
 5252 1cc5 EE01     		.2byte	0x1ee
ARM GAS  C:\Users\D4DE~1\AppData\Local\Temp\cccuUyWy.s 			page 128


 5253 1cc7 C8180000 		.4byte	0x18c8
 5254 1ccb 00       		.byte	0
 5255 1ccc 14       		.uleb128 0x14
 5256 1ccd B0010000 		.4byte	.LASF700
 5257 1cd1 0D       		.byte	0xd
 5258 1cd2 F101     		.2byte	0x1f1
 5259 1cd4 AA1C0000 		.4byte	0x1caa
 5260 1cd8 02       		.byte	0x2
 5261 1cd9 00       		.byte	0
 5262 1cda 12       		.uleb128 0x12
 5263 1cdb 331A0000 		.4byte	.LASF701
 5264 1cdf 0D       		.byte	0xd
 5265 1ce0 F301     		.2byte	0x1f3
 5266 1ce2 B61C0000 		.4byte	0x1cb6
 5267 1ce6 13       		.uleb128 0x13
 5268 1ce7 0C       		.byte	0xc
 5269 1ce8 0D       		.byte	0xd
 5270 1ce9 0302     		.2byte	0x203
 5271 1ceb 241D0000 		.4byte	0x1d24
 5272 1cef 14       		.uleb128 0x14
 5273 1cf0 C82A0000 		.4byte	.LASF702
 5274 1cf4 0D       		.byte	0xd
 5275 1cf5 0802     		.2byte	0x208
 5276 1cf7 9F170000 		.4byte	0x179f
 5277 1cfb 00       		.byte	0
 5278 1cfc 14       		.uleb128 0x14
 5279 1cfd 1F070000 		.4byte	.LASF703
 5280 1d01 0D       		.byte	0xd
 5281 1d02 0D02     		.2byte	0x20d
 5282 1d04 C4000000 		.4byte	0xc4
 5283 1d08 04       		.byte	0x4
 5284 1d09 14       		.uleb128 0x14
 5285 1d0a 1A7F0000 		.4byte	.LASF704
 5286 1d0e 0D       		.byte	0xd
 5287 1d0f 1302     		.2byte	0x213
 5288 1d11 C4000000 		.4byte	0xc4
 5289 1d15 06       		.byte	0x6
 5290 1d16 14       		.uleb128 0x14
 5291 1d17 B4000000 		.4byte	.LASF613
 5292 1d1b 0D       		.byte	0xd
 5293 1d1c 1602     		.2byte	0x216
 5294 1d1e C8180000 		.4byte	0x18c8
 5295 1d22 08       		.byte	0x8
 5296 1d23 00       		.byte	0
 5297 1d24 12       		.uleb128 0x12
 5298 1d25 4D360000 		.4byte	.LASF705
 5299 1d29 0D       		.byte	0xd
 5300 1d2a 1802     		.2byte	0x218
 5301 1d2c E61C0000 		.4byte	0x1ce6
 5302 1d30 0F       		.uleb128 0xf
 5303 1d31 01       		.byte	0x1
 5304 1d32 53000000 		.4byte	0x53
 5305 1d36 0E       		.byte	0xe
 5306 1d37 D5       		.byte	0xd5
 5307 1d38 5B1D0000 		.4byte	0x1d5b
 5308 1d3c 11       		.uleb128 0x11
 5309 1d3d CE4B0000 		.4byte	.LASF706
ARM GAS  C:\Users\D4DE~1\AppData\Local\Temp\cccuUyWy.s 			page 129


 5310 1d41 00       		.byte	0
 5311 1d42 11       		.uleb128 0x11
 5312 1d43 DE3E0000 		.4byte	.LASF707
 5313 1d47 01       		.byte	0x1
 5314 1d48 11       		.uleb128 0x11
 5315 1d49 CC660000 		.4byte	.LASF708
 5316 1d4d 02       		.byte	0x2
 5317 1d4e 11       		.uleb128 0x11
 5318 1d4f 1A540000 		.4byte	.LASF709
 5319 1d53 03       		.byte	0x3
 5320 1d54 11       		.uleb128 0x11
 5321 1d55 DE450000 		.4byte	.LASF710
 5322 1d59 04       		.byte	0x4
 5323 1d5a 00       		.byte	0
 5324 1d5b 04       		.uleb128 0x4
 5325 1d5c 115B0000 		.4byte	.LASF711
 5326 1d60 0E       		.byte	0xe
 5327 1d61 E7       		.byte	0xe7
 5328 1d62 301D0000 		.4byte	0x1d30
 5329 1d66 0F       		.uleb128 0xf
 5330 1d67 01       		.byte	0x1
 5331 1d68 53000000 		.4byte	0x53
 5332 1d6c 0E       		.byte	0xe
 5333 1d6d EB       		.byte	0xeb
 5334 1d6e D91D0000 		.4byte	0x1dd9
 5335 1d72 11       		.uleb128 0x11
 5336 1d73 C8700000 		.4byte	.LASF712
 5337 1d77 00       		.byte	0
 5338 1d78 11       		.uleb128 0x11
 5339 1d79 BF150000 		.4byte	.LASF713
 5340 1d7d 01       		.byte	0x1
 5341 1d7e 11       		.uleb128 0x11
 5342 1d7f DC130000 		.4byte	.LASF714
 5343 1d83 02       		.byte	0x2
 5344 1d84 11       		.uleb128 0x11
 5345 1d85 8B1B0000 		.4byte	.LASF715
 5346 1d89 03       		.byte	0x3
 5347 1d8a 11       		.uleb128 0x11
 5348 1d8b FC1F0000 		.4byte	.LASF716
 5349 1d8f 04       		.byte	0x4
 5350 1d90 11       		.uleb128 0x11
 5351 1d91 0A050000 		.4byte	.LASF717
 5352 1d95 05       		.byte	0x5
 5353 1d96 11       		.uleb128 0x11
 5354 1d97 2A510000 		.4byte	.LASF718
 5355 1d9b 06       		.byte	0x6
 5356 1d9c 11       		.uleb128 0x11
 5357 1d9d 511F0000 		.4byte	.LASF719
 5358 1da1 07       		.byte	0x7
 5359 1da2 11       		.uleb128 0x11
 5360 1da3 EA1A0000 		.4byte	.LASF720
 5361 1da7 08       		.byte	0x8
 5362 1da8 11       		.uleb128 0x11
 5363 1da9 3B790000 		.4byte	.LASF721
 5364 1dad 09       		.byte	0x9
 5365 1dae 11       		.uleb128 0x11
 5366 1daf 43120000 		.4byte	.LASF722
ARM GAS  C:\Users\D4DE~1\AppData\Local\Temp\cccuUyWy.s 			page 130


 5367 1db3 0A       		.byte	0xa
 5368 1db4 11       		.uleb128 0x11
 5369 1db5 5F630000 		.4byte	.LASF723
 5370 1db9 0B       		.byte	0xb
 5371 1dba 11       		.uleb128 0x11
 5372 1dbb 66590000 		.4byte	.LASF724
 5373 1dbf 0C       		.byte	0xc
 5374 1dc0 11       		.uleb128 0x11
 5375 1dc1 27470000 		.4byte	.LASF725
 5376 1dc5 0D       		.byte	0xd
 5377 1dc6 11       		.uleb128 0x11
 5378 1dc7 057B0000 		.4byte	.LASF726
 5379 1dcb 0E       		.byte	0xe
 5380 1dcc 11       		.uleb128 0x11
 5381 1dcd 275B0000 		.4byte	.LASF727
 5382 1dd1 15       		.byte	0x15
 5383 1dd2 11       		.uleb128 0x11
 5384 1dd3 03430000 		.4byte	.LASF728
 5385 1dd7 18       		.byte	0x18
 5386 1dd8 00       		.byte	0
 5387 1dd9 12       		.uleb128 0x12
 5388 1dda 0B150000 		.4byte	.LASF729
 5389 1dde 0E       		.byte	0xe
 5390 1ddf 2801     		.2byte	0x128
 5391 1de1 661D0000 		.4byte	0x1d66
 5392 1de5 15       		.uleb128 0x15
 5393 1de6 01       		.byte	0x1
 5394 1de7 53000000 		.4byte	0x53
 5395 1deb 0E       		.byte	0xe
 5396 1dec 5201     		.2byte	0x152
 5397 1dee 0B1E0000 		.4byte	0x1e0b
 5398 1df2 11       		.uleb128 0x11
 5399 1df3 126C0000 		.4byte	.LASF730
 5400 1df7 00       		.byte	0
 5401 1df8 11       		.uleb128 0x11
 5402 1df9 1E730000 		.4byte	.LASF731
 5403 1dfd 01       		.byte	0x1
 5404 1dfe 11       		.uleb128 0x11
 5405 1dff FD3E0000 		.4byte	.LASF732
 5406 1e03 02       		.byte	0x2
 5407 1e04 11       		.uleb128 0x11
 5408 1e05 0A440000 		.4byte	.LASF733
 5409 1e09 03       		.byte	0x3
 5410 1e0a 00       		.byte	0
 5411 1e0b 12       		.uleb128 0x12
 5412 1e0c C15F0000 		.4byte	.LASF734
 5413 1e10 0E       		.byte	0xe
 5414 1e11 5F01     		.2byte	0x15f
 5415 1e13 E51D0000 		.4byte	0x1de5
 5416 1e17 12       		.uleb128 0x12
 5417 1e18 21160000 		.4byte	.LASF735
 5418 1e1c 0E       		.byte	0xe
 5419 1e1d 6601     		.2byte	0x166
 5420 1e1f 1C170000 		.4byte	0x171c
 5421 1e23 13       		.uleb128 0x13
 5422 1e24 06       		.byte	0x6
 5423 1e25 0E       		.byte	0xe
ARM GAS  C:\Users\D4DE~1\AppData\Local\Temp\cccuUyWy.s 			page 131


 5424 1e26 EA01     		.2byte	0x1ea
 5425 1e28 7B1E0000 		.4byte	0x1e7b
 5426 1e2c 14       		.uleb128 0x14
 5427 1e2d CB190000 		.4byte	.LASF736
 5428 1e31 0E       		.byte	0xe
 5429 1e32 F301     		.2byte	0x1f3
 5430 1e34 AE000000 		.4byte	0xae
 5431 1e38 00       		.byte	0
 5432 1e39 14       		.uleb128 0x14
 5433 1e3a 773B0000 		.4byte	.LASF737
 5434 1e3e 0E       		.byte	0xe
 5435 1e3f F901     		.2byte	0x1f9
 5436 1e41 AE000000 		.4byte	0xae
 5437 1e45 01       		.byte	0x1
 5438 1e46 14       		.uleb128 0x14
 5439 1e47 F76C0000 		.4byte	.LASF738
 5440 1e4b 0E       		.byte	0xe
 5441 1e4c 0002     		.2byte	0x200
 5442 1e4e AE000000 		.4byte	0xae
 5443 1e52 02       		.byte	0x2
 5444 1e53 14       		.uleb128 0x14
 5445 1e54 DC440000 		.4byte	.LASF739
 5446 1e58 0E       		.byte	0xe
 5447 1e59 0402     		.2byte	0x204
 5448 1e5b D91D0000 		.4byte	0x1dd9
 5449 1e5f 03       		.byte	0x3
 5450 1e60 14       		.uleb128 0x14
 5451 1e61 59420000 		.4byte	.LASF740
 5452 1e65 0E       		.byte	0xe
 5453 1e66 0E02     		.2byte	0x20e
 5454 1e68 AE000000 		.4byte	0xae
 5455 1e6c 04       		.byte	0x4
 5456 1e6d 14       		.uleb128 0x14
 5457 1e6e 84360000 		.4byte	.LASF602
 5458 1e72 0E       		.byte	0xe
 5459 1e73 1102     		.2byte	0x211
 5460 1e75 AE000000 		.4byte	0xae
 5461 1e79 05       		.byte	0x5
 5462 1e7a 00       		.byte	0
 5463 1e7b 12       		.uleb128 0x12
 5464 1e7c 00000000 		.4byte	.LASF741
 5465 1e80 0E       		.byte	0xe
 5466 1e81 1302     		.2byte	0x213
 5467 1e83 231E0000 		.4byte	0x1e23
 5468 1e87 13       		.uleb128 0x13
 5469 1e88 1C       		.byte	0x1c
 5470 1e89 0E       		.byte	0xe
 5471 1e8a 1503     		.2byte	0x315
 5472 1e8c 201F0000 		.4byte	0x1f20
 5473 1e90 14       		.uleb128 0x14
 5474 1e91 CA4C0000 		.4byte	.LASF742
 5475 1e95 0E       		.byte	0xe
 5476 1e96 1B03     		.2byte	0x31b
 5477 1e98 C4000000 		.4byte	0xc4
 5478 1e9c 00       		.byte	0
 5479 1e9d 14       		.uleb128 0x14
 5480 1e9e 012C0000 		.4byte	.LASF743
ARM GAS  C:\Users\D4DE~1\AppData\Local\Temp\cccuUyWy.s 			page 132


 5481 1ea2 0E       		.byte	0xe
 5482 1ea3 2003     		.2byte	0x320
 5483 1ea5 C4000000 		.4byte	0xc4
 5484 1ea9 02       		.byte	0x2
 5485 1eaa 14       		.uleb128 0x14
 5486 1eab 58440000 		.4byte	.LASF744
 5487 1eaf 0E       		.byte	0xe
 5488 1eb0 2603     		.2byte	0x326
 5489 1eb2 C4000000 		.4byte	0xc4
 5490 1eb6 04       		.byte	0x4
 5491 1eb7 14       		.uleb128 0x14
 5492 1eb8 E1060000 		.4byte	.LASF745
 5493 1ebc 0E       		.byte	0xe
 5494 1ebd 2903     		.2byte	0x329
 5495 1ebf 9F170000 		.4byte	0x179f
 5496 1ec3 08       		.byte	0x8
 5497 1ec4 14       		.uleb128 0x14
 5498 1ec5 C3750000 		.4byte	.LASF746
 5499 1ec9 0E       		.byte	0xe
 5500 1eca 2C03     		.2byte	0x32c
 5501 1ecc 0B1E0000 		.4byte	0x1e0b
 5502 1ed0 0C       		.byte	0xc
 5503 1ed1 14       		.uleb128 0x14
 5504 1ed2 103E0000 		.4byte	.LASF747
 5505 1ed6 0E       		.byte	0xe
 5506 1ed7 3603     		.2byte	0x336
 5507 1ed9 9F170000 		.4byte	0x179f
 5508 1edd 10       		.byte	0x10
 5509 1ede 14       		.uleb128 0x14
 5510 1edf D7340000 		.4byte	.LASF748
 5511 1ee3 0E       		.byte	0xe
 5512 1ee4 3F03     		.2byte	0x33f
 5513 1ee6 9F170000 		.4byte	0x179f
 5514 1eea 14       		.byte	0x14
 5515 1eeb 14       		.uleb128 0x14
 5516 1eec FF4E0000 		.4byte	.LASF749
 5517 1ef0 0E       		.byte	0xe
 5518 1ef1 4303     		.2byte	0x343
 5519 1ef3 AE000000 		.4byte	0xae
 5520 1ef7 18       		.byte	0x18
 5521 1ef8 14       		.uleb128 0x14
 5522 1ef9 0D160000 		.4byte	.LASF750
 5523 1efd 0E       		.byte	0xe
 5524 1efe 4F03     		.2byte	0x34f
 5525 1f00 AE000000 		.4byte	0xae
 5526 1f04 19       		.byte	0x19
 5527 1f05 14       		.uleb128 0x14
 5528 1f06 1D250000 		.4byte	.LASF751
 5529 1f0a 0E       		.byte	0xe
 5530 1f0b 5503     		.2byte	0x355
 5531 1f0d AE000000 		.4byte	0xae
 5532 1f11 1A       		.byte	0x1a
 5533 1f12 14       		.uleb128 0x14
 5534 1f13 84360000 		.4byte	.LASF602
 5535 1f17 0E       		.byte	0xe
 5536 1f18 5803     		.2byte	0x358
 5537 1f1a AE000000 		.4byte	0xae
ARM GAS  C:\Users\D4DE~1\AppData\Local\Temp\cccuUyWy.s 			page 133


 5538 1f1e 1B       		.byte	0x1b
 5539 1f1f 00       		.byte	0
 5540 1f20 12       		.uleb128 0x12
 5541 1f21 87810000 		.4byte	.LASF752
 5542 1f25 0E       		.byte	0xe
 5543 1f26 5A03     		.2byte	0x35a
 5544 1f28 871E0000 		.4byte	0x1e87
 5545 1f2c 0E       		.uleb128 0xe
 5546 1f2d 0C       		.byte	0xc
 5547 1f2e 0F       		.byte	0xf
 5548 1f2f 71       		.byte	0x71
 5549 1f30 951F0000 		.4byte	0x1f95
 5550 1f34 0B       		.uleb128 0xb
 5551 1f35 904A0000 		.4byte	.LASF753
 5552 1f39 0F       		.byte	0xf
 5553 1f3a 78       		.byte	0x78
 5554 1f3b AE000000 		.4byte	0xae
 5555 1f3f 00       		.byte	0
 5556 1f40 0B       		.uleb128 0xb
 5557 1f41 E66B0000 		.4byte	.LASF754
 5558 1f45 0F       		.byte	0xf
 5559 1f46 7E       		.byte	0x7e
 5560 1f47 AE000000 		.4byte	0xae
 5561 1f4b 01       		.byte	0x1
 5562 1f4c 0B       		.uleb128 0xb
 5563 1f4d 97770000 		.4byte	.LASF755
 5564 1f51 0F       		.byte	0xf
 5565 1f52 85       		.byte	0x85
 5566 1f53 C4000000 		.4byte	0xc4
 5567 1f57 02       		.byte	0x2
 5568 1f58 0B       		.uleb128 0xb
 5569 1f59 EA0D0000 		.4byte	.LASF756
 5570 1f5d 0F       		.byte	0xf
 5571 1f5e 8C       		.byte	0x8c
 5572 1f5f C4000000 		.4byte	0xc4
 5573 1f63 04       		.byte	0x4
 5574 1f64 0B       		.uleb128 0xb
 5575 1f65 553B0000 		.4byte	.LASF757
 5576 1f69 0F       		.byte	0xf
 5577 1f6a 94       		.byte	0x94
 5578 1f6b AE000000 		.4byte	0xae
 5579 1f6f 06       		.byte	0x6
 5580 1f70 0B       		.uleb128 0xb
 5581 1f71 392B0000 		.4byte	.LASF758
 5582 1f75 0F       		.byte	0xf
 5583 1f76 9C       		.byte	0x9c
 5584 1f77 AE000000 		.4byte	0xae
 5585 1f7b 07       		.byte	0x7
 5586 1f7c 0B       		.uleb128 0xb
 5587 1f7d 5D0D0000 		.4byte	.LASF759
 5588 1f81 0F       		.byte	0xf
 5589 1f82 A0       		.byte	0xa0
 5590 1f83 C4000000 		.4byte	0xc4
 5591 1f87 08       		.byte	0x8
 5592 1f88 0B       		.uleb128 0xb
 5593 1f89 AA2D0000 		.4byte	.LASF760
 5594 1f8d 0F       		.byte	0xf
ARM GAS  C:\Users\D4DE~1\AppData\Local\Temp\cccuUyWy.s 			page 134


 5595 1f8e AA       		.byte	0xaa
 5596 1f8f AE000000 		.4byte	0xae
 5597 1f93 0A       		.byte	0xa
 5598 1f94 00       		.byte	0
 5599 1f95 04       		.uleb128 0x4
 5600 1f96 B2060000 		.4byte	.LASF761
 5601 1f9a 0F       		.byte	0xf
 5602 1f9b AC       		.byte	0xac
 5603 1f9c 2C1F0000 		.4byte	0x1f2c
 5604 1fa0 0F       		.uleb128 0xf
 5605 1fa1 01       		.byte	0x1
 5606 1fa2 53000000 		.4byte	0x53
 5607 1fa6 10       		.byte	0x10
 5608 1fa7 3E       		.byte	0x3e
 5609 1fa8 CB1F0000 		.4byte	0x1fcb
 5610 1fac 11       		.uleb128 0x11
 5611 1fad A4190000 		.4byte	.LASF762
 5612 1fb1 00       		.byte	0
 5613 1fb2 11       		.uleb128 0x11
 5614 1fb3 F9050000 		.4byte	.LASF763
 5615 1fb7 01       		.byte	0x1
 5616 1fb8 11       		.uleb128 0x11
 5617 1fb9 BF070000 		.4byte	.LASF764
 5618 1fbd 02       		.byte	0x2
 5619 1fbe 11       		.uleb128 0x11
 5620 1fbf B0170000 		.4byte	.LASF765
 5621 1fc3 03       		.byte	0x3
 5622 1fc4 11       		.uleb128 0x11
 5623 1fc5 D0350000 		.4byte	.LASF766
 5624 1fc9 04       		.byte	0x4
 5625 1fca 00       		.byte	0
 5626 1fcb 04       		.uleb128 0x4
 5627 1fcc AD240000 		.4byte	.LASF767
 5628 1fd0 10       		.byte	0x10
 5629 1fd1 4E       		.byte	0x4e
 5630 1fd2 A01F0000 		.4byte	0x1fa0
 5631 1fd6 0E       		.uleb128 0xe
 5632 1fd7 10       		.byte	0x10
 5633 1fd8 10       		.byte	0x10
 5634 1fd9 56       		.byte	0x56
 5635 1fda 3F200000 		.4byte	0x203f
 5636 1fde 0B       		.uleb128 0xb
 5637 1fdf B11D0000 		.4byte	.LASF768
 5638 1fe3 10       		.byte	0x10
 5639 1fe4 5E       		.byte	0x5e
 5640 1fe5 C4000000 		.4byte	0xc4
 5641 1fe9 00       		.byte	0
 5642 1fea 0B       		.uleb128 0xb
 5643 1feb 020F0000 		.4byte	.LASF769
 5644 1fef 10       		.byte	0x10
 5645 1ff0 66       		.byte	0x66
 5646 1ff1 C4000000 		.4byte	0xc4
 5647 1ff5 02       		.byte	0x2
 5648 1ff6 0B       		.uleb128 0xb
 5649 1ff7 26060000 		.4byte	.LASF770
 5650 1ffb 10       		.byte	0x10
 5651 1ffc 6F       		.byte	0x6f
ARM GAS  C:\Users\D4DE~1\AppData\Local\Temp\cccuUyWy.s 			page 135


 5652 1ffd CB1F0000 		.4byte	0x1fcb
 5653 2001 04       		.byte	0x4
 5654 2002 0B       		.uleb128 0xb
 5655 2003 553B0000 		.4byte	.LASF757
 5656 2007 10       		.byte	0x10
 5657 2008 77       		.byte	0x77
 5658 2009 AE000000 		.4byte	0xae
 5659 200d 05       		.byte	0x5
 5660 200e 0B       		.uleb128 0xb
 5661 200f 8C0C0000 		.4byte	.LASF771
 5662 2013 10       		.byte	0x10
 5663 2014 7E       		.byte	0x7e
 5664 2015 AE000000 		.4byte	0xae
 5665 2019 06       		.byte	0x6
 5666 201a 0B       		.uleb128 0xb
 5667 201b 36590000 		.4byte	.LASF772
 5668 201f 10       		.byte	0x10
 5669 2020 84       		.byte	0x84
 5670 2021 0C170000 		.4byte	0x170c
 5671 2025 07       		.byte	0x7
 5672 2026 0B       		.uleb128 0xb
 5673 2027 A70B0000 		.4byte	.LASF773
 5674 202b 10       		.byte	0x10
 5675 202c 8C       		.byte	0x8c
 5676 202d AE000000 		.4byte	0xae
 5677 2031 0D       		.byte	0xd
 5678 2032 0B       		.uleb128 0xb
 5679 2033 BC660000 		.4byte	.LASF774
 5680 2037 10       		.byte	0x10
 5681 2038 98       		.byte	0x98
 5682 2039 AE000000 		.4byte	0xae
 5683 203d 0E       		.byte	0xe
 5684 203e 00       		.byte	0
 5685 203f 04       		.uleb128 0x4
 5686 2040 BF000000 		.4byte	.LASF775
 5687 2044 10       		.byte	0x10
 5688 2045 9A       		.byte	0x9a
 5689 2046 D61F0000 		.4byte	0x1fd6
 5690 204a 0E       		.uleb128 0xe
 5691 204b 20       		.byte	0x20
 5692 204c 10       		.byte	0x10
 5693 204d 9D       		.byte	0x9d
 5694 204e 6B200000 		.4byte	0x206b
 5695 2052 0B       		.uleb128 0xb
 5696 2053 F4580000 		.4byte	.LASF776
 5697 2057 10       		.byte	0x10
 5698 2058 A0       		.byte	0xa0
 5699 2059 6B200000 		.4byte	0x206b
 5700 205d 00       		.byte	0
 5701 205e 0B       		.uleb128 0xb
 5702 205f D2750000 		.4byte	.LASF777
 5703 2063 10       		.byte	0x10
 5704 2064 A3       		.byte	0xa3
 5705 2065 AE000000 		.4byte	0xae
 5706 2069 1F       		.byte	0x1f
 5707 206a 00       		.byte	0
 5708 206b 08       		.uleb128 0x8
ARM GAS  C:\Users\D4DE~1\AppData\Local\Temp\cccuUyWy.s 			page 136


 5709 206c AE000000 		.4byte	0xae
 5710 2070 7B200000 		.4byte	0x207b
 5711 2074 09       		.uleb128 0x9
 5712 2075 9E000000 		.4byte	0x9e
 5713 2079 1E       		.byte	0x1e
 5714 207a 00       		.byte	0
 5715 207b 04       		.uleb128 0x4
 5716 207c 8B570000 		.4byte	.LASF778
 5717 2080 10       		.byte	0x10
 5718 2081 A5       		.byte	0xa5
 5719 2082 4A200000 		.4byte	0x204a
 5720 2086 0E       		.uleb128 0xe
 5721 2087 20       		.byte	0x20
 5722 2088 10       		.byte	0x10
 5723 2089 A8       		.byte	0xa8
 5724 208a A7200000 		.4byte	0x20a7
 5725 208e 0B       		.uleb128 0xb
 5726 208f 03260000 		.4byte	.LASF779
 5727 2093 10       		.byte	0x10
 5728 2094 AC       		.byte	0xac
 5729 2095 6B200000 		.4byte	0x206b
 5730 2099 00       		.byte	0
 5731 209a 0B       		.uleb128 0xb
 5732 209b D4550000 		.4byte	.LASF780
 5733 209f 10       		.byte	0x10
 5734 20a0 AF       		.byte	0xaf
 5735 20a1 AE000000 		.4byte	0xae
 5736 20a5 1F       		.byte	0x1f
 5737 20a6 00       		.byte	0
 5738 20a7 04       		.uleb128 0x4
 5739 20a8 A7480000 		.4byte	.LASF781
 5740 20ac 10       		.byte	0x10
 5741 20ad B1       		.byte	0xb1
 5742 20ae 86200000 		.4byte	0x2086
 5743 20b2 0E       		.uleb128 0xe
 5744 20b3 14       		.byte	0x14
 5745 20b4 10       		.byte	0x10
 5746 20b5 B4       		.byte	0xb4
 5747 20b6 F7200000 		.4byte	0x20f7
 5748 20ba 0B       		.uleb128 0xb
 5749 20bb F3180000 		.4byte	.LASF782
 5750 20bf 10       		.byte	0x10
 5751 20c0 BC       		.byte	0xbc
 5752 20c1 AE000000 		.4byte	0xae
 5753 20c5 00       		.byte	0
 5754 20c6 0B       		.uleb128 0xb
 5755 20c7 93110000 		.4byte	.LASF783
 5756 20cb 10       		.byte	0x10
 5757 20cc C1       		.byte	0xc1
 5758 20cd F7200000 		.4byte	0x20f7
 5759 20d1 04       		.byte	0x4
 5760 20d2 0B       		.uleb128 0xb
 5761 20d3 F4580000 		.4byte	.LASF776
 5762 20d7 10       		.byte	0x10
 5763 20d8 C3       		.byte	0xc3
 5764 20d9 FD200000 		.4byte	0x20fd
 5765 20dd 08       		.byte	0x8
ARM GAS  C:\Users\D4DE~1\AppData\Local\Temp\cccuUyWy.s 			page 137


 5766 20de 0B       		.uleb128 0xb
 5767 20df 03260000 		.4byte	.LASF779
 5768 20e3 10       		.byte	0x10
 5769 20e4 C5       		.byte	0xc5
 5770 20e5 03210000 		.4byte	0x2103
 5771 20e9 0C       		.byte	0xc
 5772 20ea 0B       		.uleb128 0xb
 5773 20eb BF5E0000 		.4byte	.LASF784
 5774 20ef 10       		.byte	0x10
 5775 20f0 CF       		.byte	0xcf
 5776 20f1 C4000000 		.4byte	0xc4
 5777 20f5 10       		.byte	0x10
 5778 20f6 00       		.byte	0
 5779 20f7 18       		.uleb128 0x18
 5780 20f8 04       		.byte	0x4
 5781 20f9 3F200000 		.4byte	0x203f
 5782 20fd 18       		.uleb128 0x18
 5783 20fe 04       		.byte	0x4
 5784 20ff 7B200000 		.4byte	0x207b
 5785 2103 18       		.uleb128 0x18
 5786 2104 04       		.byte	0x4
 5787 2105 A7200000 		.4byte	0x20a7
 5788 2109 04       		.uleb128 0x4
 5789 210a 6E560000 		.4byte	.LASF785
 5790 210e 10       		.byte	0x10
 5791 210f D1       		.byte	0xd1
 5792 2110 B2200000 		.4byte	0x20b2
 5793 2114 0F       		.uleb128 0xf
 5794 2115 01       		.byte	0x1
 5795 2116 53000000 		.4byte	0x53
 5796 211a 02       		.byte	0x2
 5797 211b 69       		.byte	0x69
 5798 211c 33210000 		.4byte	0x2133
 5799 2120 11       		.uleb128 0x11
 5800 2121 AA7A0000 		.4byte	.LASF786
 5801 2125 00       		.byte	0
 5802 2126 11       		.uleb128 0x11
 5803 2127 79420000 		.4byte	.LASF787
 5804 212b 01       		.byte	0x1
 5805 212c 11       		.uleb128 0x11
 5806 212d 9D030000 		.4byte	.LASF788
 5807 2131 02       		.byte	0x2
 5808 2132 00       		.byte	0
 5809 2133 04       		.uleb128 0x4
 5810 2134 27350000 		.4byte	.LASF789
 5811 2138 02       		.byte	0x2
 5812 2139 70       		.byte	0x70
 5813 213a 14210000 		.4byte	0x2114
 5814 213e 0F       		.uleb128 0xf
 5815 213f 01       		.byte	0x1
 5816 2140 53000000 		.4byte	0x53
 5817 2144 02       		.byte	0x2
 5818 2145 7E       		.byte	0x7e
 5819 2146 63210000 		.4byte	0x2163
 5820 214a 11       		.uleb128 0x11
 5821 214b C4320000 		.4byte	.LASF790
 5822 214f 00       		.byte	0
ARM GAS  C:\Users\D4DE~1\AppData\Local\Temp\cccuUyWy.s 			page 138


 5823 2150 11       		.uleb128 0x11
 5824 2151 06620000 		.4byte	.LASF791
 5825 2155 01       		.byte	0x1
 5826 2156 11       		.uleb128 0x11
 5827 2157 5A290000 		.4byte	.LASF792
 5828 215b 02       		.byte	0x2
 5829 215c 11       		.uleb128 0x11
 5830 215d 8E6F0000 		.4byte	.LASF793
 5831 2161 03       		.byte	0x3
 5832 2162 00       		.byte	0
 5833 2163 04       		.uleb128 0x4
 5834 2164 1B180000 		.4byte	.LASF794
 5835 2168 02       		.byte	0x2
 5836 2169 83       		.byte	0x83
 5837 216a 3E210000 		.4byte	0x213e
 5838 216e 0F       		.uleb128 0xf
 5839 216f 01       		.byte	0x1
 5840 2170 53000000 		.4byte	0x53
 5841 2174 02       		.byte	0x2
 5842 2175 87       		.byte	0x87
 5843 2176 AB210000 		.4byte	0x21ab
 5844 217a 11       		.uleb128 0x11
 5845 217b 437B0000 		.4byte	.LASF795
 5846 217f 00       		.byte	0
 5847 2180 11       		.uleb128 0x11
 5848 2181 E92C0000 		.4byte	.LASF796
 5849 2185 01       		.byte	0x1
 5850 2186 11       		.uleb128 0x11
 5851 2187 A0620000 		.4byte	.LASF797
 5852 218b 02       		.byte	0x2
 5853 218c 11       		.uleb128 0x11
 5854 218d 53600000 		.4byte	.LASF798
 5855 2191 03       		.byte	0x3
 5856 2192 11       		.uleb128 0x11
 5857 2193 99100000 		.4byte	.LASF799
 5858 2197 04       		.byte	0x4
 5859 2198 11       		.uleb128 0x11
 5860 2199 715C0000 		.4byte	.LASF800
 5861 219d 05       		.byte	0x5
 5862 219e 11       		.uleb128 0x11
 5863 219f E5650000 		.4byte	.LASF801
 5864 21a3 06       		.byte	0x6
 5865 21a4 11       		.uleb128 0x11
 5866 21a5 5A2E0000 		.4byte	.LASF802
 5867 21a9 07       		.byte	0x7
 5868 21aa 00       		.byte	0
 5869 21ab 04       		.uleb128 0x4
 5870 21ac 627B0000 		.4byte	.LASF803
 5871 21b0 02       		.byte	0x2
 5872 21b1 90       		.byte	0x90
 5873 21b2 6E210000 		.4byte	0x216e
 5874 21b6 0E       		.uleb128 0xe
 5875 21b7 0C       		.byte	0xc
 5876 21b8 02       		.byte	0x2
 5877 21b9 93       		.byte	0x93
 5878 21ba 07220000 		.4byte	0x2207
 5879 21be 0B       		.uleb128 0xb
ARM GAS  C:\Users\D4DE~1\AppData\Local\Temp\cccuUyWy.s 			page 139


 5880 21bf 45600000 		.4byte	.LASF804
 5881 21c3 02       		.byte	0x2
 5882 21c4 96       		.byte	0x96
 5883 21c5 A01B0000 		.4byte	0x1ba0
 5884 21c9 00       		.byte	0
 5885 21ca 0B       		.uleb128 0xb
 5886 21cb 775F0000 		.4byte	.LASF805
 5887 21cf 02       		.byte	0x2
 5888 21d0 99       		.byte	0x99
 5889 21d1 A01B0000 		.4byte	0x1ba0
 5890 21d5 02       		.byte	0x2
 5891 21d6 0B       		.uleb128 0xb
 5892 21d7 437D0000 		.4byte	.LASF806
 5893 21db 02       		.byte	0x2
 5894 21dc 9C       		.byte	0x9c
 5895 21dd A01B0000 		.4byte	0x1ba0
 5896 21e1 04       		.byte	0x4
 5897 21e2 0B       		.uleb128 0xb
 5898 21e3 B5540000 		.4byte	.LASF807
 5899 21e7 02       		.byte	0x2
 5900 21e8 9F       		.byte	0x9f
 5901 21e9 A01B0000 		.4byte	0x1ba0
 5902 21ed 06       		.byte	0x6
 5903 21ee 0B       		.uleb128 0xb
 5904 21ef 9F2F0000 		.4byte	.LASF808
 5905 21f3 02       		.byte	0x2
 5906 21f4 A2       		.byte	0xa2
 5907 21f5 A01B0000 		.4byte	0x1ba0
 5908 21f9 08       		.byte	0x8
 5909 21fa 0B       		.uleb128 0xb
 5910 21fb D4190000 		.4byte	.LASF809
 5911 21ff 02       		.byte	0x2
 5912 2200 A5       		.byte	0xa5
 5913 2201 A01B0000 		.4byte	0x1ba0
 5914 2205 0A       		.byte	0xa
 5915 2206 00       		.byte	0
 5916 2207 04       		.uleb128 0x4
 5917 2208 C4360000 		.4byte	.LASF810
 5918 220c 02       		.byte	0x2
 5919 220d A6       		.byte	0xa6
 5920 220e B6210000 		.4byte	0x21b6
 5921 2212 13       		.uleb128 0x13
 5922 2213 0E       		.byte	0xe
 5923 2214 02       		.byte	0x2
 5924 2215 2B01     		.2byte	0x12b
 5925 2217 77220000 		.4byte	0x2277
 5926 221b 14       		.uleb128 0x14
 5927 221c CE060000 		.4byte	.LASF811
 5928 2220 02       		.byte	0x2
 5929 2221 2E01     		.2byte	0x12e
 5930 2223 C4000000 		.4byte	0xc4
 5931 2227 00       		.byte	0
 5932 2228 14       		.uleb128 0x14
 5933 2229 677F0000 		.4byte	.LASF812
 5934 222d 02       		.byte	0x2
 5935 222e 3101     		.2byte	0x131
 5936 2230 C4000000 		.4byte	0xc4
ARM GAS  C:\Users\D4DE~1\AppData\Local\Temp\cccuUyWy.s 			page 140


 5937 2234 02       		.byte	0x2
 5938 2235 14       		.uleb128 0x14
 5939 2236 A40F0000 		.4byte	.LASF813
 5940 223a 02       		.byte	0x2
 5941 223b 3401     		.2byte	0x134
 5942 223d C4000000 		.4byte	0xc4
 5943 2241 04       		.byte	0x4
 5944 2242 14       		.uleb128 0x14
 5945 2243 066A0000 		.4byte	.LASF814
 5946 2247 02       		.byte	0x2
 5947 2248 3701     		.2byte	0x137
 5948 224a AE000000 		.4byte	0xae
 5949 224e 06       		.byte	0x6
 5950 224f 14       		.uleb128 0x14
 5951 2250 485E0000 		.4byte	.LASF815
 5952 2254 02       		.byte	0x2
 5953 2255 3A01     		.2byte	0x13a
 5954 2257 C4000000 		.4byte	0xc4
 5955 225b 08       		.byte	0x8
 5956 225c 14       		.uleb128 0x14
 5957 225d D3560000 		.4byte	.LASF816
 5958 2261 02       		.byte	0x2
 5959 2262 3D01     		.2byte	0x13d
 5960 2264 C4000000 		.4byte	0xc4
 5961 2268 0A       		.byte	0xa
 5962 2269 14       		.uleb128 0x14
 5963 226a 2E060000 		.4byte	.LASF817
 5964 226e 02       		.byte	0x2
 5965 226f 4001     		.2byte	0x140
 5966 2271 C4000000 		.4byte	0xc4
 5967 2275 0C       		.byte	0xc
 5968 2276 00       		.byte	0
 5969 2277 12       		.uleb128 0x12
 5970 2278 08370000 		.4byte	.LASF818
 5971 227c 02       		.byte	0x2
 5972 227d 4101     		.2byte	0x141
 5973 227f 12220000 		.4byte	0x2212
 5974 2283 13       		.uleb128 0x13
 5975 2284 16       		.byte	0x16
 5976 2285 02       		.byte	0x2
 5977 2286 4401     		.2byte	0x144
 5978 2288 1C230000 		.4byte	0x231c
 5979 228c 14       		.uleb128 0x14
 5980 228d 7A500000 		.4byte	.LASF819
 5981 2291 02       		.byte	0x2
 5982 2292 4701     		.2byte	0x147
 5983 2294 C4000000 		.4byte	0xc4
 5984 2298 00       		.byte	0
 5985 2299 14       		.uleb128 0x14
 5986 229a FA4F0000 		.4byte	.LASF820
 5987 229e 02       		.byte	0x2
 5988 229f 4A01     		.2byte	0x14a
 5989 22a1 C4000000 		.4byte	0xc4
 5990 22a5 02       		.byte	0x2
 5991 22a6 14       		.uleb128 0x14
 5992 22a7 DB490000 		.4byte	.LASF821
 5993 22ab 02       		.byte	0x2
ARM GAS  C:\Users\D4DE~1\AppData\Local\Temp\cccuUyWy.s 			page 141


 5994 22ac 4D01     		.2byte	0x14d
 5995 22ae C4000000 		.4byte	0xc4
 5996 22b2 04       		.byte	0x4
 5997 22b3 14       		.uleb128 0x14
 5998 22b4 5C2F0000 		.4byte	.LASF822
 5999 22b8 02       		.byte	0x2
 6000 22b9 5001     		.2byte	0x150
 6001 22bb AE000000 		.4byte	0xae
 6002 22bf 06       		.byte	0x6
 6003 22c0 14       		.uleb128 0x14
 6004 22c1 A1350000 		.4byte	.LASF823
 6005 22c5 02       		.byte	0x2
 6006 22c6 5301     		.2byte	0x153
 6007 22c8 C4000000 		.4byte	0xc4
 6008 22cc 08       		.byte	0x8
 6009 22cd 14       		.uleb128 0x14
 6010 22ce 87050000 		.4byte	.LASF824
 6011 22d2 02       		.byte	0x2
 6012 22d3 5601     		.2byte	0x156
 6013 22d5 C4000000 		.4byte	0xc4
 6014 22d9 0A       		.byte	0xa
 6015 22da 14       		.uleb128 0x14
 6016 22db C55E0000 		.4byte	.LASF825
 6017 22df 02       		.byte	0x2
 6018 22e0 5901     		.2byte	0x159
 6019 22e2 C4000000 		.4byte	0xc4
 6020 22e6 0C       		.byte	0xc
 6021 22e7 14       		.uleb128 0x14
 6022 22e8 E3700000 		.4byte	.LASF826
 6023 22ec 02       		.byte	0x2
 6024 22ed 5C01     		.2byte	0x15c
 6025 22ef C4000000 		.4byte	0xc4
 6026 22f3 0E       		.byte	0xe
 6027 22f4 14       		.uleb128 0x14
 6028 22f5 6F610000 		.4byte	.LASF827
 6029 22f9 02       		.byte	0x2
 6030 22fa 5F01     		.2byte	0x15f
 6031 22fc C4000000 		.4byte	0xc4
 6032 2300 10       		.byte	0x10
 6033 2301 14       		.uleb128 0x14
 6034 2302 61510000 		.4byte	.LASF828
 6035 2306 02       		.byte	0x2
 6036 2307 6301     		.2byte	0x163
 6037 2309 C4000000 		.4byte	0xc4
 6038 230d 12       		.byte	0x12
 6039 230e 14       		.uleb128 0x14
 6040 230f B2650000 		.4byte	.LASF829
 6041 2313 02       		.byte	0x2
 6042 2314 6601     		.2byte	0x166
 6043 2316 C4000000 		.4byte	0xc4
 6044 231a 14       		.byte	0x14
 6045 231b 00       		.byte	0
 6046 231c 12       		.uleb128 0x12
 6047 231d 6F390000 		.4byte	.LASF830
 6048 2321 02       		.byte	0x2
 6049 2322 6701     		.2byte	0x167
 6050 2324 83220000 		.4byte	0x2283
ARM GAS  C:\Users\D4DE~1\AppData\Local\Temp\cccuUyWy.s 			page 142


 6051 2328 04       		.uleb128 0x4
 6052 2329 F32D0000 		.4byte	.LASF831
 6053 232d 11       		.byte	0x11
 6054 232e 74       		.byte	0x74
 6055 232f 6D1C0000 		.4byte	0x1c6d
 6056 2333 0E       		.uleb128 0xe
 6057 2334 06       		.byte	0x6
 6058 2335 11       		.byte	0x11
 6059 2336 7E       		.byte	0x7e
 6060 2337 60230000 		.4byte	0x2360
 6061 233b 0B       		.uleb128 0xb
 6062 233c B4000000 		.4byte	.LASF613
 6063 2340 11       		.byte	0x11
 6064 2341 81       		.byte	0x81
 6065 2342 C8180000 		.4byte	0x18c8
 6066 2346 00       		.byte	0
 6067 2347 0B       		.uleb128 0xb
 6068 2348 84650000 		.4byte	.LASF692
 6069 234c 11       		.byte	0x11
 6070 234d 84       		.byte	0x84
 6071 234e A01B0000 		.4byte	0x1ba0
 6072 2352 02       		.byte	0x2
 6073 2353 0B       		.uleb128 0xb
 6074 2354 B9140000 		.4byte	.LASF832
 6075 2358 11       		.byte	0x11
 6076 2359 8A       		.byte	0x8a
 6077 235a 941B0000 		.4byte	0x1b94
 6078 235e 04       		.byte	0x4
 6079 235f 00       		.byte	0
 6080 2360 04       		.uleb128 0x4
 6081 2361 7A7F0000 		.4byte	.LASF833
 6082 2365 11       		.byte	0x11
 6083 2366 8C       		.byte	0x8c
 6084 2367 33230000 		.4byte	0x2333
 6085 236b 0E       		.uleb128 0xe
 6086 236c 08       		.byte	0x8
 6087 236d 12       		.byte	0x12
 6088 236e D6       		.byte	0xd6
 6089 236f 8C230000 		.4byte	0x238c
 6090 2373 0B       		.uleb128 0xb
 6091 2374 91330000 		.4byte	.LASF834
 6092 2378 12       		.byte	0x12
 6093 2379 D9       		.byte	0xd9
 6094 237a C4000000 		.4byte	0xc4
 6095 237e 00       		.byte	0
 6096 237f 0B       		.uleb128 0xb
 6097 2380 13740000 		.4byte	.LASF835
 6098 2384 12       		.byte	0x12
 6099 2385 DE       		.byte	0xde
 6100 2386 A5000000 		.4byte	0xa5
 6101 238a 04       		.byte	0x4
 6102 238b 00       		.byte	0
 6103 238c 04       		.uleb128 0x4
 6104 238d C2330000 		.4byte	.LASF836
 6105 2391 12       		.byte	0x12
 6106 2392 E0       		.byte	0xe0
 6107 2393 6B230000 		.4byte	0x236b
ARM GAS  C:\Users\D4DE~1\AppData\Local\Temp\cccuUyWy.s 			page 143


 6108 2397 0E       		.uleb128 0xe
 6109 2398 08       		.byte	0x8
 6110 2399 12       		.byte	0x12
 6111 239a E3       		.byte	0xe3
 6112 239b B8230000 		.4byte	0x23b8
 6113 239f 0B       		.uleb128 0xb
 6114 23a0 4A760000 		.4byte	.LASF837
 6115 23a4 12       		.byte	0x12
 6116 23a5 E6       		.byte	0xe6
 6117 23a6 C4000000 		.4byte	0xc4
 6118 23aa 00       		.byte	0
 6119 23ab 0B       		.uleb128 0xb
 6120 23ac B4300000 		.4byte	.LASF838
 6121 23b0 12       		.byte	0x12
 6122 23b1 EB       		.byte	0xeb
 6123 23b2 B8230000 		.4byte	0x23b8
 6124 23b6 04       		.byte	0x4
 6125 23b7 00       		.byte	0
 6126 23b8 18       		.uleb128 0x18
 6127 23b9 04       		.byte	0x4
 6128 23ba 8C230000 		.4byte	0x238c
 6129 23be 04       		.uleb128 0x4
 6130 23bf 496B0000 		.4byte	.LASF839
 6131 23c3 12       		.byte	0x12
 6132 23c4 ED       		.byte	0xed
 6133 23c5 97230000 		.4byte	0x2397
 6134 23c9 1C       		.uleb128 0x1c
 6135 23ca 08       		.byte	0x8
 6136 23cb 12       		.byte	0x12
 6137 23cc F0       		.byte	0xf0
 6138 23cd E8230000 		.4byte	0x23e8
 6139 23d1 1D       		.uleb128 0x1d
 6140 23d2 77710000 		.4byte	.LASF840
 6141 23d6 12       		.byte	0x12
 6142 23d7 F6       		.byte	0xf6
 6143 23d8 BE230000 		.4byte	0x23be
 6144 23dc 1D       		.uleb128 0x1d
 6145 23dd 77360000 		.4byte	.LASF841
 6146 23e1 12       		.byte	0x12
 6147 23e2 F9       		.byte	0xf9
 6148 23e3 C4000000 		.4byte	0xc4
 6149 23e7 00       		.byte	0
 6150 23e8 04       		.uleb128 0x4
 6151 23e9 590B0000 		.4byte	.LASF842
 6152 23ed 12       		.byte	0x12
 6153 23ee FB       		.byte	0xfb
 6154 23ef C9230000 		.4byte	0x23c9
 6155 23f3 0E       		.uleb128 0xe
 6156 23f4 14       		.byte	0x14
 6157 23f5 12       		.byte	0x12
 6158 23f6 FE       		.byte	0xfe
 6159 23f7 3D240000 		.4byte	0x243d
 6160 23fb 14       		.uleb128 0x14
 6161 23fc 903F0000 		.4byte	.LASF843
 6162 2400 12       		.byte	0x12
 6163 2401 0101     		.2byte	0x101
 6164 2403 C4000000 		.4byte	0xc4
ARM GAS  C:\Users\D4DE~1\AppData\Local\Temp\cccuUyWy.s 			page 144


 6165 2407 00       		.byte	0
 6166 2408 14       		.uleb128 0x14
 6167 2409 9B2A0000 		.4byte	.LASF844
 6168 240d 12       		.byte	0x12
 6169 240e 0701     		.2byte	0x107
 6170 2410 C4000000 		.4byte	0xc4
 6171 2414 02       		.byte	0x2
 6172 2415 14       		.uleb128 0x14
 6173 2416 D5280000 		.4byte	.LASF845
 6174 241a 12       		.byte	0x12
 6175 241b 1501     		.2byte	0x115
 6176 241d CF000000 		.4byte	0xcf
 6177 2421 04       		.byte	0x4
 6178 2422 14       		.uleb128 0x14
 6179 2423 8C700000 		.4byte	.LASF846
 6180 2427 12       		.byte	0x12
 6181 2428 1801     		.2byte	0x118
 6182 242a C4000000 		.4byte	0xc4
 6183 242e 08       		.byte	0x8
 6184 242f 14       		.uleb128 0x14
 6185 2430 8E770000 		.4byte	.LASF847
 6186 2434 12       		.byte	0x12
 6187 2435 2101     		.2byte	0x121
 6188 2437 E8230000 		.4byte	0x23e8
 6189 243b 0C       		.byte	0xc
 6190 243c 00       		.byte	0
 6191 243d 12       		.uleb128 0x12
 6192 243e 282E0000 		.4byte	.LASF848
 6193 2442 12       		.byte	0x12
 6194 2443 2301     		.2byte	0x123
 6195 2445 F3230000 		.4byte	0x23f3
 6196 2449 18       		.uleb128 0x18
 6197 244a 04       		.byte	0x4
 6198 244b 4F240000 		.4byte	0x244f
 6199 244f 07       		.uleb128 0x7
 6200 2450 3D240000 		.4byte	0x243d
 6201 2454 0E       		.uleb128 0xe
 6202 2455 06       		.byte	0x6
 6203 2456 13       		.byte	0x13
 6204 2457 87       		.byte	0x87
 6205 2458 81240000 		.4byte	0x2481
 6206 245c 0B       		.uleb128 0xb
 6207 245d 45600000 		.4byte	.LASF804
 6208 2461 13       		.byte	0x13
 6209 2462 89       		.byte	0x89
 6210 2463 A01B0000 		.4byte	0x1ba0
 6211 2467 00       		.byte	0
 6212 2468 0B       		.uleb128 0xb
 6213 2469 AA070000 		.4byte	.LASF849
 6214 246d 13       		.byte	0x13
 6215 246e 8A       		.byte	0x8a
 6216 246f A01B0000 		.4byte	0x1ba0
 6217 2473 02       		.byte	0x2
 6218 2474 0B       		.uleb128 0xb
 6219 2475 797B0000 		.4byte	.LASF850
 6220 2479 13       		.byte	0x13
 6221 247a 8B       		.byte	0x8b
ARM GAS  C:\Users\D4DE~1\AppData\Local\Temp\cccuUyWy.s 			page 145


 6222 247b A01B0000 		.4byte	0x1ba0
 6223 247f 04       		.byte	0x4
 6224 2480 00       		.byte	0
 6225 2481 04       		.uleb128 0x4
 6226 2482 E16E0000 		.4byte	.LASF851
 6227 2486 13       		.byte	0x13
 6228 2487 8C       		.byte	0x8c
 6229 2488 54240000 		.4byte	0x2454
 6230 248c 0E       		.uleb128 0xe
 6231 248d 02       		.byte	0x2
 6232 248e 14       		.byte	0x14
 6233 248f C5       		.byte	0xc5
 6234 2490 AD240000 		.4byte	0x24ad
 6235 2494 0B       		.uleb128 0xb
 6236 2495 9F7F0000 		.4byte	.LASF852
 6237 2499 14       		.byte	0x14
 6238 249a D8       		.byte	0xd8
 6239 249b AE000000 		.4byte	0xae
 6240 249f 00       		.byte	0
 6241 24a0 0B       		.uleb128 0xb
 6242 24a1 84360000 		.4byte	.LASF602
 6243 24a5 14       		.byte	0x14
 6244 24a6 DB       		.byte	0xdb
 6245 24a7 AE000000 		.4byte	0xae
 6246 24ab 01       		.byte	0x1
 6247 24ac 00       		.byte	0
 6248 24ad 04       		.uleb128 0x4
 6249 24ae 292F0000 		.4byte	.LASF853
 6250 24b2 14       		.byte	0x14
 6251 24b3 DD       		.byte	0xdd
 6252 24b4 8C240000 		.4byte	0x248c
 6253 24b8 04       		.uleb128 0x4
 6254 24b9 107A0000 		.4byte	.LASF854
 6255 24bd 15       		.byte	0x15
 6256 24be 40       		.byte	0x40
 6257 24bf C3240000 		.4byte	0x24c3
 6258 24c3 18       		.uleb128 0x18
 6259 24c4 04       		.byte	0x4
 6260 24c5 C9240000 		.4byte	0x24c9
 6261 24c9 1E       		.uleb128 0x1e
 6262 24ca D9240000 		.4byte	0x24d9
 6263 24ce 1F       		.uleb128 0x1f
 6264 24cf CF000000 		.4byte	0xcf
 6265 24d3 1F       		.uleb128 0x1f
 6266 24d4 A5000000 		.4byte	0xa5
 6267 24d8 00       		.byte	0
 6268 24d9 03       		.uleb128 0x3
 6269 24da 01       		.byte	0x1
 6270 24db 02       		.byte	0x2
 6271 24dc 472F0000 		.4byte	.LASF855
 6272 24e0 20       		.uleb128 0x20
 6273 24e1 CE10     		.2byte	0x10ce
 6274 24e3 15       		.byte	0x15
 6275 24e4 DE01     		.2byte	0x1de
 6276 24e6 22250000 		.4byte	0x2522
 6277 24ea 14       		.uleb128 0x14
 6278 24eb E6580000 		.4byte	.LASF856
ARM GAS  C:\Users\D4DE~1\AppData\Local\Temp\cccuUyWy.s 			page 146


 6279 24ef 15       		.byte	0x15
 6280 24f0 E101     		.2byte	0x1e1
 6281 24f2 22250000 		.4byte	0x2522
 6282 24f6 00       		.byte	0
 6283 24f7 21       		.uleb128 0x21
 6284 24f8 C1740000 		.4byte	.LASF857
 6285 24fc 15       		.byte	0x15
 6286 24fd E401     		.2byte	0x1e4
 6287 24ff 33250000 		.4byte	0x2533
 6288 2503 9610     		.2byte	0x1096
 6289 2505 21       		.uleb128 0x21
 6290 2506 6D210000 		.4byte	.LASF858
 6291 250a 15       		.byte	0x15
 6292 250b E701     		.2byte	0x1e7
 6293 250d AE000000 		.4byte	0xae
 6294 2511 CC10     		.2byte	0x10cc
 6295 2513 21       		.uleb128 0x21
 6296 2514 A9560000 		.4byte	.LASF859
 6297 2518 15       		.byte	0x15
 6298 2519 EA01     		.2byte	0x1ea
 6299 251b AE000000 		.4byte	0xae
 6300 251f CD10     		.2byte	0x10cd
 6301 2521 00       		.byte	0
 6302 2522 08       		.uleb128 0x8
 6303 2523 AE000000 		.4byte	0xae
 6304 2527 33250000 		.4byte	0x2533
 6305 252b 0D       		.uleb128 0xd
 6306 252c 9E000000 		.4byte	0x9e
 6307 2530 9510     		.2byte	0x1095
 6308 2532 00       		.byte	0
 6309 2533 08       		.uleb128 0x8
 6310 2534 AE000000 		.4byte	0xae
 6311 2538 49250000 		.4byte	0x2549
 6312 253c 09       		.uleb128 0x9
 6313 253d 9E000000 		.4byte	0x9e
 6314 2541 11       		.byte	0x11
 6315 2542 09       		.uleb128 0x9
 6316 2543 9E000000 		.4byte	0x9e
 6317 2547 02       		.byte	0x2
 6318 2548 00       		.byte	0
 6319 2549 12       		.uleb128 0x12
 6320 254a 301E0000 		.4byte	.LASF860
 6321 254e 15       		.byte	0x15
 6322 254f EB01     		.2byte	0x1eb
 6323 2551 E0240000 		.4byte	0x24e0
 6324 2555 13       		.uleb128 0x13
 6325 2556 08       		.byte	0x8
 6326 2557 15       		.byte	0x15
 6327 2558 EE01     		.2byte	0x1ee
 6328 255a AD250000 		.4byte	0x25ad
 6329 255e 14       		.uleb128 0x14
 6330 255f 993B0000 		.4byte	.LASF861
 6331 2563 15       		.byte	0x15
 6332 2564 F101     		.2byte	0x1f1
 6333 2566 D7170000 		.4byte	0x17d7
 6334 256a 00       		.byte	0
 6335 256b 14       		.uleb128 0x14
ARM GAS  C:\Users\D4DE~1\AppData\Local\Temp\cccuUyWy.s 			page 147


 6336 256c 9D750000 		.4byte	.LASF862
 6337 2570 15       		.byte	0x15
 6338 2571 F401     		.2byte	0x1f4
 6339 2573 D7170000 		.4byte	0x17d7
 6340 2577 01       		.byte	0x1
 6341 2578 14       		.uleb128 0x14
 6342 2579 31180000 		.4byte	.LASF863
 6343 257d 15       		.byte	0x15
 6344 257e F701     		.2byte	0x1f7
 6345 2580 5B1D0000 		.4byte	0x1d5b
 6346 2584 02       		.byte	0x2
 6347 2585 14       		.uleb128 0x14
 6348 2586 A27C0000 		.4byte	.LASF864
 6349 258a 15       		.byte	0x15
 6350 258b FA01     		.2byte	0x1fa
 6351 258d AE000000 		.4byte	0xae
 6352 2591 03       		.byte	0x3
 6353 2592 14       		.uleb128 0x14
 6354 2593 405C0000 		.4byte	.LASF865
 6355 2597 15       		.byte	0x15
 6356 2598 FD01     		.2byte	0x1fd
 6357 259a AE000000 		.4byte	0xae
 6358 259e 04       		.byte	0x4
 6359 259f 14       		.uleb128 0x14
 6360 25a0 72330000 		.4byte	.LASF866
 6361 25a4 15       		.byte	0x15
 6362 25a5 0002     		.2byte	0x200
 6363 25a7 C4000000 		.4byte	0xc4
 6364 25ab 06       		.byte	0x6
 6365 25ac 00       		.byte	0
 6366 25ad 12       		.uleb128 0x12
 6367 25ae 1E760000 		.4byte	.LASF867
 6368 25b2 15       		.byte	0x15
 6369 25b3 0102     		.2byte	0x201
 6370 25b5 55250000 		.4byte	0x2555
 6371 25b9 13       		.uleb128 0x13
 6372 25ba 3C       		.byte	0x3c
 6373 25bb 15       		.byte	0x15
 6374 25bc 0502     		.2byte	0x205
 6375 25be 86260000 		.4byte	0x2686
 6376 25c2 14       		.uleb128 0x14
 6377 25c3 C42B0000 		.4byte	.LASF868
 6378 25c7 15       		.byte	0x15
 6379 25c8 0902     		.2byte	0x209
 6380 25ca 86260000 		.4byte	0x2686
 6381 25ce 00       		.byte	0
 6382 25cf 14       		.uleb128 0x14
 6383 25d0 256D0000 		.4byte	.LASF869
 6384 25d4 15       		.byte	0x15
 6385 25d5 0C02     		.2byte	0x20c
 6386 25d7 8C260000 		.4byte	0x268c
 6387 25db 04       		.byte	0x4
 6388 25dc 14       		.uleb128 0x14
 6389 25dd EF1E0000 		.4byte	.LASF870
 6390 25e1 15       		.byte	0x15
 6391 25e2 0F02     		.2byte	0x20f
 6392 25e4 92260000 		.4byte	0x2692
ARM GAS  C:\Users\D4DE~1\AppData\Local\Temp\cccuUyWy.s 			page 148


 6393 25e8 08       		.byte	0x8
 6394 25e9 14       		.uleb128 0x14
 6395 25ea 60380000 		.4byte	.LASF871
 6396 25ee 15       		.byte	0x15
 6397 25ef 1202     		.2byte	0x212
 6398 25f1 98260000 		.4byte	0x2698
 6399 25f5 0C       		.byte	0xc
 6400 25f6 14       		.uleb128 0x14
 6401 25f7 66430000 		.4byte	.LASF872
 6402 25fb 15       		.byte	0x15
 6403 25fc 1502     		.2byte	0x215
 6404 25fe 9E260000 		.4byte	0x269e
 6405 2602 10       		.byte	0x10
 6406 2603 14       		.uleb128 0x14
 6407 2604 FA560000 		.4byte	.LASF873
 6408 2608 15       		.byte	0x15
 6409 2609 1802     		.2byte	0x218
 6410 260b A9260000 		.4byte	0x26a9
 6411 260f 14       		.byte	0x14
 6412 2610 14       		.uleb128 0x14
 6413 2611 63060000 		.4byte	.LASF874
 6414 2615 15       		.byte	0x15
 6415 2616 1B02     		.2byte	0x21b
 6416 2618 B4260000 		.4byte	0x26b4
 6417 261c 18       		.byte	0x18
 6418 261d 14       		.uleb128 0x14
 6419 261e 6B420000 		.4byte	.LASF875
 6420 2622 15       		.byte	0x15
 6421 2623 1E02     		.2byte	0x21e
 6422 2625 9F170000 		.4byte	0x179f
 6423 2629 1C       		.byte	0x1c
 6424 262a 14       		.uleb128 0x14
 6425 262b 6A6F0000 		.4byte	.LASF876
 6426 262f 15       		.byte	0x15
 6427 2630 2102     		.2byte	0x221
 6428 2632 49240000 		.4byte	0x2449
 6429 2636 20       		.byte	0x20
 6430 2637 14       		.uleb128 0x14
 6431 2638 EA2D0000 		.4byte	.LASF877
 6432 263c 15       		.byte	0x15
 6433 263d 2402     		.2byte	0x224
 6434 263f BF260000 		.4byte	0x26bf
 6435 2643 24       		.byte	0x24
 6436 2644 14       		.uleb128 0x14
 6437 2645 78150000 		.4byte	.LASF878
 6438 2649 15       		.byte	0x15
 6439 264a 2702     		.2byte	0x227
 6440 264c C5260000 		.4byte	0x26c5
 6441 2650 28       		.byte	0x28
 6442 2651 14       		.uleb128 0x14
 6443 2652 601E0000 		.4byte	.LASF879
 6444 2656 15       		.byte	0x15
 6445 2657 2B02     		.2byte	0x22b
 6446 2659 B8240000 		.4byte	0x24b8
 6447 265d 2C       		.byte	0x2c
 6448 265e 14       		.uleb128 0x14
 6449 265f 6A2A0000 		.4byte	.LASF880
ARM GAS  C:\Users\D4DE~1\AppData\Local\Temp\cccuUyWy.s 			page 149


 6450 2663 15       		.byte	0x15
 6451 2664 2E02     		.2byte	0x22e
 6452 2666 D0260000 		.4byte	0x26d0
 6453 266a 30       		.byte	0x30
 6454 266b 14       		.uleb128 0x14
 6455 266c 895B0000 		.4byte	.LASF881
 6456 2670 15       		.byte	0x15
 6457 2671 3202     		.2byte	0x232
 6458 2673 D6260000 		.4byte	0x26d6
 6459 2677 34       		.byte	0x34
 6460 2678 14       		.uleb128 0x14
 6461 2679 C8550000 		.4byte	.LASF882
 6462 267d 15       		.byte	0x15
 6463 267e 3502     		.2byte	0x235
 6464 2680 E1260000 		.4byte	0x26e1
 6465 2684 38       		.byte	0x38
 6466 2685 00       		.byte	0
 6467 2686 18       		.uleb128 0x18
 6468 2687 04       		.byte	0x4
 6469 2688 09210000 		.4byte	0x2109
 6470 268c 18       		.uleb128 0x18
 6471 268d 04       		.byte	0x4
 6472 268e 77220000 		.4byte	0x2277
 6473 2692 18       		.uleb128 0x18
 6474 2693 04       		.byte	0x4
 6475 2694 951F0000 		.4byte	0x1f95
 6476 2698 18       		.uleb128 0x18
 6477 2699 04       		.byte	0x4
 6478 269a 1C230000 		.4byte	0x231c
 6479 269e 18       		.uleb128 0x18
 6480 269f 04       		.byte	0x4
 6481 26a0 A4260000 		.4byte	0x26a4
 6482 26a4 07       		.uleb128 0x7
 6483 26a5 49250000 		.4byte	0x2549
 6484 26a9 18       		.uleb128 0x18
 6485 26aa 04       		.byte	0x4
 6486 26ab AF260000 		.4byte	0x26af
 6487 26af 07       		.uleb128 0x7
 6488 26b0 81240000 		.4byte	0x2481
 6489 26b4 18       		.uleb128 0x18
 6490 26b5 04       		.byte	0x4
 6491 26b6 BA260000 		.4byte	0x26ba
 6492 26ba 07       		.uleb128 0x7
 6493 26bb 07220000 		.4byte	0x2207
 6494 26bf 18       		.uleb128 0x18
 6495 26c0 04       		.byte	0x4
 6496 26c1 7B1E0000 		.4byte	0x1e7b
 6497 26c5 18       		.uleb128 0x18
 6498 26c6 04       		.byte	0x4
 6499 26c7 CB260000 		.4byte	0x26cb
 6500 26cb 07       		.uleb128 0x7
 6501 26cc AD250000 		.4byte	0x25ad
 6502 26d0 18       		.uleb128 0x18
 6503 26d1 04       		.byte	0x4
 6504 26d2 171E0000 		.4byte	0x1e17
 6505 26d6 18       		.uleb128 0x18
 6506 26d7 04       		.byte	0x4
ARM GAS  C:\Users\D4DE~1\AppData\Local\Temp\cccuUyWy.s 			page 150


 6507 26d8 DC260000 		.4byte	0x26dc
 6508 26dc 07       		.uleb128 0x7
 6509 26dd 6B120000 		.4byte	0x126b
 6510 26e1 18       		.uleb128 0x18
 6511 26e2 04       		.byte	0x4
 6512 26e3 93170000 		.4byte	0x1793
 6513 26e7 12       		.uleb128 0x12
 6514 26e8 411D0000 		.4byte	.LASF883
 6515 26ec 15       		.byte	0x15
 6516 26ed 4C02     		.2byte	0x24c
 6517 26ef B9250000 		.4byte	0x25b9
 6518 26f3 0F       		.uleb128 0xf
 6519 26f4 04       		.byte	0x4
 6520 26f5 2C000000 		.4byte	0x2c
 6521 26f9 16       		.byte	0x16
 6522 26fa BA       		.byte	0xba
 6523 26fb D4310000 		.4byte	0x31d4
 6524 26ff 17       		.uleb128 0x17
 6525 2700 4A670000 		.4byte	.LASF884
 6526 2704 00000100 		.4byte	0x10000
 6527 2708 17       		.uleb128 0x17
 6528 2709 57070000 		.4byte	.LASF885
 6529 270d 01000100 		.4byte	0x10001
 6530 2711 17       		.uleb128 0x17
 6531 2712 D16D0000 		.4byte	.LASF886
 6532 2716 02000100 		.4byte	0x10002
 6533 271a 17       		.uleb128 0x17
 6534 271b 805D0000 		.4byte	.LASF887
 6535 271f 03000100 		.4byte	0x10003
 6536 2723 17       		.uleb128 0x17
 6537 2724 4B3F0000 		.4byte	.LASF888
 6538 2728 04000100 		.4byte	0x10004
 6539 272c 17       		.uleb128 0x17
 6540 272d 06480000 		.4byte	.LASF889
 6541 2731 05000100 		.4byte	0x10005
 6542 2735 17       		.uleb128 0x17
 6543 2736 21210000 		.4byte	.LASF890
 6544 273a 06000100 		.4byte	0x10006
 6545 273e 17       		.uleb128 0x17
 6546 273f 1F110000 		.4byte	.LASF891
 6547 2743 07000100 		.4byte	0x10007
 6548 2747 17       		.uleb128 0x17
 6549 2748 C9410000 		.4byte	.LASF892
 6550 274c 08000100 		.4byte	0x10008
 6551 2750 17       		.uleb128 0x17
 6552 2751 320B0000 		.4byte	.LASF893
 6553 2755 09000100 		.4byte	0x10009
 6554 2759 17       		.uleb128 0x17
 6555 275a DA400000 		.4byte	.LASF894
 6556 275e 0A000100 		.4byte	0x1000a
 6557 2762 17       		.uleb128 0x17
 6558 2763 EE590000 		.4byte	.LASF895
 6559 2767 0B000100 		.4byte	0x1000b
 6560 276b 17       		.uleb128 0x17
 6561 276c 6D6B0000 		.4byte	.LASF896
 6562 2770 0C000100 		.4byte	0x1000c
 6563 2774 17       		.uleb128 0x17
ARM GAS  C:\Users\D4DE~1\AppData\Local\Temp\cccuUyWy.s 			page 151


 6564 2775 D5630000 		.4byte	.LASF897
 6565 2779 0D000100 		.4byte	0x1000d
 6566 277d 17       		.uleb128 0x17
 6567 277e 42100000 		.4byte	.LASF898
 6568 2782 0E000100 		.4byte	0x1000e
 6569 2786 17       		.uleb128 0x17
 6570 2787 0B040000 		.4byte	.LASF899
 6571 278b 0F000100 		.4byte	0x1000f
 6572 278f 17       		.uleb128 0x17
 6573 2790 C7140000 		.4byte	.LASF900
 6574 2794 10000100 		.4byte	0x10010
 6575 2798 17       		.uleb128 0x17
 6576 2799 5A310000 		.4byte	.LASF901
 6577 279d 11000100 		.4byte	0x10011
 6578 27a1 17       		.uleb128 0x17
 6579 27a2 18770000 		.4byte	.LASF902
 6580 27a6 12000100 		.4byte	0x10012
 6581 27aa 17       		.uleb128 0x17
 6582 27ab EB6F0000 		.4byte	.LASF903
 6583 27af 13000100 		.4byte	0x10013
 6584 27b3 17       		.uleb128 0x17
 6585 27b4 3E170000 		.4byte	.LASF904
 6586 27b8 14000100 		.4byte	0x10014
 6587 27bc 17       		.uleb128 0x17
 6588 27bd 7B780000 		.4byte	.LASF905
 6589 27c1 15000100 		.4byte	0x10015
 6590 27c5 17       		.uleb128 0x17
 6591 27c6 D70F0000 		.4byte	.LASF906
 6592 27ca 16000100 		.4byte	0x10016
 6593 27ce 17       		.uleb128 0x17
 6594 27cf 0D0F0000 		.4byte	.LASF907
 6595 27d3 17000100 		.4byte	0x10017
 6596 27d7 17       		.uleb128 0x17
 6597 27d8 04510000 		.4byte	.LASF908
 6598 27dc 18000100 		.4byte	0x10018
 6599 27e0 17       		.uleb128 0x17
 6600 27e1 307F0000 		.4byte	.LASF909
 6601 27e5 19000100 		.4byte	0x10019
 6602 27e9 17       		.uleb128 0x17
 6603 27ea E9690000 		.4byte	.LASF910
 6604 27ee 1A000100 		.4byte	0x1001a
 6605 27f2 17       		.uleb128 0x17
 6606 27f3 95740000 		.4byte	.LASF911
 6607 27f7 1B000100 		.4byte	0x1001b
 6608 27fb 17       		.uleb128 0x17
 6609 27fc 7D5E0000 		.4byte	.LASF912
 6610 2800 1C000100 		.4byte	0x1001c
 6611 2804 17       		.uleb128 0x17
 6612 2805 82180000 		.4byte	.LASF913
 6613 2809 1D000100 		.4byte	0x1001d
 6614 280d 17       		.uleb128 0x17
 6615 280e E3550000 		.4byte	.LASF914
 6616 2812 1E000100 		.4byte	0x1001e
 6617 2816 17       		.uleb128 0x17
 6618 2817 8D210000 		.4byte	.LASF915
 6619 281b 1F000100 		.4byte	0x1001f
 6620 281f 17       		.uleb128 0x17
ARM GAS  C:\Users\D4DE~1\AppData\Local\Temp\cccuUyWy.s 			page 152


 6621 2820 0F260000 		.4byte	.LASF916
 6622 2824 20000100 		.4byte	0x10020
 6623 2828 17       		.uleb128 0x17
 6624 2829 E57A0000 		.4byte	.LASF917
 6625 282d 21000100 		.4byte	0x10021
 6626 2831 17       		.uleb128 0x17
 6627 2832 AE6F0000 		.4byte	.LASF918
 6628 2836 22000100 		.4byte	0x10022
 6629 283a 17       		.uleb128 0x17
 6630 283b 3B110000 		.4byte	.LASF919
 6631 283f 23000100 		.4byte	0x10023
 6632 2843 17       		.uleb128 0x17
 6633 2844 3F780000 		.4byte	.LASF920
 6634 2848 24000100 		.4byte	0x10024
 6635 284c 17       		.uleb128 0x17
 6636 284d BD590000 		.4byte	.LASF921
 6637 2851 25000100 		.4byte	0x10025
 6638 2855 17       		.uleb128 0x17
 6639 2856 3E200000 		.4byte	.LASF922
 6640 285a 26000100 		.4byte	0x10026
 6641 285e 17       		.uleb128 0x17
 6642 285f 4F7E0000 		.4byte	.LASF923
 6643 2863 27000100 		.4byte	0x10027
 6644 2867 17       		.uleb128 0x17
 6645 2868 0D7E0000 		.4byte	.LASF924
 6646 286c 28000100 		.4byte	0x10028
 6647 2870 17       		.uleb128 0x17
 6648 2871 01410000 		.4byte	.LASF925
 6649 2875 29000100 		.4byte	0x10029
 6650 2879 17       		.uleb128 0x17
 6651 287a 4E680000 		.4byte	.LASF926
 6652 287e 2A000100 		.4byte	0x1002a
 6653 2882 17       		.uleb128 0x17
 6654 2883 842D0000 		.4byte	.LASF927
 6655 2887 2B000100 		.4byte	0x1002b
 6656 288b 17       		.uleb128 0x17
 6657 288c D62E0000 		.4byte	.LASF928
 6658 2890 2C000100 		.4byte	0x1002c
 6659 2894 17       		.uleb128 0x17
 6660 2895 716F0000 		.4byte	.LASF929
 6661 2899 2D000100 		.4byte	0x1002d
 6662 289d 17       		.uleb128 0x17
 6663 289e 8F650000 		.4byte	.LASF930
 6664 28a2 2E000100 		.4byte	0x1002e
 6665 28a6 17       		.uleb128 0x17
 6666 28a7 F1000000 		.4byte	.LASF931
 6667 28ab 2F000100 		.4byte	0x1002f
 6668 28af 17       		.uleb128 0x17
 6669 28b0 F5570000 		.4byte	.LASF932
 6670 28b4 30000100 		.4byte	0x10030
 6671 28b8 17       		.uleb128 0x17
 6672 28b9 F9750000 		.4byte	.LASF933
 6673 28bd 31000100 		.4byte	0x10031
 6674 28c1 17       		.uleb128 0x17
 6675 28c2 41430000 		.4byte	.LASF934
 6676 28c6 32000100 		.4byte	0x10032
 6677 28ca 17       		.uleb128 0x17
ARM GAS  C:\Users\D4DE~1\AppData\Local\Temp\cccuUyWy.s 			page 153


 6678 28cb 85230000 		.4byte	.LASF935
 6679 28cf 33000100 		.4byte	0x10033
 6680 28d3 17       		.uleb128 0x17
 6681 28d4 42090000 		.4byte	.LASF936
 6682 28d8 34000100 		.4byte	0x10034
 6683 28dc 17       		.uleb128 0x17
 6684 28dd 6D3F0000 		.4byte	.LASF937
 6685 28e1 35000100 		.4byte	0x10035
 6686 28e5 17       		.uleb128 0x17
 6687 28e6 4A080000 		.4byte	.LASF938
 6688 28ea 36000100 		.4byte	0x10036
 6689 28ee 17       		.uleb128 0x17
 6690 28ef 0F520000 		.4byte	.LASF939
 6691 28f3 37000100 		.4byte	0x10037
 6692 28f7 17       		.uleb128 0x17
 6693 28f8 747E0000 		.4byte	.LASF940
 6694 28fc 38000100 		.4byte	0x10038
 6695 2900 17       		.uleb128 0x17
 6696 2901 92280000 		.4byte	.LASF941
 6697 2905 39000100 		.4byte	0x10039
 6698 2909 17       		.uleb128 0x17
 6699 290a 007D0000 		.4byte	.LASF942
 6700 290e 3A000100 		.4byte	0x1003a
 6701 2912 17       		.uleb128 0x17
 6702 2913 8F090000 		.4byte	.LASF943
 6703 2917 3B000100 		.4byte	0x1003b
 6704 291b 17       		.uleb128 0x17
 6705 291c 91080000 		.4byte	.LASF944
 6706 2920 3C000100 		.4byte	0x1003c
 6707 2924 17       		.uleb128 0x17
 6708 2925 F54A0000 		.4byte	.LASF945
 6709 2929 3D000100 		.4byte	0x1003d
 6710 292d 17       		.uleb128 0x17
 6711 292e 25370000 		.4byte	.LASF946
 6712 2932 3E000100 		.4byte	0x1003e
 6713 2936 17       		.uleb128 0x17
 6714 2937 C2120000 		.4byte	.LASF947
 6715 293b 3F000100 		.4byte	0x1003f
 6716 293f 17       		.uleb128 0x17
 6717 2940 B8440000 		.4byte	.LASF948
 6718 2944 40000100 		.4byte	0x10040
 6719 2948 17       		.uleb128 0x17
 6720 2949 DA4E0000 		.4byte	.LASF949
 6721 294d 41000100 		.4byte	0x10041
 6722 2951 17       		.uleb128 0x17
 6723 2952 A1130000 		.4byte	.LASF950
 6724 2956 42000100 		.4byte	0x10042
 6725 295a 17       		.uleb128 0x17
 6726 295b 9E2B0000 		.4byte	.LASF951
 6727 295f 43000100 		.4byte	0x10043
 6728 2963 17       		.uleb128 0x17
 6729 2964 303F0000 		.4byte	.LASF952
 6730 2968 44000100 		.4byte	0x10044
 6731 296c 17       		.uleb128 0x17
 6732 296d 86520000 		.4byte	.LASF953
 6733 2971 45000100 		.4byte	0x10045
 6734 2975 17       		.uleb128 0x17
ARM GAS  C:\Users\D4DE~1\AppData\Local\Temp\cccuUyWy.s 			page 154


 6735 2976 D91D0000 		.4byte	.LASF954
 6736 297a 46000100 		.4byte	0x10046
 6737 297e 17       		.uleb128 0x17
 6738 297f E9640000 		.4byte	.LASF955
 6739 2983 47000100 		.4byte	0x10047
 6740 2987 17       		.uleb128 0x17
 6741 2988 F7220000 		.4byte	.LASF956
 6742 298c 48000100 		.4byte	0x10048
 6743 2990 17       		.uleb128 0x17
 6744 2991 9B730000 		.4byte	.LASF957
 6745 2995 49000100 		.4byte	0x10049
 6746 2999 17       		.uleb128 0x17
 6747 299a 48010000 		.4byte	.LASF958
 6748 299e 4A000100 		.4byte	0x1004a
 6749 29a2 17       		.uleb128 0x17
 6750 29a3 50260000 		.4byte	.LASF959
 6751 29a7 4B000100 		.4byte	0x1004b
 6752 29ab 17       		.uleb128 0x17
 6753 29ac 8C010000 		.4byte	.LASF960
 6754 29b0 4C000100 		.4byte	0x1004c
 6755 29b4 17       		.uleb128 0x17
 6756 29b5 FB060000 		.4byte	.LASF961
 6757 29b9 4D000100 		.4byte	0x1004d
 6758 29bd 17       		.uleb128 0x17
 6759 29be C42C0000 		.4byte	.LASF962
 6760 29c2 4E000100 		.4byte	0x1004e
 6761 29c6 17       		.uleb128 0x17
 6762 29c7 8D270000 		.4byte	.LASF963
 6763 29cb 4F000100 		.4byte	0x1004f
 6764 29cf 17       		.uleb128 0x17
 6765 29d0 496E0000 		.4byte	.LASF964
 6766 29d4 50000100 		.4byte	0x10050
 6767 29d8 17       		.uleb128 0x17
 6768 29d9 30550000 		.4byte	.LASF965
 6769 29dd 51000100 		.4byte	0x10051
 6770 29e1 17       		.uleb128 0x17
 6771 29e2 F6390000 		.4byte	.LASF966
 6772 29e6 52000100 		.4byte	0x10052
 6773 29ea 17       		.uleb128 0x17
 6774 29eb F3510000 		.4byte	.LASF967
 6775 29ef 53000100 		.4byte	0x10053
 6776 29f3 17       		.uleb128 0x17
 6777 29f4 325F0000 		.4byte	.LASF968
 6778 29f8 54000100 		.4byte	0x10054
 6779 29fc 17       		.uleb128 0x17
 6780 29fd 60130000 		.4byte	.LASF969
 6781 2a01 55000100 		.4byte	0x10055
 6782 2a05 17       		.uleb128 0x17
 6783 2a06 10490000 		.4byte	.LASF970
 6784 2a0a 56000100 		.4byte	0x10056
 6785 2a0e 17       		.uleb128 0x17
 6786 2a0f 904F0000 		.4byte	.LASF971
 6787 2a13 57000100 		.4byte	0x10057
 6788 2a17 17       		.uleb128 0x17
 6789 2a18 DA7C0000 		.4byte	.LASF972
 6790 2a1c 58000100 		.4byte	0x10058
 6791 2a20 17       		.uleb128 0x17
ARM GAS  C:\Users\D4DE~1\AppData\Local\Temp\cccuUyWy.s 			page 155


 6792 2a21 624C0000 		.4byte	.LASF973
 6793 2a25 59000100 		.4byte	0x10059
 6794 2a29 17       		.uleb128 0x17
 6795 2a2a 39460000 		.4byte	.LASF974
 6796 2a2e 5A000100 		.4byte	0x1005a
 6797 2a32 17       		.uleb128 0x17
 6798 2a33 3C4B0000 		.4byte	.LASF975
 6799 2a37 5B000100 		.4byte	0x1005b
 6800 2a3b 17       		.uleb128 0x17
 6801 2a3c 90000000 		.4byte	.LASF976
 6802 2a40 5C000100 		.4byte	0x1005c
 6803 2a44 17       		.uleb128 0x17
 6804 2a45 57550000 		.4byte	.LASF977
 6805 2a49 5D000100 		.4byte	0x1005d
 6806 2a4d 17       		.uleb128 0x17
 6807 2a4e 3C720000 		.4byte	.LASF978
 6808 2a52 5E000100 		.4byte	0x1005e
 6809 2a56 17       		.uleb128 0x17
 6810 2a57 364E0000 		.4byte	.LASF979
 6811 2a5b 5F000100 		.4byte	0x1005f
 6812 2a5f 17       		.uleb128 0x17
 6813 2a60 45750000 		.4byte	.LASF980
 6814 2a64 60000100 		.4byte	0x10060
 6815 2a68 17       		.uleb128 0x17
 6816 2a69 55330000 		.4byte	.LASF981
 6817 2a6d 61000100 		.4byte	0x10061
 6818 2a71 17       		.uleb128 0x17
 6819 2a72 51530000 		.4byte	.LASF982
 6820 2a76 62000100 		.4byte	0x10062
 6821 2a7a 17       		.uleb128 0x17
 6822 2a7b 13750000 		.4byte	.LASF983
 6823 2a7f 63000100 		.4byte	0x10063
 6824 2a83 17       		.uleb128 0x17
 6825 2a84 75470000 		.4byte	.LASF984
 6826 2a88 64000100 		.4byte	0x10064
 6827 2a8c 17       		.uleb128 0x17
 6828 2a8d 3E240000 		.4byte	.LASF985
 6829 2a91 65000100 		.4byte	0x10065
 6830 2a95 17       		.uleb128 0x17
 6831 2a96 335A0000 		.4byte	.LASF986
 6832 2a9a 66000100 		.4byte	0x10066
 6833 2a9e 17       		.uleb128 0x17
 6834 2a9f BA3A0000 		.4byte	.LASF987
 6835 2aa3 67000100 		.4byte	0x10067
 6836 2aa7 17       		.uleb128 0x17
 6837 2aa8 46800000 		.4byte	.LASF988
 6838 2aac 68000100 		.4byte	0x10068
 6839 2ab0 17       		.uleb128 0x17
 6840 2ab1 52150000 		.4byte	.LASF989
 6841 2ab5 69000100 		.4byte	0x10069
 6842 2ab9 17       		.uleb128 0x17
 6843 2aba ED520000 		.4byte	.LASF990
 6844 2abe 6A000100 		.4byte	0x1006a
 6845 2ac2 17       		.uleb128 0x17
 6846 2ac3 8A720000 		.4byte	.LASF991
 6847 2ac7 6B000100 		.4byte	0x1006b
 6848 2acb 17       		.uleb128 0x17
ARM GAS  C:\Users\D4DE~1\AppData\Local\Temp\cccuUyWy.s 			page 156


 6849 2acc 15020000 		.4byte	.LASF992
 6850 2ad0 6C000100 		.4byte	0x1006c
 6851 2ad4 17       		.uleb128 0x17
 6852 2ad5 D91C0000 		.4byte	.LASF993
 6853 2ad9 6D000100 		.4byte	0x1006d
 6854 2add 17       		.uleb128 0x17
 6855 2ade AB230000 		.4byte	.LASF994
 6856 2ae2 6E000100 		.4byte	0x1006e
 6857 2ae6 17       		.uleb128 0x17
 6858 2ae7 E5210000 		.4byte	.LASF995
 6859 2aeb 6F000100 		.4byte	0x1006f
 6860 2aef 17       		.uleb128 0x17
 6861 2af0 B17E0000 		.4byte	.LASF996
 6862 2af4 70000100 		.4byte	0x10070
 6863 2af8 17       		.uleb128 0x17
 6864 2af9 2E150000 		.4byte	.LASF997
 6865 2afd 71000100 		.4byte	0x10071
 6866 2b01 17       		.uleb128 0x17
 6867 2b02 55490000 		.4byte	.LASF998
 6868 2b06 72000100 		.4byte	0x10072
 6869 2b0a 17       		.uleb128 0x17
 6870 2b0b 74260000 		.4byte	.LASF999
 6871 2b0f 73000100 		.4byte	0x10073
 6872 2b13 17       		.uleb128 0x17
 6873 2b14 5F230000 		.4byte	.LASF1000
 6874 2b18 74000100 		.4byte	0x10074
 6875 2b1c 17       		.uleb128 0x17
 6876 2b1d 34520000 		.4byte	.LASF1001
 6877 2b21 75000100 		.4byte	0x10075
 6878 2b25 17       		.uleb128 0x17
 6879 2b26 F6800000 		.4byte	.LASF1002
 6880 2b2a 76000100 		.4byte	0x10076
 6881 2b2e 17       		.uleb128 0x17
 6882 2b2f 48300000 		.4byte	.LASF1003
 6883 2b33 77000100 		.4byte	0x10077
 6884 2b37 17       		.uleb128 0x17
 6885 2b38 39350000 		.4byte	.LASF1004
 6886 2b3c 78000100 		.4byte	0x10078
 6887 2b40 17       		.uleb128 0x17
 6888 2b41 C26A0000 		.4byte	.LASF1005
 6889 2b45 79000100 		.4byte	0x10079
 6890 2b49 17       		.uleb128 0x17
 6891 2b4a 03220000 		.4byte	.LASF1006
 6892 2b4e 7A000100 		.4byte	0x1007a
 6893 2b52 17       		.uleb128 0x17
 6894 2b53 03600000 		.4byte	.LASF1007
 6895 2b57 7B000100 		.4byte	0x1007b
 6896 2b5b 17       		.uleb128 0x17
 6897 2b5c A5450000 		.4byte	.LASF1008
 6898 2b60 7C000100 		.4byte	0x1007c
 6899 2b64 17       		.uleb128 0x17
 6900 2b65 312C0000 		.4byte	.LASF1009
 6901 2b69 7D000100 		.4byte	0x1007d
 6902 2b6d 17       		.uleb128 0x17
 6903 2b6e AC6D0000 		.4byte	.LASF1010
 6904 2b72 7E000100 		.4byte	0x1007e
 6905 2b76 17       		.uleb128 0x17
ARM GAS  C:\Users\D4DE~1\AppData\Local\Temp\cccuUyWy.s 			page 157


 6906 2b77 AB790000 		.4byte	.LASF1011
 6907 2b7b 7F000100 		.4byte	0x1007f
 6908 2b7f 17       		.uleb128 0x17
 6909 2b80 1D3D0000 		.4byte	.LASF1012
 6910 2b84 80000100 		.4byte	0x10080
 6911 2b88 17       		.uleb128 0x17
 6912 2b89 51650000 		.4byte	.LASF1013
 6913 2b8d 81000100 		.4byte	0x10081
 6914 2b91 17       		.uleb128 0x17
 6915 2b92 07300000 		.4byte	.LASF1014
 6916 2b96 82000100 		.4byte	0x10082
 6917 2b9a 17       		.uleb128 0x17
 6918 2b9b 764D0000 		.4byte	.LASF1015
 6919 2b9f 83000100 		.4byte	0x10083
 6920 2ba3 17       		.uleb128 0x17
 6921 2ba4 E5240000 		.4byte	.LASF1016
 6922 2ba8 84000100 		.4byte	0x10084
 6923 2bac 17       		.uleb128 0x17
 6924 2bad A5370000 		.4byte	.LASF1017
 6925 2bb1 85000100 		.4byte	0x10085
 6926 2bb5 17       		.uleb128 0x17
 6927 2bb6 08280000 		.4byte	.LASF1018
 6928 2bba 86000100 		.4byte	0x10086
 6929 2bbe 17       		.uleb128 0x17
 6930 2bbf 16460000 		.4byte	.LASF1019
 6931 2bc3 87000100 		.4byte	0x10087
 6932 2bc7 17       		.uleb128 0x17
 6933 2bc8 CD160000 		.4byte	.LASF1020
 6934 2bcc 88000100 		.4byte	0x10088
 6935 2bd0 17       		.uleb128 0x17
 6936 2bd1 57040000 		.4byte	.LASF1021
 6937 2bd5 89000100 		.4byte	0x10089
 6938 2bd9 17       		.uleb128 0x17
 6939 2bda 257C0000 		.4byte	.LASF1022
 6940 2bde 8A000100 		.4byte	0x1008a
 6941 2be2 17       		.uleb128 0x17
 6942 2be3 E4300000 		.4byte	.LASF1023
 6943 2be7 8B000100 		.4byte	0x1008b
 6944 2beb 17       		.uleb128 0x17
 6945 2bec 6B090000 		.4byte	.LASF1024
 6946 2bf0 8C000100 		.4byte	0x1008c
 6947 2bf4 17       		.uleb128 0x17
 6948 2bf5 64370000 		.4byte	.LASF1025
 6949 2bf9 8D000100 		.4byte	0x1008d
 6950 2bfd 17       		.uleb128 0x17
 6951 2bfe DE7F0000 		.4byte	.LASF1026
 6952 2c02 8E000100 		.4byte	0x1008e
 6953 2c06 17       		.uleb128 0x17
 6954 2c07 19780000 		.4byte	.LASF1027
 6955 2c0b 8F000100 		.4byte	0x1008f
 6956 2c0f 17       		.uleb128 0x17
 6957 2c10 F50D0000 		.4byte	.LASF1028
 6958 2c14 90000100 		.4byte	0x10090
 6959 2c18 17       		.uleb128 0x17
 6960 2c19 906A0000 		.4byte	.LASF1029
 6961 2c1d 91000100 		.4byte	0x10091
 6962 2c21 17       		.uleb128 0x17
ARM GAS  C:\Users\D4DE~1\AppData\Local\Temp\cccuUyWy.s 			page 158


 6963 2c22 C2370000 		.4byte	.LASF1030
 6964 2c26 92000100 		.4byte	0x10092
 6965 2c2a 17       		.uleb128 0x17
 6966 2c2b 58000000 		.4byte	.LASF1031
 6967 2c2f 93000100 		.4byte	0x10093
 6968 2c33 17       		.uleb128 0x17
 6969 2c34 56500000 		.4byte	.LASF1032
 6970 2c38 94000100 		.4byte	0x10094
 6971 2c3c 17       		.uleb128 0x17
 6972 2c3d B1050000 		.4byte	.LASF1033
 6973 2c41 95000100 		.4byte	0x10095
 6974 2c45 17       		.uleb128 0x17
 6975 2c46 100E0000 		.4byte	.LASF1034
 6976 2c4a 96000100 		.4byte	0x10096
 6977 2c4e 17       		.uleb128 0x17
 6978 2c4f B44E0000 		.4byte	.LASF1035
 6979 2c53 97000100 		.4byte	0x10097
 6980 2c57 17       		.uleb128 0x17
 6981 2c58 D20A0000 		.4byte	.LASF1036
 6982 2c5c 98000100 		.4byte	0x10098
 6983 2c60 17       		.uleb128 0x17
 6984 2c61 19580000 		.4byte	.LASF1037
 6985 2c65 99000100 		.4byte	0x10099
 6986 2c69 17       		.uleb128 0x17
 6987 2c6a B9220000 		.4byte	.LASF1038
 6988 2c6e 9A000100 		.4byte	0x1009a
 6989 2c72 17       		.uleb128 0x17
 6990 2c73 AB2C0000 		.4byte	.LASF1039
 6991 2c77 9B000100 		.4byte	0x1009b
 6992 2c7b 17       		.uleb128 0x17
 6993 2c7c 6F270000 		.4byte	.LASF1040
 6994 2c80 9C000100 		.4byte	0x1009c
 6995 2c84 17       		.uleb128 0x17
 6996 2c85 EF6B0000 		.4byte	.LASF1041
 6997 2c89 9D000100 		.4byte	0x1009d
 6998 2c8d 17       		.uleb128 0x17
 6999 2c8e 594E0000 		.4byte	.LASF1042
 7000 2c92 9E000100 		.4byte	0x1009e
 7001 2c96 17       		.uleb128 0x17
 7002 2c97 D5050000 		.4byte	.LASF1043
 7003 2c9b 9F000100 		.4byte	0x1009f
 7004 2c9f 17       		.uleb128 0x17
 7005 2ca0 0D0B0000 		.4byte	.LASF1044
 7006 2ca4 A0000100 		.4byte	0x100a0
 7007 2ca8 17       		.uleb128 0x17
 7008 2ca9 EB200000 		.4byte	.LASF1045
 7009 2cad A1000100 		.4byte	0x100a1
 7010 2cb1 17       		.uleb128 0x17
 7011 2cb2 CE5D0000 		.4byte	.LASF1046
 7012 2cb6 A2000100 		.4byte	0x100a2
 7013 2cba 17       		.uleb128 0x17
 7014 2cbb 7C350000 		.4byte	.LASF1047
 7015 2cbf A3000100 		.4byte	0x100a3
 7016 2cc3 17       		.uleb128 0x17
 7017 2cc4 3A130000 		.4byte	.LASF1048
 7018 2cc8 A4000100 		.4byte	0x100a4
 7019 2ccc 17       		.uleb128 0x17
ARM GAS  C:\Users\D4DE~1\AppData\Local\Temp\cccuUyWy.s 			page 159


 7020 2ccd B01E0000 		.4byte	.LASF1049
 7021 2cd1 A5000100 		.4byte	0x100a5
 7022 2cd5 17       		.uleb128 0x17
 7023 2cd6 781C0000 		.4byte	.LASF1050
 7024 2cda A6000100 		.4byte	0x100a6
 7025 2cde 17       		.uleb128 0x17
 7026 2cdf E1710000 		.4byte	.LASF1051
 7027 2ce3 A7000100 		.4byte	0x100a7
 7028 2ce7 17       		.uleb128 0x17
 7029 2ce8 626D0000 		.4byte	.LASF1052
 7030 2cec A8000100 		.4byte	0x100a8
 7031 2cf0 17       		.uleb128 0x17
 7032 2cf1 7D460000 		.4byte	.LASF1053
 7033 2cf5 A9000100 		.4byte	0x100a9
 7034 2cf9 17       		.uleb128 0x17
 7035 2cfa C80C0000 		.4byte	.LASF1054
 7036 2cfe AA000100 		.4byte	0x100aa
 7037 2d02 17       		.uleb128 0x17
 7038 2d03 8E300000 		.4byte	.LASF1055
 7039 2d07 AB000100 		.4byte	0x100ab
 7040 2d0b 17       		.uleb128 0x17
 7041 2d0c B7380000 		.4byte	.LASF1056
 7042 2d10 AC000100 		.4byte	0x100ac
 7043 2d14 17       		.uleb128 0x17
 7044 2d15 2D710000 		.4byte	.LASF1057
 7045 2d19 AD000100 		.4byte	0x100ad
 7046 2d1d 17       		.uleb128 0x17
 7047 2d1e 851D0000 		.4byte	.LASF1058
 7048 2d22 AE000100 		.4byte	0x100ae
 7049 2d26 17       		.uleb128 0x17
 7050 2d27 833E0000 		.4byte	.LASF1059
 7051 2d2b AF000100 		.4byte	0x100af
 7052 2d2f 17       		.uleb128 0x17
 7053 2d30 4B4F0000 		.4byte	.LASF1060
 7054 2d34 B0000100 		.4byte	0x100b0
 7055 2d38 17       		.uleb128 0x17
 7056 2d39 1A2D0000 		.4byte	.LASF1061
 7057 2d3d B1000100 		.4byte	0x100b1
 7058 2d41 17       		.uleb128 0x17
 7059 2d42 9E4A0000 		.4byte	.LASF1062
 7060 2d46 B2000100 		.4byte	0x100b2
 7061 2d4a 17       		.uleb128 0x17
 7062 2d4b B33D0000 		.4byte	.LASF1063
 7063 2d4f B3000100 		.4byte	0x100b3
 7064 2d53 17       		.uleb128 0x17
 7065 2d54 CD510000 		.4byte	.LASF1064
 7066 2d58 B4000100 		.4byte	0x100b4
 7067 2d5c 17       		.uleb128 0x17
 7068 2d5d 717D0000 		.4byte	.LASF1065
 7069 2d61 B5000100 		.4byte	0x100b5
 7070 2d65 17       		.uleb128 0x17
 7071 2d66 8B4B0000 		.4byte	.LASF1066
 7072 2d6a B6000100 		.4byte	0x100b6
 7073 2d6e 17       		.uleb128 0x17
 7074 2d6f 21740000 		.4byte	.LASF1067
 7075 2d73 B7000100 		.4byte	0x100b7
 7076 2d77 17       		.uleb128 0x17
ARM GAS  C:\Users\D4DE~1\AppData\Local\Temp\cccuUyWy.s 			page 160


 7077 2d78 615A0000 		.4byte	.LASF1068
 7078 2d7c B8000100 		.4byte	0x100b8
 7079 2d80 17       		.uleb128 0x17
 7080 2d81 6D1E0000 		.4byte	.LASF1069
 7081 2d85 B9000100 		.4byte	0x100b9
 7082 2d89 17       		.uleb128 0x17
 7083 2d8a 0A340000 		.4byte	.LASF1070
 7084 2d8e BA000100 		.4byte	0x100ba
 7085 2d92 17       		.uleb128 0x17
 7086 2d93 34070000 		.4byte	.LASF1071
 7087 2d97 BB000100 		.4byte	0x100bb
 7088 2d9b 17       		.uleb128 0x17
 7089 2d9c 5E0A0000 		.4byte	.LASF1072
 7090 2da0 BC000100 		.4byte	0x100bc
 7091 2da4 17       		.uleb128 0x17
 7092 2da5 016B0000 		.4byte	.LASF1073
 7093 2da9 BD000100 		.4byte	0x100bd
 7094 2dad 17       		.uleb128 0x17
 7095 2dae 914D0000 		.4byte	.LASF1074
 7096 2db2 BE000100 		.4byte	0x100be
 7097 2db6 17       		.uleb128 0x17
 7098 2db7 DF370000 		.4byte	.LASF1075
 7099 2dbb BF000100 		.4byte	0x100bf
 7100 2dbf 17       		.uleb128 0x17
 7101 2dc0 995A0000 		.4byte	.LASF1076
 7102 2dc4 C0000100 		.4byte	0x100c0
 7103 2dc8 17       		.uleb128 0x17
 7104 2dc9 FE720000 		.4byte	.LASF1077
 7105 2dcd C1000100 		.4byte	0x100c1
 7106 2dd1 17       		.uleb128 0x17
 7107 2dd2 DB610000 		.4byte	.LASF1078
 7108 2dd6 C2000100 		.4byte	0x100c2
 7109 2dda 17       		.uleb128 0x17
 7110 2ddb BA110000 		.4byte	.LASF1079
 7111 2ddf C3000100 		.4byte	0x100c3
 7112 2de3 17       		.uleb128 0x17
 7113 2de4 6E400000 		.4byte	.LASF1080
 7114 2de8 C4000100 		.4byte	0x100c4
 7115 2dec 17       		.uleb128 0x17
 7116 2ded 7C510000 		.4byte	.LASF1081
 7117 2df1 C5000100 		.4byte	0x100c5
 7118 2df5 17       		.uleb128 0x17
 7119 2df6 F12E0000 		.4byte	.LASF1082
 7120 2dfa C6000100 		.4byte	0x100c6
 7121 2dfe 17       		.uleb128 0x17
 7122 2dff 60730000 		.4byte	.LASF1083
 7123 2e03 C7000100 		.4byte	0x100c7
 7124 2e07 17       		.uleb128 0x17
 7125 2e08 D2770000 		.4byte	.LASF1084
 7126 2e0c C8000100 		.4byte	0x100c8
 7127 2e10 17       		.uleb128 0x17
 7128 2e11 61340000 		.4byte	.LASF1085
 7129 2e15 C9000100 		.4byte	0x100c9
 7130 2e19 17       		.uleb128 0x17
 7131 2e1a B95C0000 		.4byte	.LASF1086
 7132 2e1e CA000100 		.4byte	0x100ca
 7133 2e22 17       		.uleb128 0x17
ARM GAS  C:\Users\D4DE~1\AppData\Local\Temp\cccuUyWy.s 			page 161


 7134 2e23 D25A0000 		.4byte	.LASF1087
 7135 2e27 CB000100 		.4byte	0x100cb
 7136 2e2b 17       		.uleb128 0x17
 7137 2e2c 82160000 		.4byte	.LASF1088
 7138 2e30 CC000100 		.4byte	0x100cc
 7139 2e34 17       		.uleb128 0x17
 7140 2e35 65190000 		.4byte	.LASF1089
 7141 2e39 CD000100 		.4byte	0x100cd
 7142 2e3d 17       		.uleb128 0x17
 7143 2e3e 16130000 		.4byte	.LASF1090
 7144 2e42 CE000100 		.4byte	0x100ce
 7145 2e46 17       		.uleb128 0x17
 7146 2e47 9A400000 		.4byte	.LASF1091
 7147 2e4b CF000100 		.4byte	0x100cf
 7148 2e4f 17       		.uleb128 0x17
 7149 2e50 0F700000 		.4byte	.LASF1092
 7150 2e54 D0000100 		.4byte	0x100d0
 7151 2e58 17       		.uleb128 0x17
 7152 2e59 23280000 		.4byte	.LASF1093
 7153 2e5d D1000100 		.4byte	0x100d1
 7154 2e61 17       		.uleb128 0x17
 7155 2e62 3A580000 		.4byte	.LASF1094
 7156 2e66 D2000100 		.4byte	0x100d2
 7157 2e6a 17       		.uleb128 0x17
 7158 2e6b 396A0000 		.4byte	.LASF1095
 7159 2e6f D3000100 		.4byte	0x100d3
 7160 2e73 17       		.uleb128 0x17
 7161 2e74 27220000 		.4byte	.LASF1096
 7162 2e78 D4000100 		.4byte	0x100d4
 7163 2e7c 17       		.uleb128 0x17
 7164 2e7d C2240000 		.4byte	.LASF1097
 7165 2e81 D5000100 		.4byte	0x100d5
 7166 2e85 17       		.uleb128 0x17
 7167 2e86 B6580000 		.4byte	.LASF1098
 7168 2e8a D6000100 		.4byte	0x100d6
 7169 2e8e 17       		.uleb128 0x17
 7170 2e8f 9E330000 		.4byte	.LASF1099
 7171 2e93 D7000100 		.4byte	0x100d7
 7172 2e97 17       		.uleb128 0x17
 7173 2e98 A87D0000 		.4byte	.LASF1100
 7174 2e9c D8000100 		.4byte	0x100d8
 7175 2ea0 17       		.uleb128 0x17
 7176 2ea1 390D0000 		.4byte	.LASF1101
 7177 2ea5 D9000100 		.4byte	0x100d9
 7178 2ea9 17       		.uleb128 0x17
 7179 2eaa FB0F0000 		.4byte	.LASF1102
 7180 2eae DA000100 		.4byte	0x100da
 7181 2eb2 17       		.uleb128 0x17
 7182 2eb3 FC180000 		.4byte	.LASF1103
 7183 2eb7 DB000100 		.4byte	0x100db
 7184 2ebb 17       		.uleb128 0x17
 7185 2ebc 545B0000 		.4byte	.LASF1104
 7186 2ec0 DC000100 		.4byte	0x100dc
 7187 2ec4 17       		.uleb128 0x17
 7188 2ec5 23380000 		.4byte	.LASF1105
 7189 2ec9 DD000100 		.4byte	0x100dd
 7190 2ecd 17       		.uleb128 0x17
ARM GAS  C:\Users\D4DE~1\AppData\Local\Temp\cccuUyWy.s 			page 162


 7191 2ece B20D0000 		.4byte	.LASF1106
 7192 2ed2 DE000100 		.4byte	0x100de
 7193 2ed6 17       		.uleb128 0x17
 7194 2ed7 67660000 		.4byte	.LASF1107
 7195 2edb DF000100 		.4byte	0x100df
 7196 2edf 17       		.uleb128 0x17
 7197 2ee0 EF010000 		.4byte	.LASF1108
 7198 2ee4 E0000100 		.4byte	0x100e0
 7199 2ee8 17       		.uleb128 0x17
 7200 2ee9 F73B0000 		.4byte	.LASF1109
 7201 2eed E1000100 		.4byte	0x100e1
 7202 2ef1 17       		.uleb128 0x17
 7203 2ef2 E5330000 		.4byte	.LASF1110
 7204 2ef6 E2000100 		.4byte	0x100e2
 7205 2efa 17       		.uleb128 0x17
 7206 2efb 5C180000 		.4byte	.LASF1111
 7207 2eff E3000100 		.4byte	0x100e3
 7208 2f03 17       		.uleb128 0x17
 7209 2f04 97600000 		.4byte	.LASF1112
 7210 2f08 E4000100 		.4byte	0x100e4
 7211 2f0c 17       		.uleb128 0x17
 7212 2f0d 505F0000 		.4byte	.LASF1113
 7213 2f11 E5000100 		.4byte	0x100e5
 7214 2f15 17       		.uleb128 0x17
 7215 2f16 034D0000 		.4byte	.LASF1114
 7216 2f1a E6000100 		.4byte	0x100e6
 7217 2f1e 17       		.uleb128 0x17
 7218 2f1f C4260000 		.4byte	.LASF1115
 7219 2f23 E7000100 		.4byte	0x100e7
 7220 2f27 17       		.uleb128 0x17
 7221 2f28 812F0000 		.4byte	.LASF1116
 7222 2f2c E8000100 		.4byte	0x100e8
 7223 2f30 17       		.uleb128 0x17
 7224 2f31 DD110000 		.4byte	.LASF1117
 7225 2f35 E9000100 		.4byte	0x100e9
 7226 2f39 17       		.uleb128 0x17
 7227 2f3a 6A760000 		.4byte	.LASF1118
 7228 2f3e EA000100 		.4byte	0x100ea
 7229 2f42 17       		.uleb128 0x17
 7230 2f43 41590000 		.4byte	.LASF1119
 7231 2f47 EB000100 		.4byte	0x100eb
 7232 2f4b 17       		.uleb128 0x17
 7233 2f4c 026F0000 		.4byte	.LASF1120
 7234 2f50 EC000100 		.4byte	0x100ec
 7235 2f54 17       		.uleb128 0x17
 7236 2f55 705B0000 		.4byte	.LASF1121
 7237 2f59 ED000100 		.4byte	0x100ed
 7238 2f5d 17       		.uleb128 0x17
 7239 2f5e B87F0000 		.4byte	.LASF1122
 7240 2f62 EE000100 		.4byte	0x100ee
 7241 2f66 17       		.uleb128 0x17
 7242 2f67 A6160000 		.4byte	.LASF1123
 7243 2f6b EF000100 		.4byte	0x100ef
 7244 2f6f 17       		.uleb128 0x17
 7245 2f70 F7630000 		.4byte	.LASF1124
 7246 2f74 F0000100 		.4byte	0x100f0
 7247 2f78 17       		.uleb128 0x17
ARM GAS  C:\Users\D4DE~1\AppData\Local\Temp\cccuUyWy.s 			page 163


 7248 2f79 4B4A0000 		.4byte	.LASF1125
 7249 2f7d F1000100 		.4byte	0x100f1
 7250 2f81 17       		.uleb128 0x17
 7251 2f82 2F440000 		.4byte	.LASF1126
 7252 2f86 F2000100 		.4byte	0x100f2
 7253 2f8a 17       		.uleb128 0x17
 7254 2f8b E56A0000 		.4byte	.LASF1127
 7255 2f8f F3000100 		.4byte	0x100f3
 7256 2f93 17       		.uleb128 0x17
 7257 2f94 D83D0000 		.4byte	.LASF1128
 7258 2f98 F4000100 		.4byte	0x100f4
 7259 2f9c 17       		.uleb128 0x17
 7260 2f9d 72770000 		.4byte	.LASF1129
 7261 2fa1 F5000100 		.4byte	0x100f5
 7262 2fa5 17       		.uleb128 0x17
 7263 2fa6 6F6E0000 		.4byte	.LASF1130
 7264 2faa F6000100 		.4byte	0x100f6
 7265 2fae 17       		.uleb128 0x17
 7266 2faf AA090000 		.4byte	.LASF1131
 7267 2fb3 F7000100 		.4byte	0x100f7
 7268 2fb7 17       		.uleb128 0x17
 7269 2fb8 146A0000 		.4byte	.LASF1132
 7270 2fbc F8000100 		.4byte	0x100f8
 7271 2fc0 17       		.uleb128 0x17
 7272 2fc1 18240000 		.4byte	.LASF1133
 7273 2fc5 F9000100 		.4byte	0x100f9
 7274 2fc9 17       		.uleb128 0x17
 7275 2fca C5720000 		.4byte	.LASF1134
 7276 2fce FA000100 		.4byte	0x100fa
 7277 2fd2 17       		.uleb128 0x17
 7278 2fd3 7F340000 		.4byte	.LASF1135
 7279 2fd7 FB000100 		.4byte	0x100fb
 7280 2fdb 17       		.uleb128 0x17
 7281 2fdc C53F0000 		.4byte	.LASF1136
 7282 2fe0 FC000100 		.4byte	0x100fc
 7283 2fe4 17       		.uleb128 0x17
 7284 2fe5 2E6C0000 		.4byte	.LASF1137
 7285 2fe9 FD000100 		.4byte	0x100fd
 7286 2fed 17       		.uleb128 0x17
 7287 2fee A5670000 		.4byte	.LASF1138
 7288 2ff2 FE000100 		.4byte	0x100fe
 7289 2ff6 17       		.uleb128 0x17
 7290 2ff7 257D0000 		.4byte	.LASF1139
 7291 2ffb FF000100 		.4byte	0x100ff
 7292 2fff 17       		.uleb128 0x17
 7293 3000 40190000 		.4byte	.LASF1140
 7294 3004 00010100 		.4byte	0x10100
 7295 3008 17       		.uleb128 0x17
 7296 3009 C44F0000 		.4byte	.LASF1141
 7297 300d 01010100 		.4byte	0x10101
 7298 3011 17       		.uleb128 0x17
 7299 3012 006D0000 		.4byte	.LASF1142
 7300 3016 02010100 		.4byte	0x10102
 7301 301a 17       		.uleb128 0x17
 7302 301b 28690000 		.4byte	.LASF1143
 7303 301f 03010100 		.4byte	0x10103
 7304 3023 17       		.uleb128 0x17
ARM GAS  C:\Users\D4DE~1\AppData\Local\Temp\cccuUyWy.s 			page 164


 7305 3024 8F320000 		.4byte	.LASF1144
 7306 3028 04010100 		.4byte	0x10104
 7307 302c 17       		.uleb128 0x17
 7308 302d B06C0000 		.4byte	.LASF1145
 7309 3031 05010100 		.4byte	0x10105
 7310 3035 17       		.uleb128 0x17
 7311 3036 5E800000 		.4byte	.LASF1146
 7312 303a 06010100 		.4byte	0x10106
 7313 303e 17       		.uleb128 0x17
 7314 303f A77B0000 		.4byte	.LASF1147
 7315 3043 07010100 		.4byte	0x10107
 7316 3047 17       		.uleb128 0x17
 7317 3048 EC3C0000 		.4byte	.LASF1148
 7318 304c 08010100 		.4byte	0x10108
 7319 3050 17       		.uleb128 0x17
 7320 3051 3E270000 		.4byte	.LASF1149
 7321 3055 09010100 		.4byte	0x10109
 7322 3059 17       		.uleb128 0x17
 7323 305a FE370000 		.4byte	.LASF1150
 7324 305e 0A010100 		.4byte	0x1010a
 7325 3062 17       		.uleb128 0x17
 7326 3063 68060000 		.4byte	.LASF1151
 7327 3067 0B010100 		.4byte	0x1010b
 7328 306b 17       		.uleb128 0x17
 7329 306c B50E0000 		.4byte	.LASF1152
 7330 3070 0C010100 		.4byte	0x1010c
 7331 3074 17       		.uleb128 0x17
 7332 3075 4A370000 		.4byte	.LASF1153
 7333 3079 0D010100 		.4byte	0x1010d
 7334 307d 17       		.uleb128 0x17
 7335 307e BF400000 		.4byte	.LASF1154
 7336 3082 0E010100 		.4byte	0x1010e
 7337 3086 17       		.uleb128 0x17
 7338 3087 311B0000 		.4byte	.LASF1155
 7339 308b 0F010100 		.4byte	0x1010f
 7340 308f 17       		.uleb128 0x17
 7341 3090 B50B0000 		.4byte	.LASF1156
 7342 3094 10010100 		.4byte	0x10110
 7343 3098 17       		.uleb128 0x17
 7344 3099 7A490000 		.4byte	.LASF1157
 7345 309d 11010100 		.4byte	0x10111
 7346 30a1 17       		.uleb128 0x17
 7347 30a2 04690000 		.4byte	.LASF1158
 7348 30a6 12010100 		.4byte	0x10112
 7349 30aa 17       		.uleb128 0x17
 7350 30ab 9D490000 		.4byte	.LASF1159
 7351 30af 13010100 		.4byte	0x10113
 7352 30b3 17       		.uleb128 0x17
 7353 30b4 64170000 		.4byte	.LASF1160
 7354 30b8 14010100 		.4byte	0x10114
 7355 30bc 17       		.uleb128 0x17
 7356 30bd AF4B0000 		.4byte	.LASF1161
 7357 30c1 15010100 		.4byte	0x10115
 7358 30c5 17       		.uleb128 0x17
 7359 30c6 FC1D0000 		.4byte	.LASF1162
 7360 30ca 16010100 		.4byte	0x10116
 7361 30ce 17       		.uleb128 0x17
ARM GAS  C:\Users\D4DE~1\AppData\Local\Temp\cccuUyWy.s 			page 165


 7362 30cf A93B0000 		.4byte	.LASF1163
 7363 30d3 17010100 		.4byte	0x10117
 7364 30d7 17       		.uleb128 0x17
 7365 30d8 0D2C0000 		.4byte	.LASF1164
 7366 30dc 18010100 		.4byte	0x10118
 7367 30e0 17       		.uleb128 0x17
 7368 30e1 8D060000 		.4byte	.LASF1165
 7369 30e5 19010100 		.4byte	0x10119
 7370 30e9 17       		.uleb128 0x17
 7371 30ea 55580000 		.4byte	.LASF1166
 7372 30ee 1A010100 		.4byte	0x1011a
 7373 30f2 17       		.uleb128 0x17
 7374 30f3 60280000 		.4byte	.LASF1167
 7375 30f7 1B010100 		.4byte	0x1011b
 7376 30fb 17       		.uleb128 0x17
 7377 30fc AF510000 		.4byte	.LASF1168
 7378 3100 1C010100 		.4byte	0x1011c
 7379 3104 17       		.uleb128 0x17
 7380 3105 2C010000 		.4byte	.LASF1169
 7381 3109 1D010100 		.4byte	0x1011d
 7382 310d 17       		.uleb128 0x17
 7383 310e B64D0000 		.4byte	.LASF1170
 7384 3112 1E010100 		.4byte	0x1011e
 7385 3116 17       		.uleb128 0x17
 7386 3117 FC090000 		.4byte	.LASF1171
 7387 311b 1F010100 		.4byte	0x1011f
 7388 311f 17       		.uleb128 0x17
 7389 3120 A32A0000 		.4byte	.LASF1172
 7390 3124 20010100 		.4byte	0x10120
 7391 3128 17       		.uleb128 0x17
 7392 3129 3E2D0000 		.4byte	.LASF1173
 7393 312d 21010100 		.4byte	0x10121
 7394 3131 17       		.uleb128 0x17
 7395 3132 1B420000 		.4byte	.LASF1174
 7396 3136 22010100 		.4byte	0x10122
 7397 313a 17       		.uleb128 0x17
 7398 313b 53710000 		.4byte	.LASF1175
 7399 313f 23010100 		.4byte	0x10123
 7400 3143 17       		.uleb128 0x17
 7401 3144 A9760000 		.4byte	.LASF1176
 7402 3148 24010100 		.4byte	0x10124
 7403 314c 17       		.uleb128 0x17
 7404 314d B2210000 		.4byte	.LASF1177
 7405 3151 25010100 		.4byte	0x10125
 7406 3155 17       		.uleb128 0x17
 7407 3156 847B0000 		.4byte	.LASF1178
 7408 315a 26010100 		.4byte	0x10126
 7409 315e 17       		.uleb128 0x17
 7410 315f 40250000 		.4byte	.LASF1179
 7411 3163 27010100 		.4byte	0x10127
 7412 3167 17       		.uleb128 0x17
 7413 3168 CE760000 		.4byte	.LASF1180
 7414 316c 28010100 		.4byte	0x10128
 7415 3170 17       		.uleb128 0x17
 7416 3171 D21B0000 		.4byte	.LASF1181
 7417 3175 29010100 		.4byte	0x10129
 7418 3179 17       		.uleb128 0x17
ARM GAS  C:\Users\D4DE~1\AppData\Local\Temp\cccuUyWy.s 			page 166


 7419 317a DD250000 		.4byte	.LASF1182
 7420 317e 2A010100 		.4byte	0x1012a
 7421 3182 17       		.uleb128 0x17
 7422 3183 977E0000 		.4byte	.LASF1183
 7423 3187 2B010100 		.4byte	0x1012b
 7424 318b 17       		.uleb128 0x17
 7425 318c 282A0000 		.4byte	.LASF1184
 7426 3190 2C010100 		.4byte	0x1012c
 7427 3194 17       		.uleb128 0x17
 7428 3195 3C480000 		.4byte	.LASF1185
 7429 3199 2D010100 		.4byte	0x1012d
 7430 319d 17       		.uleb128 0x17
 7431 319e EC0C0000 		.4byte	.LASF1186
 7432 31a2 2E010100 		.4byte	0x1012e
 7433 31a6 17       		.uleb128 0x17
 7434 31a7 D2730000 		.4byte	.LASF1187
 7435 31ab 2F010100 		.4byte	0x1012f
 7436 31af 17       		.uleb128 0x17
 7437 31b0 FC580000 		.4byte	.LASF1188
 7438 31b4 30010100 		.4byte	0x10130
 7439 31b8 17       		.uleb128 0x17
 7440 31b9 96050000 		.4byte	.LASF1189
 7441 31bd 31010100 		.4byte	0x10131
 7442 31c1 17       		.uleb128 0x17
 7443 31c2 820A0000 		.4byte	.LASF1190
 7444 31c6 32010100 		.4byte	0x10132
 7445 31ca 17       		.uleb128 0x17
 7446 31cb 254A0000 		.4byte	.LASF1191
 7447 31cf 33010100 		.4byte	0x10133
 7448 31d3 00       		.byte	0
 7449 31d4 12       		.uleb128 0x12
 7450 31d5 C3390000 		.4byte	.LASF1192
 7451 31d9 16       		.byte	0x16
 7452 31da 4709     		.2byte	0x947
 7453 31dc E0310000 		.4byte	0x31e0
 7454 31e0 18       		.uleb128 0x18
 7455 31e1 04       		.byte	0x4
 7456 31e2 E6310000 		.4byte	0x31e6
 7457 31e6 22       		.uleb128 0x22
 7458 31e7 941B0000 		.4byte	0x1b94
 7459 31eb FA310000 		.4byte	0x31fa
 7460 31ef 1F       		.uleb128 0x1f
 7461 31f0 CF000000 		.4byte	0xcf
 7462 31f4 1F       		.uleb128 0x1f
 7463 31f5 A5000000 		.4byte	0xa5
 7464 31f9 00       		.byte	0
 7465 31fa 13       		.uleb128 0x13
 7466 31fb 08       		.byte	0x8
 7467 31fc 16       		.byte	0x16
 7468 31fd 4A09     		.2byte	0x94a
 7469 31ff 1E320000 		.4byte	0x321e
 7470 3203 14       		.uleb128 0x14
 7471 3204 8C550000 		.4byte	.LASF1193
 7472 3208 16       		.byte	0x16
 7473 3209 4D09     		.2byte	0x94d
 7474 320b 1E320000 		.4byte	0x321e
 7475 320f 00       		.byte	0
ARM GAS  C:\Users\D4DE~1\AppData\Local\Temp\cccuUyWy.s 			page 167


 7476 3210 14       		.uleb128 0x14
 7477 3211 6F4F0000 		.4byte	.LASF1194
 7478 3215 16       		.byte	0x16
 7479 3216 5009     		.2byte	0x950
 7480 3218 AE000000 		.4byte	0xae
 7481 321c 04       		.byte	0x4
 7482 321d 00       		.byte	0
 7483 321e 08       		.uleb128 0x8
 7484 321f D4310000 		.4byte	0x31d4
 7485 3223 2E320000 		.4byte	0x322e
 7486 3227 09       		.uleb128 0x9
 7487 3228 9E000000 		.4byte	0x9e
 7488 322c 00       		.byte	0
 7489 322d 00       		.byte	0
 7490 322e 12       		.uleb128 0x12
 7491 322f 07670000 		.4byte	.LASF1195
 7492 3233 16       		.byte	0x16
 7493 3234 5109     		.2byte	0x951
 7494 3236 FA310000 		.4byte	0x31fa
 7495 323a 23       		.uleb128 0x23
 7496 323b 7F480000 		.4byte	.LASF1210
 7497 323f 02       		.byte	0x2
 7498 3240 6C03     		.2byte	0x36c
 7499 3242 AB210000 		.4byte	0x21ab
 7500 3246 03       		.byte	0x3
 7501 3247 58320000 		.4byte	0x3258
 7502 324b 24       		.uleb128 0x24
 7503 324c B4000000 		.4byte	.LASF613
 7504 3250 02       		.byte	0x2
 7505 3251 6C03     		.2byte	0x36c
 7506 3253 C8180000 		.4byte	0x18c8
 7507 3257 00       		.byte	0
 7508 3258 25       		.uleb128 0x25
 7509 3259 84130000 		.4byte	.LASF1197
 7510 325d 02       		.byte	0x2
 7511 325e F902     		.2byte	0x2f9
 7512 3260 03       		.byte	0x3
 7513 3261 72320000 		.4byte	0x3272
 7514 3265 24       		.uleb128 0x24
 7515 3266 A85F0000 		.4byte	.LASF1196
 7516 326a 02       		.byte	0x2
 7517 326b F902     		.2byte	0x2f9
 7518 326d 63210000 		.4byte	0x2163
 7519 3271 00       		.byte	0
 7520 3272 26       		.uleb128 0x26
 7521 3273 BC1D0000 		.4byte	.LASF1266
 7522 3277 02       		.byte	0x2
 7523 3278 E702     		.2byte	0x2e7
 7524 327a 63210000 		.4byte	0x2163
 7525 327e 03       		.byte	0x3
 7526 327f 25       		.uleb128 0x25
 7527 3280 8F560000 		.4byte	.LASF1198
 7528 3284 02       		.byte	0x2
 7529 3285 7C03     		.2byte	0x37c
 7530 3287 03       		.byte	0x3
 7531 3288 A5320000 		.4byte	0x32a5
 7532 328c 24       		.uleb128 0x24
ARM GAS  C:\Users\D4DE~1\AppData\Local\Temp\cccuUyWy.s 			page 168


 7533 328d B4000000 		.4byte	.LASF613
 7534 3291 02       		.byte	0x2
 7535 3292 7C03     		.2byte	0x37c
 7536 3294 C8180000 		.4byte	0x18c8
 7537 3298 24       		.uleb128 0x24
 7538 3299 A85F0000 		.4byte	.LASF1196
 7539 329d 02       		.byte	0x2
 7540 329e 7D03     		.2byte	0x37d
 7541 32a0 AB210000 		.4byte	0x21ab
 7542 32a4 00       		.byte	0
 7543 32a5 27       		.uleb128 0x27
 7544 32a6 AA390000 		.4byte	.LASF1267
 7545 32aa 01       		.byte	0x1
 7546 32ab A7       		.byte	0xa7
 7547 32ac 00000000 		.4byte	.LFB170
 7548 32b0 44000000 		.4byte	.LFE170-.LFB170
 7549 32b4 01       		.uleb128 0x1
 7550 32b5 9C       		.byte	0x9c
 7551 32b6 22330000 		.4byte	0x3322
 7552 32ba 28       		.uleb128 0x28
 7553 32bb 712B0000 		.4byte	.LASF1199
 7554 32bf 01       		.byte	0x1
 7555 32c0 A7       		.byte	0xa7
 7556 32c1 22330000 		.4byte	0x3322
 7557 32c5 00000000 		.4byte	.LLST0
 7558 32c9 28       		.uleb128 0x28
 7559 32ca BC320000 		.4byte	.LASF1200
 7560 32ce 01       		.byte	0x1
 7561 32cf A8       		.byte	0xa8
 7562 32d0 941B0000 		.4byte	0x1b94
 7563 32d4 2C000000 		.4byte	.LLST1
 7564 32d8 29       		.uleb128 0x29
 7565 32d9 9F3C0000 		.4byte	.LASF1202
 7566 32dd 01       		.byte	0x1
 7567 32de AA       		.byte	0xaa
 7568 32df DA1C0000 		.4byte	0x1cda
 7569 32e3 02       		.uleb128 0x2
 7570 32e4 91       		.byte	0x91
 7571 32e5 68       		.sleb128 -24
 7572 32e6 2A       		.uleb128 0x2a
 7573 32e7 12000000 		.4byte	.LVL3
 7574 32eb B63F0000 		.4byte	0x3fb6
 7575 32ef 04330000 		.4byte	0x3304
 7576 32f3 2B       		.uleb128 0x2b
 7577 32f4 01       		.uleb128 0x1
 7578 32f5 50       		.byte	0x50
 7579 32f6 02       		.uleb128 0x2
 7580 32f7 7D       		.byte	0x7d
 7581 32f8 00       		.sleb128 0
 7582 32f9 2B       		.uleb128 0x2b
 7583 32fa 01       		.uleb128 0x1
 7584 32fb 51       		.byte	0x51
 7585 32fc 01       		.uleb128 0x1
 7586 32fd 30       		.byte	0x30
 7587 32fe 2B       		.uleb128 0x2b
 7588 32ff 01       		.uleb128 0x1
 7589 3300 52       		.byte	0x52
ARM GAS  C:\Users\D4DE~1\AppData\Local\Temp\cccuUyWy.s 			page 169


 7590 3301 01       		.uleb128 0x1
 7591 3302 36       		.byte	0x36
 7592 3303 00       		.byte	0
 7593 3304 2A       		.uleb128 0x2a
 7594 3305 34000000 		.4byte	.LVL4
 7595 3309 BF3F0000 		.4byte	0x3fbf
 7596 330d 18330000 		.4byte	0x3318
 7597 3311 2B       		.uleb128 0x2b
 7598 3312 01       		.uleb128 0x1
 7599 3313 50       		.byte	0x50
 7600 3314 02       		.uleb128 0x2
 7601 3315 7D       		.byte	0x7d
 7602 3316 00       		.sleb128 0
 7603 3317 00       		.byte	0
 7604 3318 2C       		.uleb128 0x2c
 7605 3319 3C000000 		.4byte	.LVL5
 7606 331d CB3F0000 		.4byte	0x3fcb
 7607 3321 00       		.byte	0
 7608 3322 18       		.uleb128 0x18
 7609 3323 04       		.byte	0x4
 7610 3324 28330000 		.4byte	0x3328
 7611 3328 07       		.uleb128 0x7
 7612 3329 28230000 		.4byte	0x2328
 7613 332d 2D       		.uleb128 0x2d
 7614 332e 4C610000 		.4byte	.LASF1205
 7615 3332 01       		.byte	0x1
 7616 3333 55       		.byte	0x55
 7617 3334 DC160000 		.4byte	0x16dc
 7618 3338 00000000 		.4byte	.LFB168
 7619 333c 60000000 		.4byte	.LFE168-.LFB168
 7620 3340 01       		.uleb128 0x1
 7621 3341 9C       		.byte	0x9c
 7622 3342 89330000 		.4byte	0x3389
 7623 3346 28       		.uleb128 0x28
 7624 3347 D6360000 		.4byte	.LASF1201
 7625 334b 01       		.byte	0x1
 7626 334c 55       		.byte	0x55
 7627 334d D4310000 		.4byte	0x31d4
 7628 3351 4D000000 		.4byte	.LLST2
 7629 3355 2E       		.uleb128 0x2e
 7630 3356 587D0000 		.4byte	.LASF1203
 7631 335a 01       		.byte	0x1
 7632 335b 57       		.byte	0x57
 7633 335c DC160000 		.4byte	0x16dc
 7634 3360 6E000000 		.4byte	.LLST3
 7635 3364 2E       		.uleb128 0x2e
 7636 3365 36050000 		.4byte	.LASF1204
 7637 3369 01       		.byte	0x1
 7638 336a 58       		.byte	0x58
 7639 336b AE000000 		.4byte	0xae
 7640 336f 8D000000 		.4byte	.LLST4
 7641 3373 2F       		.uleb128 0x2f
 7642 3374 00000000 		.4byte	.Ldebug_ranges0+0
 7643 3378 30       		.uleb128 0x30
 7644 3379 69647800 		.ascii	"idx\000"
 7645 337d 01       		.byte	0x1
 7646 337e 61       		.byte	0x61
ARM GAS  C:\Users\D4DE~1\AppData\Local\Temp\cccuUyWy.s 			page 170


 7647 337f CF000000 		.4byte	0xcf
 7648 3383 CE000000 		.4byte	.LLST5
 7649 3387 00       		.byte	0
 7650 3388 00       		.byte	0
 7651 3389 2D       		.uleb128 0x2d
 7652 338a 6F380000 		.4byte	.LASF1206
 7653 338e 01       		.byte	0x1
 7654 338f 88       		.byte	0x88
 7655 3390 941B0000 		.4byte	0x1b94
 7656 3394 00000000 		.4byte	.LFB169
 7657 3398 34000000 		.4byte	.LFE169-.LFB169
 7658 339c 01       		.uleb128 0x1
 7659 339d 9C       		.byte	0x9c
 7660 339e F1330000 		.4byte	0x33f1
 7661 33a2 28       		.uleb128 0x28
 7662 33a3 48660000 		.4byte	.LASF1207
 7663 33a7 01       		.byte	0x1
 7664 33a8 88       		.byte	0x88
 7665 33a9 CF000000 		.4byte	0xcf
 7666 33ad EC000000 		.4byte	.LLST6
 7667 33b1 28       		.uleb128 0x28
 7668 33b2 712B0000 		.4byte	.LASF1199
 7669 33b6 01       		.byte	0x1
 7670 33b7 89       		.byte	0x89
 7671 33b8 A5000000 		.4byte	0xa5
 7672 33bc 18010000 		.4byte	.LLST7
 7673 33c0 30       		.uleb128 0x30
 7674 33c1 69647800 		.ascii	"idx\000"
 7675 33c5 01       		.byte	0x1
 7676 33c6 8B       		.byte	0x8b
 7677 33c7 CF000000 		.4byte	0xcf
 7678 33cb 44010000 		.4byte	.LLST8
 7679 33cf 2E       		.uleb128 0x2e
 7680 33d0 BC320000 		.4byte	.LASF1200
 7681 33d4 01       		.byte	0x1
 7682 33d5 8C       		.byte	0x8c
 7683 33d6 941B0000 		.4byte	0x1b94
 7684 33da 63010000 		.4byte	.LLST9
 7685 33de 31       		.uleb128 0x31
 7686 33df 18000000 		.4byte	.LVL25
 7687 33e3 2B       		.uleb128 0x2b
 7688 33e4 01       		.uleb128 0x1
 7689 33e5 50       		.byte	0x50
 7690 33e6 02       		.uleb128 0x2
 7691 33e7 76       		.byte	0x76
 7692 33e8 00       		.sleb128 0
 7693 33e9 2B       		.uleb128 0x2b
 7694 33ea 01       		.uleb128 0x1
 7695 33eb 51       		.byte	0x51
 7696 33ec 02       		.uleb128 0x2
 7697 33ed 75       		.byte	0x75
 7698 33ee 00       		.sleb128 0
 7699 33ef 00       		.byte	0
 7700 33f0 00       		.byte	0
 7701 33f1 32       		.uleb128 0x32
 7702 33f2 89370000 		.4byte	.LASF1208
 7703 33f6 01       		.byte	0x1
ARM GAS  C:\Users\D4DE~1\AppData\Local\Temp\cccuUyWy.s 			page 171


 7704 33f7 1401     		.2byte	0x114
 7705 33f9 AE000000 		.4byte	0xae
 7706 33fd 00000000 		.4byte	.LFB172
 7707 3401 22000000 		.4byte	.LFE172-.LFB172
 7708 3405 01       		.uleb128 0x1
 7709 3406 9C       		.byte	0x9c
 7710 3407 3A340000 		.4byte	0x343a
 7711 340b 33       		.uleb128 0x33
 7712 340c 6A2A0000 		.4byte	.LASF880
 7713 3410 01       		.byte	0x1
 7714 3411 1401     		.2byte	0x114
 7715 3413 3A340000 		.4byte	0x343a
 7716 3417 8D010000 		.4byte	.LLST10
 7717 341b 34       		.uleb128 0x34
 7718 341c 03490000 		.4byte	.LASF1209
 7719 3420 01       		.byte	0x1
 7720 3421 1601     		.2byte	0x116
 7721 3423 AE000000 		.4byte	0xae
 7722 3427 E0010000 		.4byte	.LLST11
 7723 342b 35       		.uleb128 0x35
 7724 342c 6900     		.ascii	"i\000"
 7725 342e 01       		.byte	0x1
 7726 342f 1701     		.2byte	0x117
 7727 3431 CF000000 		.4byte	0xcf
 7728 3435 FF010000 		.4byte	.LLST12
 7729 3439 00       		.byte	0
 7730 343a 18       		.uleb128 0x18
 7731 343b 04       		.byte	0x4
 7732 343c 40340000 		.4byte	0x3440
 7733 3440 07       		.uleb128 0x7
 7734 3441 171E0000 		.4byte	0x1e17
 7735 3445 23       		.uleb128 0x23
 7736 3446 9B0C0000 		.4byte	.LASF1211
 7737 344a 02       		.byte	0x2
 7738 344b B503     		.2byte	0x3b5
 7739 344d C8180000 		.4byte	0x18c8
 7740 3451 03       		.byte	0x3
 7741 3452 79340000 		.4byte	0x3479
 7742 3456 24       		.uleb128 0x24
 7743 3457 84360000 		.4byte	.LASF602
 7744 345b 02       		.byte	0x2
 7745 345c B503     		.2byte	0x3b5
 7746 345e AE000000 		.4byte	0xae
 7747 3462 36       		.uleb128 0x36
 7748 3463 6900     		.ascii	"i\000"
 7749 3465 02       		.byte	0x2
 7750 3466 B703     		.2byte	0x3b7
 7751 3468 CF000000 		.4byte	0xcf
 7752 346c 37       		.uleb128 0x37
 7753 346d 49530000 		.4byte	.LASF1212
 7754 3471 02       		.byte	0x2
 7755 3472 B803     		.2byte	0x3b8
 7756 3474 C8180000 		.4byte	0x18c8
 7757 3478 00       		.byte	0
 7758 3479 38       		.uleb128 0x38
 7759 347a 66020000 		.4byte	.LASF1268
 7760 347e 01       		.byte	0x1
ARM GAS  C:\Users\D4DE~1\AppData\Local\Temp\cccuUyWy.s 			page 172


 7761 347f 3601     		.2byte	0x136
 7762 3481 00000000 		.4byte	.LFB173
 7763 3485 AC070000 		.4byte	.LFE173-.LFB173
 7764 3489 01       		.uleb128 0x1
 7765 348a 9C       		.byte	0x9c
 7766 348b 103E0000 		.4byte	0x3e10
 7767 348f 33       		.uleb128 0x33
 7768 3490 58160000 		.4byte	.LASF1213
 7769 3494 01       		.byte	0x1
 7770 3495 3601     		.2byte	0x136
 7771 3497 B7150000 		.4byte	0x15b7
 7772 349b 1D020000 		.4byte	.LLST13
 7773 349f 33       		.uleb128 0x33
 7774 34a0 FC380000 		.4byte	.LASF1214
 7775 34a4 01       		.byte	0x1
 7776 34a5 3701     		.2byte	0x137
 7777 34a7 A5000000 		.4byte	0xa5
 7778 34ab 32040000 		.4byte	.LLST14
 7779 34af 39       		.uleb128 0x39
 7780 34b0 F6000000 		.4byte	.LBB90
 7781 34b4 10000000 		.4byte	.LBE90-.LBB90
 7782 34b8 DD340000 		.4byte	0x34dd
 7783 34bc 34       		.uleb128 0x34
 7784 34bd FE030000 		.4byte	.LASF1215
 7785 34c1 01       		.byte	0x1
 7786 34c2 4401     		.2byte	0x144
 7787 34c4 103E0000 		.4byte	0x3e10
 7788 34c8 5E040000 		.4byte	.LLST15
 7789 34cc 3A       		.uleb128 0x3a
 7790 34cd FC000000 		.4byte	.LVL43
 7791 34d1 D73F0000 		.4byte	0x3fd7
 7792 34d5 2B       		.uleb128 0x2b
 7793 34d6 01       		.uleb128 0x1
 7794 34d7 50       		.byte	0x50
 7795 34d8 02       		.uleb128 0x2
 7796 34d9 75       		.byte	0x75
 7797 34da 00       		.sleb128 0
 7798 34db 00       		.byte	0
 7799 34dc 00       		.byte	0
 7800 34dd 39       		.uleb128 0x39
 7801 34de 3C010000 		.4byte	.LBB91
 7802 34e2 46000000 		.4byte	.LBE91-.LBB91
 7803 34e6 FB340000 		.4byte	0x34fb
 7804 34ea 34       		.uleb128 0x34
 7805 34eb 40670000 		.4byte	.LASF1216
 7806 34ef 01       		.byte	0x1
 7807 34f0 5E01     		.2byte	0x15e
 7808 34f2 CF000000 		.4byte	0xcf
 7809 34f6 71040000 		.4byte	.LLST16
 7810 34fa 00       		.byte	0
 7811 34fb 39       		.uleb128 0x39
 7812 34fc AC010000 		.4byte	.LBB92
 7813 3500 10000000 		.4byte	.LBE92-.LBB92
 7814 3504 4A350000 		.4byte	0x354a
 7815 3508 3B       		.uleb128 0x3b
 7816 3509 86210000 		.4byte	.LASF1217
 7817 350d 01       		.byte	0x1
ARM GAS  C:\Users\D4DE~1\AppData\Local\Temp\cccuUyWy.s 			page 173


 7818 350e 7801     		.2byte	0x178
 7819 3510 04120000 		.4byte	0x1204
 7820 3514 02       		.uleb128 0x2
 7821 3515 91       		.byte	0x91
 7822 3516 4C       		.sleb128 -52
 7823 3517 2A       		.uleb128 0x2a
 7824 3518 B6010000 		.4byte	.LVL56
 7825 351c E33F0000 		.4byte	0x3fe3
 7826 3520 39350000 		.4byte	0x3539
 7827 3524 2B       		.uleb128 0x2b
 7828 3525 01       		.uleb128 0x1
 7829 3526 50       		.byte	0x50
 7830 3527 02       		.uleb128 0x2
 7831 3528 91       		.byte	0x91
 7832 3529 4C       		.sleb128 -52
 7833 352a 2B       		.uleb128 0x2b
 7834 352b 01       		.uleb128 0x1
 7835 352c 51       		.byte	0x51
 7836 352d 05       		.uleb128 0x5
 7837 352e 03       		.byte	0x3
 7838 352f 00000000 		.4byte	.LANCHOR0
 7839 3533 2B       		.uleb128 0x2b
 7840 3534 01       		.uleb128 0x1
 7841 3535 52       		.byte	0x52
 7842 3536 01       		.uleb128 0x1
 7843 3537 38       		.byte	0x38
 7844 3538 00       		.byte	0
 7845 3539 3A       		.uleb128 0x3a
 7846 353a BC010000 		.4byte	.LVL57
 7847 353e EC3F0000 		.4byte	0x3fec
 7848 3542 2B       		.uleb128 0x2b
 7849 3543 01       		.uleb128 0x1
 7850 3544 50       		.byte	0x50
 7851 3545 02       		.uleb128 0x2
 7852 3546 91       		.byte	0x91
 7853 3547 4C       		.sleb128 -52
 7854 3548 00       		.byte	0
 7855 3549 00       		.byte	0
 7856 354a 3C       		.uleb128 0x3c
 7857 354b 58320000 		.4byte	0x3258
 7858 354f CA010000 		.4byte	.LBB93
 7859 3553 04000000 		.4byte	.LBE93-.LBB93
 7860 3557 01       		.byte	0x1
 7861 3558 8901     		.2byte	0x189
 7862 355a 68350000 		.4byte	0x3568
 7863 355e 3D       		.uleb128 0x3d
 7864 355f 65320000 		.4byte	0x3265
 7865 3563 84040000 		.4byte	.LLST17
 7866 3567 00       		.byte	0
 7867 3568 39       		.uleb128 0x39
 7868 3569 F0010000 		.4byte	.LBB95
 7869 356d 40000000 		.4byte	.LBE95-.LBB95
 7870 3571 C7350000 		.4byte	0x35c7
 7871 3575 3B       		.uleb128 0x3b
 7872 3576 DF010000 		.4byte	.LASF1218
 7873 357a 01       		.byte	0x1
 7874 357b A801     		.2byte	0x1a8
ARM GAS  C:\Users\D4DE~1\AppData\Local\Temp\cccuUyWy.s 			page 174


 7875 357d 28190000 		.4byte	0x1928
 7876 3581 02       		.uleb128 0x2
 7877 3582 91       		.byte	0x91
 7878 3583 4C       		.sleb128 -52
 7879 3584 2A       		.uleb128 0x2a
 7880 3585 FC010000 		.4byte	.LVL66
 7881 3589 B63F0000 		.4byte	0x3fb6
 7882 358d A2350000 		.4byte	0x35a2
 7883 3591 2B       		.uleb128 0x2b
 7884 3592 01       		.uleb128 0x1
 7885 3593 50       		.byte	0x50
 7886 3594 02       		.uleb128 0x2
 7887 3595 76       		.byte	0x76
 7888 3596 00       		.sleb128 0
 7889 3597 2B       		.uleb128 0x2b
 7890 3598 01       		.uleb128 0x1
 7891 3599 51       		.byte	0x51
 7892 359a 01       		.uleb128 0x1
 7893 359b 30       		.byte	0x30
 7894 359c 2B       		.uleb128 0x2b
 7895 359d 01       		.uleb128 0x1
 7896 359e 52       		.byte	0x52
 7897 359f 01       		.uleb128 0x1
 7898 35a0 33       		.byte	0x33
 7899 35a1 00       		.byte	0
 7900 35a2 2A       		.uleb128 0x2a
 7901 35a3 0E020000 		.4byte	.LVL67
 7902 35a7 F83F0000 		.4byte	0x3ff8
 7903 35ab B6350000 		.4byte	0x35b6
 7904 35af 2B       		.uleb128 0x2b
 7905 35b0 01       		.uleb128 0x1
 7906 35b1 50       		.byte	0x50
 7907 35b2 02       		.uleb128 0x2
 7908 35b3 76       		.byte	0x76
 7909 35b4 00       		.sleb128 0
 7910 35b5 00       		.byte	0
 7911 35b6 3A       		.uleb128 0x3a
 7912 35b7 26020000 		.4byte	.LVL68
 7913 35bb F83F0000 		.4byte	0x3ff8
 7914 35bf 2B       		.uleb128 0x2b
 7915 35c0 01       		.uleb128 0x1
 7916 35c1 50       		.byte	0x50
 7917 35c2 02       		.uleb128 0x2
 7918 35c3 76       		.byte	0x76
 7919 35c4 00       		.sleb128 0
 7920 35c5 00       		.byte	0
 7921 35c6 00       		.byte	0
 7922 35c7 3C       		.uleb128 0x3c
 7923 35c8 45340000 		.4byte	0x3445
 7924 35cc 3C020000 		.4byte	.LBB96
 7925 35d0 6E000000 		.4byte	.LBE96-.LBB96
 7926 35d4 01       		.byte	0x1
 7927 35d5 C401     		.2byte	0x1c4
 7928 35d7 72360000 		.4byte	0x3672
 7929 35db 3D       		.uleb128 0x3d
 7930 35dc 56340000 		.4byte	0x3456
 7931 35e0 98040000 		.4byte	.LLST18
ARM GAS  C:\Users\D4DE~1\AppData\Local\Temp\cccuUyWy.s 			page 175


 7932 35e4 3E       		.uleb128 0x3e
 7933 35e5 3C020000 		.4byte	.LBB97
 7934 35e9 6E000000 		.4byte	.LBE97-.LBB97
 7935 35ed 3F       		.uleb128 0x3f
 7936 35ee 62340000 		.4byte	0x3462
 7937 35f2 AB040000 		.4byte	.LLST19
 7938 35f6 40       		.uleb128 0x40
 7939 35f7 6C340000 		.4byte	0x346c
 7940 35fb 02       		.uleb128 0x2
 7941 35fc 91       		.byte	0x91
 7942 35fd 4C       		.sleb128 -52
 7943 35fe 3C       		.uleb128 0x3c
 7944 35ff 3A320000 		.4byte	0x323a
 7945 3603 5C020000 		.4byte	.LBB98
 7946 3607 0E000000 		.4byte	.LBE98-.LBB98
 7947 360b 02       		.byte	0x2
 7948 360c C003     		.2byte	0x3c0
 7949 360e 1B360000 		.4byte	0x361b
 7950 3612 41       		.uleb128 0x41
 7951 3613 4B320000 		.4byte	0x324b
 7952 3617 02       		.uleb128 0x2
 7953 3618 91       		.byte	0x91
 7954 3619 40       		.sleb128 -64
 7955 361a 00       		.byte	0
 7956 361b 2A       		.uleb128 0x2a
 7957 361c 48020000 		.4byte	.LVL74
 7958 3620 E33F0000 		.4byte	0x3fe3
 7959 3624 3D360000 		.4byte	0x363d
 7960 3628 2B       		.uleb128 0x2b
 7961 3629 01       		.uleb128 0x1
 7962 362a 50       		.byte	0x50
 7963 362b 02       		.uleb128 0x2
 7964 362c 91       		.byte	0x91
 7965 362d 4C       		.sleb128 -52
 7966 362e 2B       		.uleb128 0x2b
 7967 362f 01       		.uleb128 0x1
 7968 3630 51       		.byte	0x51
 7969 3631 05       		.uleb128 0x5
 7970 3632 03       		.byte	0x3
 7971 3633 08000000 		.4byte	.LANCHOR0+8
 7972 3637 2B       		.uleb128 0x2b
 7973 3638 01       		.uleb128 0x1
 7974 3639 52       		.byte	0x52
 7975 363a 01       		.uleb128 0x1
 7976 363b 32       		.byte	0x32
 7977 363c 00       		.byte	0
 7978 363d 2A       		.uleb128 0x2a
 7979 363e 84020000 		.4byte	.LVL78
 7980 3642 E33F0000 		.4byte	0x3fe3
 7981 3646 56360000 		.4byte	0x3656
 7982 364a 2B       		.uleb128 0x2b
 7983 364b 01       		.uleb128 0x1
 7984 364c 50       		.byte	0x50
 7985 364d 02       		.uleb128 0x2
 7986 364e 91       		.byte	0x91
 7987 364f 4C       		.sleb128 -52
 7988 3650 2B       		.uleb128 0x2b
ARM GAS  C:\Users\D4DE~1\AppData\Local\Temp\cccuUyWy.s 			page 176


 7989 3651 01       		.uleb128 0x1
 7990 3652 52       		.byte	0x52
 7991 3653 01       		.uleb128 0x1
 7992 3654 32       		.byte	0x32
 7993 3655 00       		.byte	0
 7994 3656 3A       		.uleb128 0x3a
 7995 3657 9E020000 		.4byte	.LVL82
 7996 365b 04400000 		.4byte	0x4004
 7997 365f 2B       		.uleb128 0x2b
 7998 3660 01       		.uleb128 0x1
 7999 3661 50       		.byte	0x50
 8000 3662 05       		.uleb128 0x5
 8001 3663 03       		.byte	0x3
 8002 3664 00000000 		.4byte	.LC16
 8003 3668 2B       		.uleb128 0x2b
 8004 3669 01       		.uleb128 0x1
 8005 366a 51       		.byte	0x51
 8006 366b 03       		.uleb128 0x3
 8007 366c 0A       		.byte	0xa
 8008 366d CA03     		.2byte	0x3ca
 8009 366f 00       		.byte	0
 8010 3670 00       		.byte	0
 8011 3671 00       		.byte	0
 8012 3672 39       		.uleb128 0x39
 8013 3673 B4020000 		.4byte	.LBB100
 8014 3677 28000000 		.4byte	.LBE100-.LBB100
 8015 367b AC360000 		.4byte	0x36ac
 8016 367f 34       		.uleb128 0x34
 8017 3680 DE7A0000 		.4byte	.LASF1219
 8018 3684 01       		.byte	0x1
 8019 3685 CC01     		.2byte	0x1cc
 8020 3687 163E0000 		.4byte	0x3e16
 8021 368b D5040000 		.4byte	.LLST20
 8022 368f 3E       		.uleb128 0x3e
 8023 3690 C2020000 		.4byte	.LBB101
 8024 3694 0E000000 		.4byte	.LBE101-.LBB101
 8025 3698 3B       		.uleb128 0x3b
 8026 3699 ED3A0000 		.4byte	.LASF1220
 8027 369d 01       		.byte	0x1
 8028 369e D301     		.2byte	0x1d3
 8029 36a0 241D0000 		.4byte	0x1d24
 8030 36a4 05       		.uleb128 0x5
 8031 36a5 03       		.byte	0x3
 8032 36a6 00000000 		.4byte	gPrepWriteReqMem.13613
 8033 36aa 00       		.byte	0
 8034 36ab 00       		.byte	0
 8035 36ac 39       		.uleb128 0x39
 8036 36ad DC020000 		.4byte	.LBB102
 8037 36b1 1E010000 		.4byte	.LBE102-.LBB102
 8038 36b5 70370000 		.4byte	0x3770
 8039 36b9 3B       		.uleb128 0x3b
 8040 36ba CC7B0000 		.4byte	.LASF1221
 8041 36be 01       		.byte	0x1
 8042 36bf ED01     		.2byte	0x1ed
 8043 36c1 C8180000 		.4byte	0x18c8
 8044 36c5 02       		.uleb128 0x2
 8045 36c6 91       		.byte	0x91
ARM GAS  C:\Users\D4DE~1\AppData\Local\Temp\cccuUyWy.s 			page 177


 8046 36c7 4C       		.sleb128 -52
 8047 36c8 42       		.uleb128 0x42
 8048 36c9 45340000 		.4byte	0x3445
 8049 36cd E0020000 		.4byte	.LBB103
 8050 36d1 12010000 		.4byte	.LBE103-.LBB103
 8051 36d5 01       		.byte	0x1
 8052 36d6 EE01     		.2byte	0x1ee
 8053 36d8 3D       		.uleb128 0x3d
 8054 36d9 56340000 		.4byte	0x3456
 8055 36dd E8040000 		.4byte	.LLST21
 8056 36e1 3E       		.uleb128 0x3e
 8057 36e2 E0020000 		.4byte	.LBB104
 8058 36e6 12010000 		.4byte	.LBE104-.LBB104
 8059 36ea 3F       		.uleb128 0x3f
 8060 36eb 62340000 		.4byte	0x3462
 8061 36ef FB040000 		.4byte	.LLST22
 8062 36f3 40       		.uleb128 0x40
 8063 36f4 6C340000 		.4byte	0x346c
 8064 36f8 02       		.uleb128 0x2
 8065 36f9 91       		.byte	0x91
 8066 36fa 4C       		.sleb128 -52
 8067 36fb 3C       		.uleb128 0x3c
 8068 36fc 3A320000 		.4byte	0x323a
 8069 3700 00030000 		.4byte	.LBB105
 8070 3704 0E000000 		.4byte	.LBE105-.LBB105
 8071 3708 02       		.byte	0x2
 8072 3709 C003     		.2byte	0x3c0
 8073 370b 18370000 		.4byte	0x3718
 8074 370f 41       		.uleb128 0x41
 8075 3710 4B320000 		.4byte	0x324b
 8076 3714 02       		.uleb128 0x2
 8077 3715 91       		.byte	0x91
 8078 3716 44       		.sleb128 -60
 8079 3717 00       		.byte	0
 8080 3718 2A       		.uleb128 0x2a
 8081 3719 EC020000 		.4byte	.LVL88
 8082 371d E33F0000 		.4byte	0x3fe3
 8083 3721 3A370000 		.4byte	0x373a
 8084 3725 2B       		.uleb128 0x2b
 8085 3726 01       		.uleb128 0x1
 8086 3727 50       		.byte	0x50
 8087 3728 02       		.uleb128 0x2
 8088 3729 91       		.byte	0x91
 8089 372a 4C       		.sleb128 -52
 8090 372b 2B       		.uleb128 0x2b
 8091 372c 01       		.uleb128 0x1
 8092 372d 51       		.byte	0x51
 8093 372e 05       		.uleb128 0x5
 8094 372f 03       		.byte	0x3
 8095 3730 08000000 		.4byte	.LANCHOR0+8
 8096 3734 2B       		.uleb128 0x2b
 8097 3735 01       		.uleb128 0x1
 8098 3736 52       		.byte	0x52
 8099 3737 01       		.uleb128 0x1
 8100 3738 32       		.byte	0x32
 8101 3739 00       		.byte	0
 8102 373a 2A       		.uleb128 0x2a
ARM GAS  C:\Users\D4DE~1\AppData\Local\Temp\cccuUyWy.s 			page 178


 8103 373b 28030000 		.4byte	.LVL92
 8104 373f E33F0000 		.4byte	0x3fe3
 8105 3743 53370000 		.4byte	0x3753
 8106 3747 2B       		.uleb128 0x2b
 8107 3748 01       		.uleb128 0x1
 8108 3749 50       		.byte	0x50
 8109 374a 02       		.uleb128 0x2
 8110 374b 91       		.byte	0x91
 8111 374c 4C       		.sleb128 -52
 8112 374d 2B       		.uleb128 0x2b
 8113 374e 01       		.uleb128 0x1
 8114 374f 52       		.byte	0x52
 8115 3750 01       		.uleb128 0x1
 8116 3751 32       		.byte	0x32
 8117 3752 00       		.byte	0
 8118 3753 3A       		.uleb128 0x3a
 8119 3754 E8030000 		.4byte	.LVL96
 8120 3758 04400000 		.4byte	0x4004
 8121 375c 2B       		.uleb128 0x2b
 8122 375d 01       		.uleb128 0x1
 8123 375e 50       		.byte	0x50
 8124 375f 05       		.uleb128 0x5
 8125 3760 03       		.byte	0x3
 8126 3761 00000000 		.4byte	.LC16
 8127 3765 2B       		.uleb128 0x2b
 8128 3766 01       		.uleb128 0x1
 8129 3767 51       		.byte	0x51
 8130 3768 03       		.uleb128 0x3
 8131 3769 0A       		.byte	0xa
 8132 376a CA03     		.2byte	0x3ca
 8133 376c 00       		.byte	0
 8134 376d 00       		.byte	0
 8135 376e 00       		.byte	0
 8136 376f 00       		.byte	0
 8137 3770 39       		.uleb128 0x39
 8138 3771 02040000 		.4byte	.LBB107
 8139 3775 7A000000 		.4byte	.LBE107-.LBB107
 8140 3779 34380000 		.4byte	0x3834
 8141 377d 3B       		.uleb128 0x3b
 8142 377e CC7B0000 		.4byte	.LASF1221
 8143 3782 01       		.byte	0x1
 8144 3783 F601     		.2byte	0x1f6
 8145 3785 C8180000 		.4byte	0x18c8
 8146 3789 02       		.uleb128 0x2
 8147 378a 91       		.byte	0x91
 8148 378b 4C       		.sleb128 -52
 8149 378c 42       		.uleb128 0x42
 8150 378d 45340000 		.4byte	0x3445
 8151 3791 06040000 		.4byte	.LBB108
 8152 3795 6C000000 		.4byte	.LBE108-.LBB108
 8153 3799 01       		.byte	0x1
 8154 379a F701     		.2byte	0x1f7
 8155 379c 3D       		.uleb128 0x3d
 8156 379d 56340000 		.4byte	0x3456
 8157 37a1 25050000 		.4byte	.LLST23
 8158 37a5 3E       		.uleb128 0x3e
 8159 37a6 06040000 		.4byte	.LBB109
ARM GAS  C:\Users\D4DE~1\AppData\Local\Temp\cccuUyWy.s 			page 179


 8160 37aa 6C000000 		.4byte	.LBE109-.LBB109
 8161 37ae 3F       		.uleb128 0x3f
 8162 37af 62340000 		.4byte	0x3462
 8163 37b3 38050000 		.4byte	.LLST24
 8164 37b7 40       		.uleb128 0x40
 8165 37b8 6C340000 		.4byte	0x346c
 8166 37bc 02       		.uleb128 0x2
 8167 37bd 91       		.byte	0x91
 8168 37be 4C       		.sleb128 -52
 8169 37bf 3C       		.uleb128 0x3c
 8170 37c0 3A320000 		.4byte	0x323a
 8171 37c4 26040000 		.4byte	.LBB110
 8172 37c8 0E000000 		.4byte	.LBE110-.LBB110
 8173 37cc 02       		.byte	0x2
 8174 37cd C003     		.2byte	0x3c0
 8175 37cf DC370000 		.4byte	0x37dc
 8176 37d3 41       		.uleb128 0x41
 8177 37d4 4B320000 		.4byte	0x324b
 8178 37d8 02       		.uleb128 0x2
 8179 37d9 91       		.byte	0x91
 8180 37da 48       		.sleb128 -56
 8181 37db 00       		.byte	0
 8182 37dc 2A       		.uleb128 0x2a
 8183 37dd 12040000 		.4byte	.LVL99
 8184 37e1 E33F0000 		.4byte	0x3fe3
 8185 37e5 FE370000 		.4byte	0x37fe
 8186 37e9 2B       		.uleb128 0x2b
 8187 37ea 01       		.uleb128 0x1
 8188 37eb 50       		.byte	0x50
 8189 37ec 02       		.uleb128 0x2
 8190 37ed 91       		.byte	0x91
 8191 37ee 4C       		.sleb128 -52
 8192 37ef 2B       		.uleb128 0x2b
 8193 37f0 01       		.uleb128 0x1
 8194 37f1 51       		.byte	0x51
 8195 37f2 05       		.uleb128 0x5
 8196 37f3 03       		.byte	0x3
 8197 37f4 08000000 		.4byte	.LANCHOR0+8
 8198 37f8 2B       		.uleb128 0x2b
 8199 37f9 01       		.uleb128 0x1
 8200 37fa 52       		.byte	0x52
 8201 37fb 01       		.uleb128 0x1
 8202 37fc 32       		.byte	0x32
 8203 37fd 00       		.byte	0
 8204 37fe 2A       		.uleb128 0x2a
 8205 37ff 4E040000 		.4byte	.LVL103
 8206 3803 E33F0000 		.4byte	0x3fe3
 8207 3807 17380000 		.4byte	0x3817
 8208 380b 2B       		.uleb128 0x2b
 8209 380c 01       		.uleb128 0x1
 8210 380d 50       		.byte	0x50
 8211 380e 02       		.uleb128 0x2
 8212 380f 91       		.byte	0x91
 8213 3810 4C       		.sleb128 -52
 8214 3811 2B       		.uleb128 0x2b
 8215 3812 01       		.uleb128 0x1
 8216 3813 52       		.byte	0x52
ARM GAS  C:\Users\D4DE~1\AppData\Local\Temp\cccuUyWy.s 			page 180


 8217 3814 01       		.uleb128 0x1
 8218 3815 32       		.byte	0x32
 8219 3816 00       		.byte	0
 8220 3817 3A       		.uleb128 0x3a
 8221 3818 68040000 		.4byte	.LVL107
 8222 381c 04400000 		.4byte	0x4004
 8223 3820 2B       		.uleb128 0x2b
 8224 3821 01       		.uleb128 0x1
 8225 3822 50       		.byte	0x50
 8226 3823 05       		.uleb128 0x5
 8227 3824 03       		.byte	0x3
 8228 3825 00000000 		.4byte	.LC16
 8229 3829 2B       		.uleb128 0x2b
 8230 382a 01       		.uleb128 0x1
 8231 382b 51       		.byte	0x51
 8232 382c 03       		.uleb128 0x3
 8233 382d 0A       		.byte	0xa
 8234 382e CA03     		.2byte	0x3ca
 8235 3830 00       		.byte	0
 8236 3831 00       		.byte	0
 8237 3832 00       		.byte	0
 8238 3833 00       		.byte	0
 8239 3834 39       		.uleb128 0x39
 8240 3835 84040000 		.4byte	.LBB112
 8241 3839 94000000 		.4byte	.LBE112-.LBB112
 8242 383d 30390000 		.4byte	0x3930
 8243 3841 34       		.uleb128 0x34
 8244 3842 BC640000 		.4byte	.LASF1222
 8245 3846 01       		.byte	0x1
 8246 3847 0702     		.2byte	0x207
 8247 3849 1C3E0000 		.4byte	0x3e1c
 8248 384d 62050000 		.4byte	.LLST25
 8249 3851 3C       		.uleb128 0x3c
 8250 3852 58320000 		.4byte	0x3258
 8251 3856 90040000 		.4byte	.LBB113
 8252 385a 06000000 		.4byte	.LBE113-.LBB113
 8253 385e 01       		.byte	0x1
 8254 385f 1302     		.2byte	0x213
 8255 3861 6F380000 		.4byte	0x386f
 8256 3865 3D       		.uleb128 0x3d
 8257 3866 65320000 		.4byte	0x3265
 8258 386a 75050000 		.4byte	.LLST26
 8259 386e 00       		.byte	0
 8260 386f 3E       		.uleb128 0x3e
 8261 3870 96040000 		.4byte	.LBB115
 8262 3874 7C000000 		.4byte	.LBE115-.LBB115
 8263 3878 3B       		.uleb128 0x3b
 8264 3879 F1770000 		.4byte	.LASF1223
 8265 387d 01       		.byte	0x1
 8266 387e 2202     		.2byte	0x222
 8267 3880 C8180000 		.4byte	0x18c8
 8268 3884 02       		.uleb128 0x2
 8269 3885 91       		.byte	0x91
 8270 3886 48       		.sleb128 -56
 8271 3887 42       		.uleb128 0x42
 8272 3888 45340000 		.4byte	0x3445
 8273 388c 9A040000 		.4byte	.LBB116
ARM GAS  C:\Users\D4DE~1\AppData\Local\Temp\cccuUyWy.s 			page 181


 8274 3890 6C000000 		.4byte	.LBE116-.LBB116
 8275 3894 01       		.byte	0x1
 8276 3895 2202     		.2byte	0x222
 8277 3897 3D       		.uleb128 0x3d
 8278 3898 56340000 		.4byte	0x3456
 8279 389c 89050000 		.4byte	.LLST27
 8280 38a0 3E       		.uleb128 0x3e
 8281 38a1 9A040000 		.4byte	.LBB117
 8282 38a5 6C000000 		.4byte	.LBE117-.LBB117
 8283 38a9 3F       		.uleb128 0x3f
 8284 38aa 62340000 		.4byte	0x3462
 8285 38ae 9C050000 		.4byte	.LLST28
 8286 38b2 40       		.uleb128 0x40
 8287 38b3 6C340000 		.4byte	0x346c
 8288 38b7 02       		.uleb128 0x2
 8289 38b8 91       		.byte	0x91
 8290 38b9 48       		.sleb128 -56
 8291 38ba 3C       		.uleb128 0x3c
 8292 38bb 3A320000 		.4byte	0x323a
 8293 38bf BA040000 		.4byte	.LBB118
 8294 38c3 0E000000 		.4byte	.LBE118-.LBB118
 8295 38c7 02       		.byte	0x2
 8296 38c8 C003     		.2byte	0x3c0
 8297 38ca D7380000 		.4byte	0x38d7
 8298 38ce 41       		.uleb128 0x41
 8299 38cf 4B320000 		.4byte	0x324b
 8300 38d3 02       		.uleb128 0x2
 8301 38d4 91       		.byte	0x91
 8302 38d5 4C       		.sleb128 -52
 8303 38d6 00       		.byte	0
 8304 38d7 2A       		.uleb128 0x2a
 8305 38d8 A6040000 		.4byte	.LVL116
 8306 38dc E33F0000 		.4byte	0x3fe3
 8307 38e0 F9380000 		.4byte	0x38f9
 8308 38e4 2B       		.uleb128 0x2b
 8309 38e5 01       		.uleb128 0x1
 8310 38e6 50       		.byte	0x50
 8311 38e7 02       		.uleb128 0x2
 8312 38e8 91       		.byte	0x91
 8313 38e9 48       		.sleb128 -56
 8314 38ea 2B       		.uleb128 0x2b
 8315 38eb 01       		.uleb128 0x1
 8316 38ec 51       		.byte	0x51
 8317 38ed 05       		.uleb128 0x5
 8318 38ee 03       		.byte	0x3
 8319 38ef 08000000 		.4byte	.LANCHOR0+8
 8320 38f3 2B       		.uleb128 0x2b
 8321 38f4 01       		.uleb128 0x1
 8322 38f5 52       		.byte	0x52
 8323 38f6 01       		.uleb128 0x1
 8324 38f7 32       		.byte	0x32
 8325 38f8 00       		.byte	0
 8326 38f9 2A       		.uleb128 0x2a
 8327 38fa E2040000 		.4byte	.LVL119
 8328 38fe E33F0000 		.4byte	0x3fe3
 8329 3902 12390000 		.4byte	0x3912
 8330 3906 2B       		.uleb128 0x2b
ARM GAS  C:\Users\D4DE~1\AppData\Local\Temp\cccuUyWy.s 			page 182


 8331 3907 01       		.uleb128 0x1
 8332 3908 50       		.byte	0x50
 8333 3909 02       		.uleb128 0x2
 8334 390a 91       		.byte	0x91
 8335 390b 48       		.sleb128 -56
 8336 390c 2B       		.uleb128 0x2b
 8337 390d 01       		.uleb128 0x1
 8338 390e 52       		.byte	0x52
 8339 390f 01       		.uleb128 0x1
 8340 3910 32       		.byte	0x32
 8341 3911 00       		.byte	0
 8342 3912 3A       		.uleb128 0x3a
 8343 3913 FC040000 		.4byte	.LVL121
 8344 3917 04400000 		.4byte	0x4004
 8345 391b 2B       		.uleb128 0x2b
 8346 391c 01       		.uleb128 0x1
 8347 391d 50       		.byte	0x50
 8348 391e 05       		.uleb128 0x5
 8349 391f 03       		.byte	0x3
 8350 3920 00000000 		.4byte	.LC16
 8351 3924 2B       		.uleb128 0x2b
 8352 3925 01       		.uleb128 0x1
 8353 3926 51       		.byte	0x51
 8354 3927 03       		.uleb128 0x3
 8355 3928 0A       		.byte	0xa
 8356 3929 CA03     		.2byte	0x3ca
 8357 392b 00       		.byte	0
 8358 392c 00       		.byte	0
 8359 392d 00       		.byte	0
 8360 392e 00       		.byte	0
 8361 392f 00       		.byte	0
 8362 3930 43       		.uleb128 0x43
 8363 3931 72320000 		.4byte	0x3272
 8364 3935 32050000 		.4byte	.LBB120
 8365 3939 04000000 		.4byte	.LBE120-.LBB120
 8366 393d 01       		.byte	0x1
 8367 393e 3B02     		.2byte	0x23b
 8368 3940 3C       		.uleb128 0x3c
 8369 3941 58320000 		.4byte	0x3258
 8370 3945 3A050000 		.4byte	.LBB122
 8371 3949 08000000 		.4byte	.LBE122-.LBB122
 8372 394d 01       		.byte	0x1
 8373 394e 3D02     		.2byte	0x23d
 8374 3950 5E390000 		.4byte	0x395e
 8375 3954 3D       		.uleb128 0x3d
 8376 3955 65320000 		.4byte	0x3265
 8377 3959 BB050000 		.4byte	.LLST29
 8378 395d 00       		.byte	0
 8379 395e 3C       		.uleb128 0x3c
 8380 395f 58320000 		.4byte	0x3258
 8381 3963 46050000 		.4byte	.LBB124
 8382 3967 08000000 		.4byte	.LBE124-.LBB124
 8383 396b 01       		.byte	0x1
 8384 396c 4202     		.2byte	0x242
 8385 396e 7C390000 		.4byte	0x397c
 8386 3972 3D       		.uleb128 0x3d
 8387 3973 65320000 		.4byte	0x3265
ARM GAS  C:\Users\D4DE~1\AppData\Local\Temp\cccuUyWy.s 			page 183


 8388 3977 CF050000 		.4byte	.LLST30
 8389 397b 00       		.byte	0
 8390 397c 3C       		.uleb128 0x3c
 8391 397d 58320000 		.4byte	0x3258
 8392 3981 54050000 		.4byte	.LBB126
 8393 3985 06000000 		.4byte	.LBE126-.LBB126
 8394 3989 01       		.byte	0x1
 8395 398a 4802     		.2byte	0x248
 8396 398c 9A390000 		.4byte	0x399a
 8397 3990 3D       		.uleb128 0x3d
 8398 3991 65320000 		.4byte	0x3265
 8399 3995 E3050000 		.4byte	.LLST31
 8400 3999 00       		.byte	0
 8401 399a 3C       		.uleb128 0x3c
 8402 399b 58320000 		.4byte	0x3258
 8403 399f 92050000 		.4byte	.LBB128
 8404 39a3 08000000 		.4byte	.LBE128-.LBB128
 8405 39a7 01       		.byte	0x1
 8406 39a8 5202     		.2byte	0x252
 8407 39aa B8390000 		.4byte	0x39b8
 8408 39ae 3D       		.uleb128 0x3d
 8409 39af 65320000 		.4byte	0x3265
 8410 39b3 F7050000 		.4byte	.LLST32
 8411 39b7 00       		.byte	0
 8412 39b8 3C       		.uleb128 0x3c
 8413 39b9 7F320000 		.4byte	0x327f
 8414 39bd AC050000 		.4byte	.LBB130
 8415 39c1 1C000000 		.4byte	.LBE130-.LBB130
 8416 39c5 01       		.byte	0x1
 8417 39c6 A302     		.2byte	0x2a3
 8418 39c8 F9390000 		.4byte	0x39f9
 8419 39cc 3D       		.uleb128 0x3d
 8420 39cd 98320000 		.4byte	0x3298
 8421 39d1 0B060000 		.4byte	.LLST33
 8422 39d5 41       		.uleb128 0x41
 8423 39d6 8C320000 		.4byte	0x328c
 8424 39da 03       		.uleb128 0x3
 8425 39db 91       		.byte	0x91
 8426 39dc B87F     		.sleb128 -72
 8427 39de 3A       		.uleb128 0x3a
 8428 39df C8050000 		.4byte	.LVL138
 8429 39e3 04400000 		.4byte	0x4004
 8430 39e7 2B       		.uleb128 0x2b
 8431 39e8 01       		.uleb128 0x1
 8432 39e9 50       		.byte	0x50
 8433 39ea 05       		.uleb128 0x5
 8434 39eb 03       		.byte	0x3
 8435 39ec 00000000 		.4byte	.LC16
 8436 39f0 2B       		.uleb128 0x2b
 8437 39f1 01       		.uleb128 0x1
 8438 39f2 51       		.byte	0x51
 8439 39f3 03       		.uleb128 0x3
 8440 39f4 0A       		.byte	0xa
 8441 39f5 8603     		.2byte	0x386
 8442 39f7 00       		.byte	0
 8443 39f8 00       		.byte	0
 8444 39f9 39       		.uleb128 0x39
ARM GAS  C:\Users\D4DE~1\AppData\Local\Temp\cccuUyWy.s 			page 184


 8445 39fa 06060000 		.4byte	.LBB132
 8446 39fe 38000000 		.4byte	.LBE132-.LBB132
 8447 3a02 563A0000 		.4byte	0x3a56
 8448 3a06 34       		.uleb128 0x34
 8449 3a07 E5120000 		.4byte	.LASF1224
 8450 3a0b 01       		.byte	0x1
 8451 3a0c B402     		.2byte	0x2b4
 8452 3a0e AE000000 		.4byte	0xae
 8453 3a12 1F060000 		.4byte	.LLST34
 8454 3a16 2A       		.uleb128 0x2a
 8455 3a17 14060000 		.4byte	.LVL141
 8456 3a1b 10400000 		.4byte	0x4010
 8457 3a1f 293A0000 		.4byte	0x3a29
 8458 3a23 2B       		.uleb128 0x2b
 8459 3a24 01       		.uleb128 0x1
 8460 3a25 51       		.byte	0x51
 8461 3a26 01       		.uleb128 0x1
 8462 3a27 32       		.byte	0x32
 8463 3a28 00       		.byte	0
 8464 3a29 44       		.uleb128 0x44
 8465 3a2a 2C060000 		.4byte	.LVL143
 8466 3a2e 413A0000 		.4byte	0x3a41
 8467 3a32 2B       		.uleb128 0x2b
 8468 3a33 01       		.uleb128 0x1
 8469 3a34 50       		.byte	0x50
 8470 3a35 05       		.uleb128 0x5
 8471 3a36 0C       		.byte	0xc
 8472 3a37 04000100 		.4byte	0x10004
 8473 3a3b 2B       		.uleb128 0x2b
 8474 3a3c 01       		.uleb128 0x1
 8475 3a3d 51       		.byte	0x51
 8476 3a3e 01       		.uleb128 0x1
 8477 3a3f 30       		.byte	0x30
 8478 3a40 00       		.byte	0
 8479 3a41 3A       		.uleb128 0x3a
 8480 3a42 3E060000 		.4byte	.LVL144
 8481 3a46 B63F0000 		.4byte	0x3fb6
 8482 3a4a 2B       		.uleb128 0x2b
 8483 3a4b 01       		.uleb128 0x1
 8484 3a4c 51       		.byte	0x51
 8485 3a4d 01       		.uleb128 0x1
 8486 3a4e 30       		.byte	0x30
 8487 3a4f 2B       		.uleb128 0x2b
 8488 3a50 01       		.uleb128 0x1
 8489 3a51 52       		.byte	0x52
 8490 3a52 01       		.uleb128 0x1
 8491 3a53 33       		.byte	0x33
 8492 3a54 00       		.byte	0
 8493 3a55 00       		.byte	0
 8494 3a56 3C       		.uleb128 0x3c
 8495 3a57 7F320000 		.4byte	0x327f
 8496 3a5b 54060000 		.4byte	.LBB133
 8497 3a5f 1A000000 		.4byte	.LBE133-.LBB133
 8498 3a63 01       		.byte	0x1
 8499 3a64 D102     		.2byte	0x2d1
 8500 3a66 973A0000 		.4byte	0x3a97
 8501 3a6a 3D       		.uleb128 0x3d
ARM GAS  C:\Users\D4DE~1\AppData\Local\Temp\cccuUyWy.s 			page 185


 8502 3a6b 98320000 		.4byte	0x3298
 8503 3a6f 32060000 		.4byte	.LLST35
 8504 3a73 41       		.uleb128 0x41
 8505 3a74 8C320000 		.4byte	0x328c
 8506 3a78 03       		.uleb128 0x3
 8507 3a79 91       		.byte	0x91
 8508 3a7a BC7F     		.sleb128 -68
 8509 3a7c 3A       		.uleb128 0x3a
 8510 3a7d 6E060000 		.4byte	.LVL149
 8511 3a81 04400000 		.4byte	0x4004
 8512 3a85 2B       		.uleb128 0x2b
 8513 3a86 01       		.uleb128 0x1
 8514 3a87 50       		.byte	0x50
 8515 3a88 05       		.uleb128 0x5
 8516 3a89 03       		.byte	0x3
 8517 3a8a 00000000 		.4byte	.LC16
 8518 3a8e 2B       		.uleb128 0x2b
 8519 3a8f 01       		.uleb128 0x1
 8520 3a90 51       		.byte	0x51
 8521 3a91 03       		.uleb128 0x3
 8522 3a92 0A       		.byte	0xa
 8523 3a93 8603     		.2byte	0x386
 8524 3a95 00       		.byte	0
 8525 3a96 00       		.byte	0
 8526 3a97 39       		.uleb128 0x39
 8527 3a98 80060000 		.4byte	.LBB135
 8528 3a9c 0E000000 		.4byte	.LBE135-.LBB135
 8529 3aa0 C43A0000 		.4byte	0x3ac4
 8530 3aa4 3B       		.uleb128 0x3b
 8531 3aa5 89610000 		.4byte	.LASF1225
 8532 3aa9 01       		.byte	0x1
 8533 3aaa E002     		.2byte	0x2e0
 8534 3aac 3D1C0000 		.4byte	0x1c3d
 8535 3ab0 02       		.uleb128 0x2
 8536 3ab1 91       		.byte	0x91
 8537 3ab2 4C       		.sleb128 -52
 8538 3ab3 3A       		.uleb128 0x3a
 8539 3ab4 8E060000 		.4byte	.LVL153
 8540 3ab8 1B400000 		.4byte	0x401b
 8541 3abc 2B       		.uleb128 0x2b
 8542 3abd 01       		.uleb128 0x1
 8543 3abe 50       		.byte	0x50
 8544 3abf 02       		.uleb128 0x2
 8545 3ac0 91       		.byte	0x91
 8546 3ac1 4C       		.sleb128 -52
 8547 3ac2 00       		.byte	0
 8548 3ac3 00       		.byte	0
 8549 3ac4 39       		.uleb128 0x39
 8550 3ac5 90060000 		.4byte	.LBB136
 8551 3ac9 5E000000 		.4byte	.LBE136-.LBB136
 8552 3acd 733B0000 		.4byte	0x3b73
 8553 3ad1 34       		.uleb128 0x34
 8554 3ad2 BC320000 		.4byte	.LASF1200
 8555 3ad6 01       		.byte	0x1
 8556 3ad7 F202     		.2byte	0x2f2
 8557 3ad9 941B0000 		.4byte	0x1b94
 8558 3add 46060000 		.4byte	.LLST36
ARM GAS  C:\Users\D4DE~1\AppData\Local\Temp\cccuUyWy.s 			page 186


 8559 3ae1 34       		.uleb128 0x34
 8560 3ae2 84650000 		.4byte	.LASF692
 8561 3ae6 01       		.byte	0x1
 8562 3ae7 F302     		.2byte	0x2f3
 8563 3ae9 A01B0000 		.4byte	0x1ba0
 8564 3aed 64060000 		.4byte	.LLST37
 8565 3af1 39       		.uleb128 0x39
 8566 3af2 D0060000 		.4byte	.LBB137
 8567 3af6 14000000 		.4byte	.LBE137-.LBB137
 8568 3afa 1E3B0000 		.4byte	0x3b1e
 8569 3afe 3B       		.uleb128 0x3b
 8570 3aff 9F3C0000 		.4byte	.LASF1202
 8571 3b03 01       		.byte	0x1
 8572 3b04 0C03     		.2byte	0x30c
 8573 3b06 DA1C0000 		.4byte	0x1cda
 8574 3b0a 02       		.uleb128 0x2
 8575 3b0b 91       		.byte	0x91
 8576 3b0c 4C       		.sleb128 -52
 8577 3b0d 3A       		.uleb128 0x3a
 8578 3b0e E4060000 		.4byte	.LVL164
 8579 3b12 BF3F0000 		.4byte	0x3fbf
 8580 3b16 2B       		.uleb128 0x2b
 8581 3b17 01       		.uleb128 0x1
 8582 3b18 50       		.byte	0x50
 8583 3b19 02       		.uleb128 0x2
 8584 3b1a 91       		.byte	0x91
 8585 3b1b 4C       		.sleb128 -52
 8586 3b1c 00       		.byte	0
 8587 3b1d 00       		.byte	0
 8588 3b1e 2A       		.uleb128 0x2a
 8589 3b1f 96060000 		.4byte	.LVL156
 8590 3b23 27400000 		.4byte	0x4027
 8591 3b27 323B0000 		.4byte	0x3b32
 8592 3b2b 2B       		.uleb128 0x2b
 8593 3b2c 01       		.uleb128 0x1
 8594 3b2d 50       		.byte	0x50
 8595 3b2e 02       		.uleb128 0x2
 8596 3b2f 75       		.byte	0x75
 8597 3b30 00       		.sleb128 0
 8598 3b31 00       		.byte	0
 8599 3b32 2A       		.uleb128 0x2a
 8600 3b33 A2060000 		.4byte	.LVL159
 8601 3b37 89330000 		.4byte	0x3389
 8602 3b3b 4C3B0000 		.4byte	0x3b4c
 8603 3b3f 2B       		.uleb128 0x2b
 8604 3b40 01       		.uleb128 0x1
 8605 3b41 50       		.byte	0x50
 8606 3b42 02       		.uleb128 0x2
 8607 3b43 74       		.byte	0x74
 8608 3b44 00       		.sleb128 0
 8609 3b45 2B       		.uleb128 0x2b
 8610 3b46 01       		.uleb128 0x1
 8611 3b47 51       		.byte	0x51
 8612 3b48 02       		.uleb128 0x2
 8613 3b49 75       		.byte	0x75
 8614 3b4a 00       		.sleb128 0
 8615 3b4b 00       		.byte	0
ARM GAS  C:\Users\D4DE~1\AppData\Local\Temp\cccuUyWy.s 			page 187


 8616 3b4c 2A       		.uleb128 0x2a
 8617 3b4d AA060000 		.4byte	.LVL161
 8618 3b51 A5320000 		.4byte	0x32a5
 8619 3b55 603B0000 		.4byte	0x3b60
 8620 3b59 2B       		.uleb128 0x2b
 8621 3b5a 01       		.uleb128 0x1
 8622 3b5b 50       		.byte	0x50
 8623 3b5c 02       		.uleb128 0x2
 8624 3b5d 75       		.byte	0x75
 8625 3b5e 00       		.sleb128 0
 8626 3b5f 00       		.byte	0
 8627 3b60 31       		.uleb128 0x31
 8628 3b61 BE060000 		.4byte	.LVL162
 8629 3b65 2B       		.uleb128 0x2b
 8630 3b66 01       		.uleb128 0x1
 8631 3b67 50       		.byte	0x50
 8632 3b68 02       		.uleb128 0x2
 8633 3b69 74       		.byte	0x74
 8634 3b6a 00       		.sleb128 0
 8635 3b6b 2B       		.uleb128 0x2b
 8636 3b6c 01       		.uleb128 0x1
 8637 3b6d 51       		.byte	0x51
 8638 3b6e 02       		.uleb128 0x2
 8639 3b6f 75       		.byte	0x75
 8640 3b70 00       		.sleb128 0
 8641 3b71 00       		.byte	0
 8642 3b72 00       		.byte	0
 8643 3b73 2A       		.uleb128 0x2a
 8644 3b74 12010000 		.4byte	.LVL46
 8645 3b78 F1330000 		.4byte	0x33f1
 8646 3b7c 873B0000 		.4byte	0x3b87
 8647 3b80 2B       		.uleb128 0x2b
 8648 3b81 01       		.uleb128 0x1
 8649 3b82 50       		.byte	0x50
 8650 3b83 02       		.uleb128 0x2
 8651 3b84 76       		.byte	0x76
 8652 3b85 00       		.sleb128 0
 8653 3b86 00       		.byte	0
 8654 3b87 2A       		.uleb128 0x2a
 8655 3b88 1C010000 		.4byte	.LVL47
 8656 3b8c 32400000 		.4byte	0x4032
 8657 3b90 9B3B0000 		.4byte	0x3b9b
 8658 3b94 2B       		.uleb128 0x2b
 8659 3b95 01       		.uleb128 0x1
 8660 3b96 50       		.byte	0x50
 8661 3b97 02       		.uleb128 0x2
 8662 3b98 76       		.byte	0x76
 8663 3b99 00       		.sleb128 0
 8664 3b9a 00       		.byte	0
 8665 3b9b 2A       		.uleb128 0x2a
 8666 3b9c 26010000 		.4byte	.LVL48
 8667 3ba0 3E400000 		.4byte	0x403e
 8668 3ba4 AE3B0000 		.4byte	0x3bae
 8669 3ba8 2B       		.uleb128 0x2b
 8670 3ba9 01       		.uleb128 0x1
 8671 3baa 51       		.byte	0x51
 8672 3bab 01       		.uleb128 0x1
ARM GAS  C:\Users\D4DE~1\AppData\Local\Temp\cccuUyWy.s 			page 188


 8673 3bac 30       		.byte	0x30
 8674 3bad 00       		.byte	0
 8675 3bae 2A       		.uleb128 0x2a
 8676 3baf 2E010000 		.4byte	.LVL49
 8677 3bb3 3E400000 		.4byte	0x403e
 8678 3bb7 C13B0000 		.4byte	0x3bc1
 8679 3bbb 2B       		.uleb128 0x2b
 8680 3bbc 01       		.uleb128 0x1
 8681 3bbd 51       		.byte	0x51
 8682 3bbe 01       		.uleb128 0x1
 8683 3bbf 31       		.byte	0x31
 8684 3bc0 00       		.byte	0
 8685 3bc1 2C       		.uleb128 0x2c
 8686 3bc2 8C010000 		.4byte	.LVL52
 8687 3bc6 32400000 		.4byte	0x4032
 8688 3bca 2A       		.uleb128 0x2a
 8689 3bcb 96010000 		.4byte	.LVL53
 8690 3bcf 3E400000 		.4byte	0x403e
 8691 3bd3 DD3B0000 		.4byte	0x3bdd
 8692 3bd7 2B       		.uleb128 0x2b
 8693 3bd8 01       		.uleb128 0x1
 8694 3bd9 51       		.byte	0x51
 8695 3bda 01       		.uleb128 0x1
 8696 3bdb 30       		.byte	0x30
 8697 3bdc 00       		.byte	0
 8698 3bdd 2A       		.uleb128 0x2a
 8699 3bde A0010000 		.4byte	.LVL54
 8700 3be2 3E400000 		.4byte	0x403e
 8701 3be6 F03B0000 		.4byte	0x3bf0
 8702 3bea 2B       		.uleb128 0x2b
 8703 3beb 01       		.uleb128 0x1
 8704 3bec 51       		.byte	0x51
 8705 3bed 01       		.uleb128 0x1
 8706 3bee 31       		.byte	0x31
 8707 3bef 00       		.byte	0
 8708 3bf0 2C       		.uleb128 0x2c
 8709 3bf1 AC010000 		.4byte	.LVL55
 8710 3bf5 4A400000 		.4byte	0x404a
 8711 3bf9 2A       		.uleb128 0x2a
 8712 3bfa D8010000 		.4byte	.LVL62
 8713 3bfe B63F0000 		.4byte	0x3fb6
 8714 3c02 113C0000 		.4byte	0x3c11
 8715 3c06 2B       		.uleb128 0x2b
 8716 3c07 01       		.uleb128 0x1
 8717 3c08 51       		.byte	0x51
 8718 3c09 01       		.uleb128 0x1
 8719 3c0a 30       		.byte	0x30
 8720 3c0b 2B       		.uleb128 0x2b
 8721 3c0c 01       		.uleb128 0x1
 8722 3c0d 52       		.byte	0x52
 8723 3c0e 01       		.uleb128 0x1
 8724 3c0f 32       		.byte	0x32
 8725 3c10 00       		.byte	0
 8726 3c11 2C       		.uleb128 0x2c
 8727 3c12 E4010000 		.4byte	.LVL63
 8728 3c16 56400000 		.4byte	0x4056
 8729 3c1a 2A       		.uleb128 0x2a
ARM GAS  C:\Users\D4DE~1\AppData\Local\Temp\cccuUyWy.s 			page 189


 8730 3c1b 36020000 		.4byte	.LVL70
 8731 3c1f 89330000 		.4byte	0x3389
 8732 3c23 2E3C0000 		.4byte	0x3c2e
 8733 3c27 2B       		.uleb128 0x2b
 8734 3c28 01       		.uleb128 0x1
 8735 3c29 51       		.byte	0x51
 8736 3c2a 02       		.uleb128 0x2
 8737 3c2b 75       		.byte	0x75
 8738 3c2c 00       		.sleb128 0
 8739 3c2d 00       		.byte	0
 8740 3c2e 2A       		.uleb128 0x2a
 8741 3c2f 5C020000 		.4byte	.LVL76
 8742 3c33 E33F0000 		.4byte	0x3fe3
 8743 3c37 473C0000 		.4byte	0x3c47
 8744 3c3b 2B       		.uleb128 0x2b
 8745 3c3c 01       		.uleb128 0x1
 8746 3c3d 50       		.byte	0x50
 8747 3c3e 02       		.uleb128 0x2
 8748 3c3f 77       		.byte	0x77
 8749 3c40 00       		.sleb128 0
 8750 3c41 2B       		.uleb128 0x2b
 8751 3c42 01       		.uleb128 0x1
 8752 3c43 52       		.byte	0x52
 8753 3c44 01       		.uleb128 0x1
 8754 3c45 32       		.byte	0x32
 8755 3c46 00       		.byte	0
 8756 3c47 2A       		.uleb128 0x2a
 8757 3c48 00030000 		.4byte	.LVL90
 8758 3c4c E33F0000 		.4byte	0x3fe3
 8759 3c50 603C0000 		.4byte	0x3c60
 8760 3c54 2B       		.uleb128 0x2b
 8761 3c55 01       		.uleb128 0x1
 8762 3c56 50       		.byte	0x50
 8763 3c57 02       		.uleb128 0x2
 8764 3c58 77       		.byte	0x77
 8765 3c59 00       		.sleb128 0
 8766 3c5a 2B       		.uleb128 0x2b
 8767 3c5b 01       		.uleb128 0x1
 8768 3c5c 52       		.byte	0x52
 8769 3c5d 01       		.uleb128 0x1
 8770 3c5e 32       		.byte	0x32
 8771 3c5f 00       		.byte	0
 8772 3c60 2A       		.uleb128 0x2a
 8773 3c61 26040000 		.4byte	.LVL101
 8774 3c65 E33F0000 		.4byte	0x3fe3
 8775 3c69 793C0000 		.4byte	0x3c79
 8776 3c6d 2B       		.uleb128 0x2b
 8777 3c6e 01       		.uleb128 0x1
 8778 3c6f 50       		.byte	0x50
 8779 3c70 02       		.uleb128 0x2
 8780 3c71 77       		.byte	0x77
 8781 3c72 00       		.sleb128 0
 8782 3c73 2B       		.uleb128 0x2b
 8783 3c74 01       		.uleb128 0x1
 8784 3c75 52       		.byte	0x52
 8785 3c76 01       		.uleb128 0x1
 8786 3c77 32       		.byte	0x32
ARM GAS  C:\Users\D4DE~1\AppData\Local\Temp\cccuUyWy.s 			page 190


 8787 3c78 00       		.byte	0
 8788 3c79 2A       		.uleb128 0x2a
 8789 3c7a 82040000 		.4byte	.LVL110
 8790 3c7e 89330000 		.4byte	0x3389
 8791 3c82 8D3C0000 		.4byte	0x3c8d
 8792 3c86 2B       		.uleb128 0x2b
 8793 3c87 01       		.uleb128 0x1
 8794 3c88 51       		.byte	0x51
 8795 3c89 02       		.uleb128 0x2
 8796 3c8a 75       		.byte	0x75
 8797 3c8b 00       		.sleb128 0
 8798 3c8c 00       		.byte	0
 8799 3c8d 2A       		.uleb128 0x2a
 8800 3c8e BA040000 		.4byte	.LVL118
 8801 3c92 E33F0000 		.4byte	0x3fe3
 8802 3c96 A63C0000 		.4byte	0x3ca6
 8803 3c9a 2B       		.uleb128 0x2b
 8804 3c9b 01       		.uleb128 0x1
 8805 3c9c 50       		.byte	0x50
 8806 3c9d 02       		.uleb128 0x2
 8807 3c9e 77       		.byte	0x77
 8808 3c9f 00       		.sleb128 0
 8809 3ca0 2B       		.uleb128 0x2b
 8810 3ca1 01       		.uleb128 0x1
 8811 3ca2 52       		.byte	0x52
 8812 3ca3 01       		.uleb128 0x1
 8813 3ca4 32       		.byte	0x32
 8814 3ca5 00       		.byte	0
 8815 3ca6 2A       		.uleb128 0x2a
 8816 3ca7 28050000 		.4byte	.LVL124
 8817 3cab 89330000 		.4byte	0x3389
 8818 3caf BA3C0000 		.4byte	0x3cba
 8819 3cb3 2B       		.uleb128 0x2b
 8820 3cb4 01       		.uleb128 0x1
 8821 3cb5 51       		.byte	0x51
 8822 3cb6 02       		.uleb128 0x2
 8823 3cb7 75       		.byte	0x75
 8824 3cb8 00       		.sleb128 0
 8825 3cb9 00       		.byte	0
 8826 3cba 2A       		.uleb128 0x2a
 8827 3cbb 8C050000 		.4byte	.LVL131
 8828 3cbf 62400000 		.4byte	0x4062
 8829 3cc3 CD3C0000 		.4byte	0x3ccd
 8830 3cc7 2B       		.uleb128 0x2b
 8831 3cc8 01       		.uleb128 0x1
 8832 3cc9 50       		.byte	0x50
 8833 3cca 01       		.uleb128 0x1
 8834 3ccb 31       		.byte	0x31
 8835 3ccc 00       		.byte	0
 8836 3ccd 2A       		.uleb128 0x2a
 8837 3cce A0050000 		.4byte	.LVL134
 8838 3cd2 89330000 		.4byte	0x3389
 8839 3cd6 E13C0000 		.4byte	0x3ce1
 8840 3cda 2B       		.uleb128 0x2b
 8841 3cdb 01       		.uleb128 0x1
 8842 3cdc 51       		.byte	0x51
 8843 3cdd 02       		.uleb128 0x2
ARM GAS  C:\Users\D4DE~1\AppData\Local\Temp\cccuUyWy.s 			page 191


 8844 3cde 75       		.byte	0x75
 8845 3cdf 00       		.sleb128 0
 8846 3ce0 00       		.byte	0
 8847 3ce1 2A       		.uleb128 0x2a
 8848 3ce2 AC050000 		.4byte	.LVL137
 8849 3ce6 E33F0000 		.4byte	0x3fe3
 8850 3cea 003D0000 		.4byte	0x3d00
 8851 3cee 2B       		.uleb128 0x2b
 8852 3cef 01       		.uleb128 0x1
 8853 3cf0 50       		.byte	0x50
 8854 3cf1 02       		.uleb128 0x2
 8855 3cf2 7D       		.byte	0x7d
 8856 3cf3 00       		.sleb128 0
 8857 3cf4 2B       		.uleb128 0x2b
 8858 3cf5 01       		.uleb128 0x1
 8859 3cf6 51       		.byte	0x51
 8860 3cf7 02       		.uleb128 0x2
 8861 3cf8 75       		.byte	0x75
 8862 3cf9 00       		.sleb128 0
 8863 3cfa 2B       		.uleb128 0x2b
 8864 3cfb 01       		.uleb128 0x1
 8865 3cfc 52       		.byte	0x52
 8866 3cfd 01       		.uleb128 0x1
 8867 3cfe 32       		.byte	0x32
 8868 3cff 00       		.byte	0
 8869 3d00 2A       		.uleb128 0x2a
 8870 3d01 D8050000 		.4byte	.LVL139
 8871 3d05 E33F0000 		.4byte	0x3fe3
 8872 3d09 193D0000 		.4byte	0x3d19
 8873 3d0d 2B       		.uleb128 0x2b
 8874 3d0e 01       		.uleb128 0x1
 8875 3d0f 51       		.byte	0x51
 8876 3d10 02       		.uleb128 0x2
 8877 3d11 75       		.byte	0x75
 8878 3d12 00       		.sleb128 0
 8879 3d13 2B       		.uleb128 0x2b
 8880 3d14 01       		.uleb128 0x1
 8881 3d15 52       		.byte	0x52
 8882 3d16 01       		.uleb128 0x1
 8883 3d17 32       		.byte	0x32
 8884 3d18 00       		.byte	0
 8885 3d19 2A       		.uleb128 0x2a
 8886 3d1a 06060000 		.4byte	.LVL140
 8887 3d1e E33F0000 		.4byte	0x3fe3
 8888 3d22 2C3D0000 		.4byte	0x3d2c
 8889 3d26 2B       		.uleb128 0x2b
 8890 3d27 01       		.uleb128 0x1
 8891 3d28 52       		.byte	0x52
 8892 3d29 01       		.uleb128 0x1
 8893 3d2a 33       		.byte	0x33
 8894 3d2b 00       		.byte	0
 8895 3d2c 2A       		.uleb128 0x2a
 8896 3d2d 46060000 		.4byte	.LVL145
 8897 3d31 89330000 		.4byte	0x3389
 8898 3d35 463D0000 		.4byte	0x3d46
 8899 3d39 2B       		.uleb128 0x2b
 8900 3d3a 01       		.uleb128 0x1
ARM GAS  C:\Users\D4DE~1\AppData\Local\Temp\cccuUyWy.s 			page 192


 8901 3d3b 50       		.byte	0x50
 8902 3d3c 02       		.uleb128 0x2
 8903 3d3d 74       		.byte	0x74
 8904 3d3e 00       		.sleb128 0
 8905 3d3f 2B       		.uleb128 0x2b
 8906 3d40 01       		.uleb128 0x1
 8907 3d41 51       		.byte	0x51
 8908 3d42 02       		.uleb128 0x2
 8909 3d43 75       		.byte	0x75
 8910 3d44 00       		.sleb128 0
 8911 3d45 00       		.byte	0
 8912 3d46 2A       		.uleb128 0x2a
 8913 3d47 54060000 		.4byte	.LVL148
 8914 3d4b E33F0000 		.4byte	0x3fe3
 8915 3d4f 653D0000 		.4byte	0x3d65
 8916 3d53 2B       		.uleb128 0x2b
 8917 3d54 01       		.uleb128 0x1
 8918 3d55 50       		.byte	0x50
 8919 3d56 02       		.uleb128 0x2
 8920 3d57 76       		.byte	0x76
 8921 3d58 00       		.sleb128 0
 8922 3d59 2B       		.uleb128 0x2b
 8923 3d5a 01       		.uleb128 0x1
 8924 3d5b 51       		.byte	0x51
 8925 3d5c 02       		.uleb128 0x2
 8926 3d5d 75       		.byte	0x75
 8927 3d5e 00       		.sleb128 0
 8928 3d5f 2B       		.uleb128 0x2b
 8929 3d60 01       		.uleb128 0x1
 8930 3d61 52       		.byte	0x52
 8931 3d62 01       		.uleb128 0x1
 8932 3d63 32       		.byte	0x32
 8933 3d64 00       		.byte	0
 8934 3d65 2A       		.uleb128 0x2a
 8935 3d66 7E060000 		.4byte	.LVL150
 8936 3d6a 89330000 		.4byte	0x3389
 8937 3d6e 7F3D0000 		.4byte	0x3d7f
 8938 3d72 2B       		.uleb128 0x2b
 8939 3d73 01       		.uleb128 0x1
 8940 3d74 50       		.byte	0x50
 8941 3d75 02       		.uleb128 0x2
 8942 3d76 74       		.byte	0x74
 8943 3d77 00       		.sleb128 0
 8944 3d78 2B       		.uleb128 0x2b
 8945 3d79 01       		.uleb128 0x1
 8946 3d7a 51       		.byte	0x51
 8947 3d7b 02       		.uleb128 0x2
 8948 3d7c 75       		.byte	0x75
 8949 3d7d 00       		.sleb128 0
 8950 3d7e 00       		.byte	0
 8951 3d7f 2A       		.uleb128 0x2a
 8952 3d80 F6060000 		.4byte	.LVL166
 8953 3d84 89330000 		.4byte	0x3389
 8954 3d88 933D0000 		.4byte	0x3d93
 8955 3d8c 2B       		.uleb128 0x2b
 8956 3d8d 01       		.uleb128 0x1
 8957 3d8e 51       		.byte	0x51
ARM GAS  C:\Users\D4DE~1\AppData\Local\Temp\cccuUyWy.s 			page 193


 8958 3d8f 02       		.uleb128 0x2
 8959 3d90 75       		.byte	0x75
 8960 3d91 00       		.sleb128 0
 8961 3d92 00       		.byte	0
 8962 3d93 2A       		.uleb128 0x2a
 8963 3d94 FE060000 		.4byte	.LVL168
 8964 3d98 89330000 		.4byte	0x3389
 8965 3d9c A73D0000 		.4byte	0x3da7
 8966 3da0 2B       		.uleb128 0x2b
 8967 3da1 01       		.uleb128 0x1
 8968 3da2 51       		.byte	0x51
 8969 3da3 02       		.uleb128 0x2
 8970 3da4 75       		.byte	0x75
 8971 3da5 00       		.sleb128 0
 8972 3da6 00       		.byte	0
 8973 3da7 2A       		.uleb128 0x2a
 8974 3da8 06070000 		.4byte	.LVL170
 8975 3dac 89330000 		.4byte	0x3389
 8976 3db0 BB3D0000 		.4byte	0x3dbb
 8977 3db4 2B       		.uleb128 0x2b
 8978 3db5 01       		.uleb128 0x1
 8979 3db6 51       		.byte	0x51
 8980 3db7 02       		.uleb128 0x2
 8981 3db8 75       		.byte	0x75
 8982 3db9 00       		.sleb128 0
 8983 3dba 00       		.byte	0
 8984 3dbb 2A       		.uleb128 0x2a
 8985 3dbc 0E070000 		.4byte	.LVL172
 8986 3dc0 89330000 		.4byte	0x3389
 8987 3dc4 CF3D0000 		.4byte	0x3dcf
 8988 3dc8 2B       		.uleb128 0x2b
 8989 3dc9 01       		.uleb128 0x1
 8990 3dca 51       		.byte	0x51
 8991 3dcb 02       		.uleb128 0x2
 8992 3dcc 75       		.byte	0x75
 8993 3dcd 00       		.sleb128 0
 8994 3dce 00       		.byte	0
 8995 3dcf 2A       		.uleb128 0x2a
 8996 3dd0 66070000 		.4byte	.LVL175
 8997 3dd4 6E400000 		.4byte	0x406e
 8998 3dd8 E33D0000 		.4byte	0x3de3
 8999 3ddc 2B       		.uleb128 0x2b
 9000 3ddd 01       		.uleb128 0x1
 9001 3dde 50       		.byte	0x50
 9002 3ddf 02       		.uleb128 0x2
 9003 3de0 75       		.byte	0x75
 9004 3de1 00       		.sleb128 0
 9005 3de2 00       		.byte	0
 9006 3de3 2A       		.uleb128 0x2a
 9007 3de4 6E070000 		.4byte	.LVL176
 9008 3de8 89330000 		.4byte	0x3389
 9009 3dec FD3D0000 		.4byte	0x3dfd
 9010 3df0 2B       		.uleb128 0x2b
 9011 3df1 01       		.uleb128 0x1
 9012 3df2 50       		.byte	0x50
 9013 3df3 02       		.uleb128 0x2
 9014 3df4 74       		.byte	0x74
ARM GAS  C:\Users\D4DE~1\AppData\Local\Temp\cccuUyWy.s 			page 194


 9015 3df5 00       		.sleb128 0
 9016 3df6 2B       		.uleb128 0x2b
 9017 3df7 01       		.uleb128 0x1
 9018 3df8 51       		.byte	0x51
 9019 3df9 02       		.uleb128 0x2
 9020 3dfa 75       		.byte	0x75
 9021 3dfb 00       		.sleb128 0
 9022 3dfc 00       		.byte	0
 9023 3dfd 31       		.uleb128 0x31
 9024 3dfe 98070000 		.4byte	.LVL179
 9025 3e02 2B       		.uleb128 0x2b
 9026 3e03 01       		.uleb128 0x1
 9027 3e04 50       		.byte	0x50
 9028 3e05 02       		.uleb128 0x2
 9029 3e06 74       		.byte	0x74
 9030 3e07 00       		.sleb128 0
 9031 3e08 2B       		.uleb128 0x2b
 9032 3e09 01       		.uleb128 0x1
 9033 3e0a 51       		.byte	0x51
 9034 3e0b 02       		.uleb128 0x2
 9035 3e0c 75       		.byte	0x75
 9036 3e0d 00       		.sleb128 0
 9037 3e0e 00       		.byte	0
 9038 3e0f 00       		.byte	0
 9039 3e10 18       		.uleb128 0x18
 9040 3e11 04       		.byte	0x4
 9041 3e12 40180000 		.4byte	0x1840
 9042 3e16 18       		.uleb128 0x18
 9043 3e17 04       		.byte	0x4
 9044 3e18 72190000 		.4byte	0x1972
 9045 3e1c 18       		.uleb128 0x18
 9046 3e1d 04       		.byte	0x4
 9047 3e1e 201F0000 		.4byte	0x1f20
 9048 3e22 45       		.uleb128 0x45
 9049 3e23 DA1F0000 		.4byte	.LASF1226
 9050 3e27 06       		.byte	0x6
 9051 3e28 A7       		.byte	0xa7
 9052 3e29 2D3E0000 		.4byte	0x3e2d
 9053 3e2d 18       		.uleb128 0x18
 9054 3e2e 04       		.byte	0x4
 9055 3e2f 333E0000 		.4byte	0x3e33
 9056 3e33 07       		.uleb128 0x7
 9057 3e34 560D0000 		.4byte	0xd56
 9058 3e38 46       		.uleb128 0x46
 9059 3e39 FF290000 		.4byte	.LASF1227
 9060 3e3d 01       		.byte	0x1
 9061 3e3e 2E       		.byte	0x2e
 9062 3e3f 0A070000 		.4byte	0x70a
 9063 3e43 05       		.uleb128 0x5
 9064 3e44 03       		.byte	0x3
 9065 3e45 00000000 		.4byte	cy_ble_eventHandlerFlag
 9066 3e49 47       		.uleb128 0x47
 9067 3e4a 16290000 		.4byte	.LASF1228
 9068 3e4e 02       		.byte	0x2
 9069 3e4f 1902     		.2byte	0x219
 9070 3e51 D0260000 		.4byte	0x26d0
 9071 3e55 47       		.uleb128 0x47
ARM GAS  C:\Users\D4DE~1\AppData\Local\Temp\cccuUyWy.s 			page 195


 9072 3e56 E05E0000 		.4byte	.LASF1229
 9073 3e5a 02       		.byte	0x2
 9074 3e5b 1B02     		.2byte	0x21b
 9075 3e5d 33210000 		.4byte	0x2133
 9076 3e61 47       		.uleb128 0x47
 9077 3e62 5F4B0000 		.4byte	.LASF1230
 9078 3e66 02       		.byte	0x2
 9079 3e67 2202     		.2byte	0x222
 9080 3e69 63210000 		.4byte	0x2163
 9081 3e6d 47       		.uleb128 0x47
 9082 3e6e AC320000 		.4byte	.LASF1231
 9083 3e72 02       		.byte	0x2
 9084 3e73 2302     		.2byte	0x223
 9085 3e75 AE000000 		.4byte	0xae
 9086 3e79 08       		.uleb128 0x8
 9087 3e7a C8180000 		.4byte	0x18c8
 9088 3e7e 893E0000 		.4byte	0x3e89
 9089 3e82 09       		.uleb128 0x9
 9090 3e83 9E000000 		.4byte	0x9e
 9091 3e87 01       		.byte	0x1
 9092 3e88 00       		.byte	0
 9093 3e89 47       		.uleb128 0x47
 9094 3e8a 950B0000 		.4byte	.LASF1232
 9095 3e8e 02       		.byte	0x2
 9096 3e8f 2C02     		.2byte	0x22c
 9097 3e91 793E0000 		.4byte	0x3e79
 9098 3e95 08       		.uleb128 0x8
 9099 3e96 AB210000 		.4byte	0x21ab
 9100 3e9a A53E0000 		.4byte	0x3ea5
 9101 3e9e 09       		.uleb128 0x9
 9102 3e9f 9E000000 		.4byte	0x9e
 9103 3ea3 01       		.byte	0x1
 9104 3ea4 00       		.byte	0
 9105 3ea5 47       		.uleb128 0x47
 9106 3ea6 9E0A0000 		.4byte	.LASF1233
 9107 3eaa 02       		.byte	0x2
 9108 3eab 2D02     		.2byte	0x22d
 9109 3ead 953E0000 		.4byte	0x3e95
 9110 3eb1 08       		.uleb128 0x8
 9111 3eb2 0A070000 		.4byte	0x70a
 9112 3eb6 C13E0000 		.4byte	0x3ec1
 9113 3eba 09       		.uleb128 0x9
 9114 3ebb 9E000000 		.4byte	0x9e
 9115 3ebf 01       		.byte	0x1
 9116 3ec0 00       		.byte	0
 9117 3ec1 47       		.uleb128 0x47
 9118 3ec2 DB590000 		.4byte	.LASF1234
 9119 3ec6 02       		.byte	0x2
 9120 3ec7 2F02     		.2byte	0x22f
 9121 3ec9 CD3E0000 		.4byte	0x3ecd
 9122 3ecd 06       		.uleb128 0x6
 9123 3ece B13E0000 		.4byte	0x3eb1
 9124 3ed2 08       		.uleb128 0x8
 9125 3ed3 E23E0000 		.4byte	0x3ee2
 9126 3ed7 E23E0000 		.4byte	0x3ee2
 9127 3edb 09       		.uleb128 0x9
 9128 3edc 9E000000 		.4byte	0x9e
ARM GAS  C:\Users\D4DE~1\AppData\Local\Temp\cccuUyWy.s 			page 196


 9129 3ee0 01       		.byte	0x1
 9130 3ee1 00       		.byte	0
 9131 3ee2 06       		.uleb128 0x6
 9132 3ee3 D9240000 		.4byte	0x24d9
 9133 3ee7 47       		.uleb128 0x47
 9134 3ee8 64250000 		.4byte	.LASF1235
 9135 3eec 02       		.byte	0x2
 9136 3eed 3002     		.2byte	0x230
 9137 3eef F33E0000 		.4byte	0x3ef3
 9138 3ef3 06       		.uleb128 0x6
 9139 3ef4 D23E0000 		.4byte	0x3ed2
 9140 3ef8 47       		.uleb128 0x47
 9141 3ef9 4A2B0000 		.4byte	.LASF1236
 9142 3efd 02       		.byte	0x2
 9143 3efe 5202     		.2byte	0x252
 9144 3f00 AE000000 		.4byte	0xae
 9145 3f04 47       		.uleb128 0x47
 9146 3f05 08180000 		.4byte	.LASF1237
 9147 3f09 02       		.byte	0x2
 9148 3f0a 5902     		.2byte	0x259
 9149 3f0c F4110000 		.4byte	0x11f4
 9150 3f10 08       		.uleb128 0x8
 9151 3f11 AE000000 		.4byte	0xae
 9152 3f15 263F0000 		.4byte	0x3f26
 9153 3f19 09       		.uleb128 0x9
 9154 3f1a 9E000000 		.4byte	0x9e
 9155 3f1e 01       		.byte	0x1
 9156 3f1f 09       		.uleb128 0x9
 9157 3f20 9E000000 		.4byte	0x9e
 9158 3f24 02       		.byte	0x2
 9159 3f25 00       		.byte	0
 9160 3f26 47       		.uleb128 0x47
 9161 3f27 227A0000 		.4byte	.LASF1238
 9162 3f2b 13       		.byte	0x13
 9163 3f2c 0401     		.2byte	0x104
 9164 3f2e 103F0000 		.4byte	0x3f10
 9165 3f32 47       		.uleb128 0x47
 9166 3f33 C3100000 		.4byte	.LASF1239
 9167 3f37 15       		.byte	0x15
 9168 3f38 8202     		.2byte	0x282
 9169 3f3a B8240000 		.4byte	0x24b8
 9170 3f3e 08       		.uleb128 0x8
 9171 3f3f AE000000 		.4byte	0xae
 9172 3f43 4F3F0000 		.4byte	0x3f4f
 9173 3f47 0D       		.uleb128 0xd
 9174 3f48 9E000000 		.4byte	0x9e
 9175 3f4c FB31     		.2byte	0x31fb
 9176 3f4e 00       		.byte	0
 9177 3f4f 47       		.uleb128 0x47
 9178 3f50 1F4D0000 		.4byte	.LASF1240
 9179 3f54 15       		.byte	0x15
 9180 3f55 8802     		.2byte	0x288
 9181 3f57 3E3F0000 		.4byte	0x3f3e
 9182 3f5b 47       		.uleb128 0x47
 9183 3f5c 172A0000 		.4byte	.LASF1241
 9184 3f60 15       		.byte	0x15
 9185 3f61 8D02     		.2byte	0x28d
ARM GAS  C:\Users\D4DE~1\AppData\Local\Temp\cccuUyWy.s 			page 197


 9186 3f63 673F0000 		.4byte	0x3f67
 9187 3f67 18       		.uleb128 0x18
 9188 3f68 04       		.byte	0x4
 9189 3f69 E7260000 		.4byte	0x26e7
 9190 3f6d 46       		.uleb128 0x46
 9191 3f6e 947D0000 		.4byte	.LASF1242
 9192 3f72 01       		.byte	0x1
 9193 3f73 3F       		.byte	0x3f
 9194 3f74 2E320000 		.4byte	0x322e
 9195 3f78 05       		.uleb128 0x5
 9196 3f79 03       		.byte	0x3
 9197 3f7a 00000000 		.4byte	cy_ble_eventHandler
 9198 3f7e 46       		.uleb128 0x46
 9199 3f7f 2A480000 		.4byte	.LASF1243
 9200 3f83 01       		.byte	0x1
 9201 3f84 2D       		.byte	0x2d
 9202 3f85 8F3F0000 		.4byte	0x3f8f
 9203 3f89 05       		.uleb128 0x5
 9204 3f8a 03       		.byte	0x3
 9205 3f8b 00000000 		.4byte	cy_ble_busyStatus
 9206 3f8f 06       		.uleb128 0x6
 9207 3f90 B13E0000 		.4byte	0x3eb1
 9208 3f94 46       		.uleb128 0x46
 9209 3f95 3D680000 		.4byte	.LASF1244
 9210 3f99 01       		.byte	0x1
 9211 3f9a 2F       		.byte	0x2f
 9212 3f9b DA000000 		.4byte	0xda
 9213 3f9f 05       		.uleb128 0x5
 9214 3fa0 03       		.byte	0x3
 9215 3fa1 00000000 		.4byte	cy_ble_cmdStatus
 9216 3fa5 46       		.uleb128 0x46
 9217 3fa6 BF7A0000 		.4byte	.LASF1245
 9218 3faa 01       		.byte	0x1
 9219 3fab 32       		.byte	0x32
 9220 3fac AE000000 		.4byte	0xae
 9221 3fb0 05       		.uleb128 0x5
 9222 3fb1 03       		.byte	0x3
 9223 3fb2 00000000 		.4byte	cy_ble_advertisingIntervalType
 9224 3fb6 48       		.uleb128 0x48
 9225 3fb7 B6040000 		.4byte	.LASF1249
 9226 3fbb B6040000 		.4byte	.LASF1249
 9227 3fbf 49       		.uleb128 0x49
 9228 3fc0 ED5F0000 		.4byte	.LASF1246
 9229 3fc4 ED5F0000 		.4byte	.LASF1246
 9230 3fc8 11       		.byte	0x11
 9231 3fc9 1101     		.2byte	0x111
 9232 3fcb 49       		.uleb128 0x49
 9233 3fcc 7C280000 		.4byte	.LASF1247
 9234 3fd0 7C280000 		.4byte	.LASF1247
 9235 3fd4 11       		.byte	0x11
 9236 3fd5 5F01     		.2byte	0x15f
 9237 3fd7 49       		.uleb128 0x49
 9238 3fd8 80200000 		.4byte	.LASF1248
 9239 3fdc 80200000 		.4byte	.LASF1248
 9240 3fe0 17       		.byte	0x17
 9241 3fe1 3C01     		.2byte	0x13c
 9242 3fe3 48       		.uleb128 0x48
ARM GAS  C:\Users\D4DE~1\AppData\Local\Temp\cccuUyWy.s 			page 198


 9243 3fe4 87300000 		.4byte	.LASF1250
 9244 3fe8 87300000 		.4byte	.LASF1250
 9245 3fec 49       		.uleb128 0x49
 9246 3fed 66440000 		.4byte	.LASF1251
 9247 3ff1 66440000 		.4byte	.LASF1251
 9248 3ff5 0C       		.byte	0xc
 9249 3ff6 1D05     		.2byte	0x51d
 9250 3ff8 49       		.uleb128 0x49
 9251 3ff9 D46F0000 		.4byte	.LASF1252
 9252 3ffd D46F0000 		.4byte	.LASF1252
 9253 4001 0C       		.byte	0xc
 9254 4002 5604     		.2byte	0x456
 9255 4004 49       		.uleb128 0x49
 9256 4005 930D0000 		.4byte	.LASF1253
 9257 4009 930D0000 		.4byte	.LASF1253
 9258 400d 09       		.byte	0x9
 9259 400e 9203     		.2byte	0x392
 9260 4010 4A       		.uleb128 0x4a
 9261 4011 ED120000 		.4byte	.LASF1254
 9262 4015 ED120000 		.4byte	.LASF1254
 9263 4019 17       		.byte	0x17
 9264 401a DD       		.byte	0xdd
 9265 401b 49       		.uleb128 0x49
 9266 401c 52560000 		.4byte	.LASF1255
 9267 4020 52560000 		.4byte	.LASF1255
 9268 4024 11       		.byte	0x11
 9269 4025 3B01     		.2byte	0x13b
 9270 4027 4A       		.uleb128 0x4a
 9271 4028 360A0000 		.4byte	.LASF1256
 9272 402c 360A0000 		.4byte	.LASF1256
 9273 4030 13       		.byte	0x13
 9274 4031 EC       		.byte	0xec
 9275 4032 49       		.uleb128 0x49
 9276 4033 13030000 		.4byte	.LASF1257
 9277 4037 13030000 		.4byte	.LASF1257
 9278 403b 0E       		.byte	0xe
 9279 403c A306     		.2byte	0x6a3
 9280 403e 49       		.uleb128 0x49
 9281 403f E3600000 		.4byte	.LASF1258
 9282 4043 E3600000 		.4byte	.LASF1258
 9283 4047 02       		.byte	0x2
 9284 4048 FD01     		.2byte	0x1fd
 9285 404a 49       		.uleb128 0x49
 9286 404b 86710000 		.4byte	.LASF1259
 9287 404f 86710000 		.4byte	.LASF1259
 9288 4053 0E       		.byte	0xe
 9289 4054 AD03     		.2byte	0x3ad
 9290 4056 49       		.uleb128 0x49
 9291 4057 E7360000 		.4byte	.LASF1260
 9292 405b E7360000 		.4byte	.LASF1260
 9293 405f 15       		.byte	0x15
 9294 4060 6202     		.2byte	0x262
 9295 4062 49       		.uleb128 0x49
 9296 4063 86020000 		.4byte	.LASF1261
 9297 4067 86020000 		.4byte	.LASF1261
 9298 406b 02       		.byte	0x2
 9299 406c F901     		.2byte	0x1f9
ARM GAS  C:\Users\D4DE~1\AppData\Local\Temp\cccuUyWy.s 			page 199


 9300 406e 4A       		.uleb128 0x4a
 9301 406f 0D400000 		.4byte	.LASF1262
 9302 4073 0D400000 		.4byte	.LASF1262
 9303 4077 13       		.byte	0x13
 9304 4078 ED       		.byte	0xed
 9305 4079 00       		.byte	0
 9306              		.section	.debug_abbrev,"",%progbits
 9307              	.Ldebug_abbrev0:
 9308 0000 01       		.uleb128 0x1
 9309 0001 11       		.uleb128 0x11
 9310 0002 01       		.byte	0x1
 9311 0003 25       		.uleb128 0x25
 9312 0004 0E       		.uleb128 0xe
 9313 0005 13       		.uleb128 0x13
 9314 0006 0B       		.uleb128 0xb
 9315 0007 03       		.uleb128 0x3
 9316 0008 0E       		.uleb128 0xe
 9317 0009 1B       		.uleb128 0x1b
 9318 000a 0E       		.uleb128 0xe
 9319 000b 55       		.uleb128 0x55
 9320 000c 17       		.uleb128 0x17
 9321 000d 11       		.uleb128 0x11
 9322 000e 01       		.uleb128 0x1
 9323 000f 10       		.uleb128 0x10
 9324 0010 17       		.uleb128 0x17
 9325 0011 00       		.byte	0
 9326 0012 00       		.byte	0
 9327 0013 02       		.uleb128 0x2
 9328 0014 24       		.uleb128 0x24
 9329 0015 00       		.byte	0
 9330 0016 0B       		.uleb128 0xb
 9331 0017 0B       		.uleb128 0xb
 9332 0018 3E       		.uleb128 0x3e
 9333 0019 0B       		.uleb128 0xb
 9334 001a 03       		.uleb128 0x3
 9335 001b 08       		.uleb128 0x8
 9336 001c 00       		.byte	0
 9337 001d 00       		.byte	0
 9338 001e 03       		.uleb128 0x3
 9339 001f 24       		.uleb128 0x24
 9340 0020 00       		.byte	0
 9341 0021 0B       		.uleb128 0xb
 9342 0022 0B       		.uleb128 0xb
 9343 0023 3E       		.uleb128 0x3e
 9344 0024 0B       		.uleb128 0xb
 9345 0025 03       		.uleb128 0x3
 9346 0026 0E       		.uleb128 0xe
 9347 0027 00       		.byte	0
 9348 0028 00       		.byte	0
 9349 0029 04       		.uleb128 0x4
 9350 002a 16       		.uleb128 0x16
 9351 002b 00       		.byte	0
 9352 002c 03       		.uleb128 0x3
 9353 002d 0E       		.uleb128 0xe
 9354 002e 3A       		.uleb128 0x3a
 9355 002f 0B       		.uleb128 0xb
 9356 0030 3B       		.uleb128 0x3b
ARM GAS  C:\Users\D4DE~1\AppData\Local\Temp\cccuUyWy.s 			page 200


 9357 0031 0B       		.uleb128 0xb
 9358 0032 49       		.uleb128 0x49
 9359 0033 13       		.uleb128 0x13
 9360 0034 00       		.byte	0
 9361 0035 00       		.byte	0
 9362 0036 05       		.uleb128 0x5
 9363 0037 0F       		.uleb128 0xf
 9364 0038 00       		.byte	0
 9365 0039 0B       		.uleb128 0xb
 9366 003a 0B       		.uleb128 0xb
 9367 003b 00       		.byte	0
 9368 003c 00       		.byte	0
 9369 003d 06       		.uleb128 0x6
 9370 003e 35       		.uleb128 0x35
 9371 003f 00       		.byte	0
 9372 0040 49       		.uleb128 0x49
 9373 0041 13       		.uleb128 0x13
 9374 0042 00       		.byte	0
 9375 0043 00       		.byte	0
 9376 0044 07       		.uleb128 0x7
 9377 0045 26       		.uleb128 0x26
 9378 0046 00       		.byte	0
 9379 0047 49       		.uleb128 0x49
 9380 0048 13       		.uleb128 0x13
 9381 0049 00       		.byte	0
 9382 004a 00       		.byte	0
 9383 004b 08       		.uleb128 0x8
 9384 004c 01       		.uleb128 0x1
 9385 004d 01       		.byte	0x1
 9386 004e 49       		.uleb128 0x49
 9387 004f 13       		.uleb128 0x13
 9388 0050 01       		.uleb128 0x1
 9389 0051 13       		.uleb128 0x13
 9390 0052 00       		.byte	0
 9391 0053 00       		.byte	0
 9392 0054 09       		.uleb128 0x9
 9393 0055 21       		.uleb128 0x21
 9394 0056 00       		.byte	0
 9395 0057 49       		.uleb128 0x49
 9396 0058 13       		.uleb128 0x13
 9397 0059 2F       		.uleb128 0x2f
 9398 005a 0B       		.uleb128 0xb
 9399 005b 00       		.byte	0
 9400 005c 00       		.byte	0
 9401 005d 0A       		.uleb128 0xa
 9402 005e 13       		.uleb128 0x13
 9403 005f 01       		.byte	0x1
 9404 0060 0B       		.uleb128 0xb
 9405 0061 05       		.uleb128 0x5
 9406 0062 3A       		.uleb128 0x3a
 9407 0063 0B       		.uleb128 0xb
 9408 0064 3B       		.uleb128 0x3b
 9409 0065 0B       		.uleb128 0xb
 9410 0066 01       		.uleb128 0x1
 9411 0067 13       		.uleb128 0x13
 9412 0068 00       		.byte	0
 9413 0069 00       		.byte	0
ARM GAS  C:\Users\D4DE~1\AppData\Local\Temp\cccuUyWy.s 			page 201


 9414 006a 0B       		.uleb128 0xb
 9415 006b 0D       		.uleb128 0xd
 9416 006c 00       		.byte	0
 9417 006d 03       		.uleb128 0x3
 9418 006e 0E       		.uleb128 0xe
 9419 006f 3A       		.uleb128 0x3a
 9420 0070 0B       		.uleb128 0xb
 9421 0071 3B       		.uleb128 0x3b
 9422 0072 0B       		.uleb128 0xb
 9423 0073 49       		.uleb128 0x49
 9424 0074 13       		.uleb128 0x13
 9425 0075 38       		.uleb128 0x38
 9426 0076 0B       		.uleb128 0xb
 9427 0077 00       		.byte	0
 9428 0078 00       		.byte	0
 9429 0079 0C       		.uleb128 0xc
 9430 007a 0D       		.uleb128 0xd
 9431 007b 00       		.byte	0
 9432 007c 03       		.uleb128 0x3
 9433 007d 0E       		.uleb128 0xe
 9434 007e 3A       		.uleb128 0x3a
 9435 007f 0B       		.uleb128 0xb
 9436 0080 3B       		.uleb128 0x3b
 9437 0081 0B       		.uleb128 0xb
 9438 0082 49       		.uleb128 0x49
 9439 0083 13       		.uleb128 0x13
 9440 0084 38       		.uleb128 0x38
 9441 0085 05       		.uleb128 0x5
 9442 0086 00       		.byte	0
 9443 0087 00       		.byte	0
 9444 0088 0D       		.uleb128 0xd
 9445 0089 21       		.uleb128 0x21
 9446 008a 00       		.byte	0
 9447 008b 49       		.uleb128 0x49
 9448 008c 13       		.uleb128 0x13
 9449 008d 2F       		.uleb128 0x2f
 9450 008e 05       		.uleb128 0x5
 9451 008f 00       		.byte	0
 9452 0090 00       		.byte	0
 9453 0091 0E       		.uleb128 0xe
 9454 0092 13       		.uleb128 0x13
 9455 0093 01       		.byte	0x1
 9456 0094 0B       		.uleb128 0xb
 9457 0095 0B       		.uleb128 0xb
 9458 0096 3A       		.uleb128 0x3a
 9459 0097 0B       		.uleb128 0xb
 9460 0098 3B       		.uleb128 0x3b
 9461 0099 0B       		.uleb128 0xb
 9462 009a 01       		.uleb128 0x1
 9463 009b 13       		.uleb128 0x13
 9464 009c 00       		.byte	0
 9465 009d 00       		.byte	0
 9466 009e 0F       		.uleb128 0xf
 9467 009f 04       		.uleb128 0x4
 9468 00a0 01       		.byte	0x1
 9469 00a1 0B       		.uleb128 0xb
 9470 00a2 0B       		.uleb128 0xb
ARM GAS  C:\Users\D4DE~1\AppData\Local\Temp\cccuUyWy.s 			page 202


 9471 00a3 49       		.uleb128 0x49
 9472 00a4 13       		.uleb128 0x13
 9473 00a5 3A       		.uleb128 0x3a
 9474 00a6 0B       		.uleb128 0xb
 9475 00a7 3B       		.uleb128 0x3b
 9476 00a8 0B       		.uleb128 0xb
 9477 00a9 01       		.uleb128 0x1
 9478 00aa 13       		.uleb128 0x13
 9479 00ab 00       		.byte	0
 9480 00ac 00       		.byte	0
 9481 00ad 10       		.uleb128 0x10
 9482 00ae 28       		.uleb128 0x28
 9483 00af 00       		.byte	0
 9484 00b0 03       		.uleb128 0x3
 9485 00b1 0E       		.uleb128 0xe
 9486 00b2 1C       		.uleb128 0x1c
 9487 00b3 0D       		.uleb128 0xd
 9488 00b4 00       		.byte	0
 9489 00b5 00       		.byte	0
 9490 00b6 11       		.uleb128 0x11
 9491 00b7 28       		.uleb128 0x28
 9492 00b8 00       		.byte	0
 9493 00b9 03       		.uleb128 0x3
 9494 00ba 0E       		.uleb128 0xe
 9495 00bb 1C       		.uleb128 0x1c
 9496 00bc 0B       		.uleb128 0xb
 9497 00bd 00       		.byte	0
 9498 00be 00       		.byte	0
 9499 00bf 12       		.uleb128 0x12
 9500 00c0 16       		.uleb128 0x16
 9501 00c1 00       		.byte	0
 9502 00c2 03       		.uleb128 0x3
 9503 00c3 0E       		.uleb128 0xe
 9504 00c4 3A       		.uleb128 0x3a
 9505 00c5 0B       		.uleb128 0xb
 9506 00c6 3B       		.uleb128 0x3b
 9507 00c7 05       		.uleb128 0x5
 9508 00c8 49       		.uleb128 0x49
 9509 00c9 13       		.uleb128 0x13
 9510 00ca 00       		.byte	0
 9511 00cb 00       		.byte	0
 9512 00cc 13       		.uleb128 0x13
 9513 00cd 13       		.uleb128 0x13
 9514 00ce 01       		.byte	0x1
 9515 00cf 0B       		.uleb128 0xb
 9516 00d0 0B       		.uleb128 0xb
 9517 00d1 3A       		.uleb128 0x3a
 9518 00d2 0B       		.uleb128 0xb
 9519 00d3 3B       		.uleb128 0x3b
 9520 00d4 05       		.uleb128 0x5
 9521 00d5 01       		.uleb128 0x1
 9522 00d6 13       		.uleb128 0x13
 9523 00d7 00       		.byte	0
 9524 00d8 00       		.byte	0
 9525 00d9 14       		.uleb128 0x14
 9526 00da 0D       		.uleb128 0xd
 9527 00db 00       		.byte	0
ARM GAS  C:\Users\D4DE~1\AppData\Local\Temp\cccuUyWy.s 			page 203


 9528 00dc 03       		.uleb128 0x3
 9529 00dd 0E       		.uleb128 0xe
 9530 00de 3A       		.uleb128 0x3a
 9531 00df 0B       		.uleb128 0xb
 9532 00e0 3B       		.uleb128 0x3b
 9533 00e1 05       		.uleb128 0x5
 9534 00e2 49       		.uleb128 0x49
 9535 00e3 13       		.uleb128 0x13
 9536 00e4 38       		.uleb128 0x38
 9537 00e5 0B       		.uleb128 0xb
 9538 00e6 00       		.byte	0
 9539 00e7 00       		.byte	0
 9540 00e8 15       		.uleb128 0x15
 9541 00e9 04       		.uleb128 0x4
 9542 00ea 01       		.byte	0x1
 9543 00eb 0B       		.uleb128 0xb
 9544 00ec 0B       		.uleb128 0xb
 9545 00ed 49       		.uleb128 0x49
 9546 00ee 13       		.uleb128 0x13
 9547 00ef 3A       		.uleb128 0x3a
 9548 00f0 0B       		.uleb128 0xb
 9549 00f1 3B       		.uleb128 0x3b
 9550 00f2 05       		.uleb128 0x5
 9551 00f3 01       		.uleb128 0x1
 9552 00f4 13       		.uleb128 0x13
 9553 00f5 00       		.byte	0
 9554 00f6 00       		.byte	0
 9555 00f7 16       		.uleb128 0x16
 9556 00f8 28       		.uleb128 0x28
 9557 00f9 00       		.byte	0
 9558 00fa 03       		.uleb128 0x3
 9559 00fb 0E       		.uleb128 0xe
 9560 00fc 1C       		.uleb128 0x1c
 9561 00fd 05       		.uleb128 0x5
 9562 00fe 00       		.byte	0
 9563 00ff 00       		.byte	0
 9564 0100 17       		.uleb128 0x17
 9565 0101 28       		.uleb128 0x28
 9566 0102 00       		.byte	0
 9567 0103 03       		.uleb128 0x3
 9568 0104 0E       		.uleb128 0xe
 9569 0105 1C       		.uleb128 0x1c
 9570 0106 06       		.uleb128 0x6
 9571 0107 00       		.byte	0
 9572 0108 00       		.byte	0
 9573 0109 18       		.uleb128 0x18
 9574 010a 0F       		.uleb128 0xf
 9575 010b 00       		.byte	0
 9576 010c 0B       		.uleb128 0xb
 9577 010d 0B       		.uleb128 0xb
 9578 010e 49       		.uleb128 0x49
 9579 010f 13       		.uleb128 0x13
 9580 0110 00       		.byte	0
 9581 0111 00       		.byte	0
 9582 0112 19       		.uleb128 0x19
 9583 0113 17       		.uleb128 0x17
 9584 0114 01       		.byte	0x1
ARM GAS  C:\Users\D4DE~1\AppData\Local\Temp\cccuUyWy.s 			page 204


 9585 0115 0B       		.uleb128 0xb
 9586 0116 0B       		.uleb128 0xb
 9587 0117 3A       		.uleb128 0x3a
 9588 0118 0B       		.uleb128 0xb
 9589 0119 3B       		.uleb128 0x3b
 9590 011a 05       		.uleb128 0x5
 9591 011b 01       		.uleb128 0x1
 9592 011c 13       		.uleb128 0x13
 9593 011d 00       		.byte	0
 9594 011e 00       		.byte	0
 9595 011f 1A       		.uleb128 0x1a
 9596 0120 0D       		.uleb128 0xd
 9597 0121 00       		.byte	0
 9598 0122 03       		.uleb128 0x3
 9599 0123 0E       		.uleb128 0xe
 9600 0124 3A       		.uleb128 0x3a
 9601 0125 0B       		.uleb128 0xb
 9602 0126 3B       		.uleb128 0x3b
 9603 0127 05       		.uleb128 0x5
 9604 0128 49       		.uleb128 0x49
 9605 0129 13       		.uleb128 0x13
 9606 012a 00       		.byte	0
 9607 012b 00       		.byte	0
 9608 012c 1B       		.uleb128 0x1b
 9609 012d 0D       		.uleb128 0xd
 9610 012e 00       		.byte	0
 9611 012f 03       		.uleb128 0x3
 9612 0130 08       		.uleb128 0x8
 9613 0131 3A       		.uleb128 0x3a
 9614 0132 0B       		.uleb128 0xb
 9615 0133 3B       		.uleb128 0x3b
 9616 0134 05       		.uleb128 0x5
 9617 0135 49       		.uleb128 0x49
 9618 0136 13       		.uleb128 0x13
 9619 0137 38       		.uleb128 0x38
 9620 0138 0B       		.uleb128 0xb
 9621 0139 00       		.byte	0
 9622 013a 00       		.byte	0
 9623 013b 1C       		.uleb128 0x1c
 9624 013c 17       		.uleb128 0x17
 9625 013d 01       		.byte	0x1
 9626 013e 0B       		.uleb128 0xb
 9627 013f 0B       		.uleb128 0xb
 9628 0140 3A       		.uleb128 0x3a
 9629 0141 0B       		.uleb128 0xb
 9630 0142 3B       		.uleb128 0x3b
 9631 0143 0B       		.uleb128 0xb
 9632 0144 01       		.uleb128 0x1
 9633 0145 13       		.uleb128 0x13
 9634 0146 00       		.byte	0
 9635 0147 00       		.byte	0
 9636 0148 1D       		.uleb128 0x1d
 9637 0149 0D       		.uleb128 0xd
 9638 014a 00       		.byte	0
 9639 014b 03       		.uleb128 0x3
 9640 014c 0E       		.uleb128 0xe
 9641 014d 3A       		.uleb128 0x3a
ARM GAS  C:\Users\D4DE~1\AppData\Local\Temp\cccuUyWy.s 			page 205


 9642 014e 0B       		.uleb128 0xb
 9643 014f 3B       		.uleb128 0x3b
 9644 0150 0B       		.uleb128 0xb
 9645 0151 49       		.uleb128 0x49
 9646 0152 13       		.uleb128 0x13
 9647 0153 00       		.byte	0
 9648 0154 00       		.byte	0
 9649 0155 1E       		.uleb128 0x1e
 9650 0156 15       		.uleb128 0x15
 9651 0157 01       		.byte	0x1
 9652 0158 27       		.uleb128 0x27
 9653 0159 19       		.uleb128 0x19
 9654 015a 01       		.uleb128 0x1
 9655 015b 13       		.uleb128 0x13
 9656 015c 00       		.byte	0
 9657 015d 00       		.byte	0
 9658 015e 1F       		.uleb128 0x1f
 9659 015f 05       		.uleb128 0x5
 9660 0160 00       		.byte	0
 9661 0161 49       		.uleb128 0x49
 9662 0162 13       		.uleb128 0x13
 9663 0163 00       		.byte	0
 9664 0164 00       		.byte	0
 9665 0165 20       		.uleb128 0x20
 9666 0166 13       		.uleb128 0x13
 9667 0167 01       		.byte	0x1
 9668 0168 0B       		.uleb128 0xb
 9669 0169 05       		.uleb128 0x5
 9670 016a 3A       		.uleb128 0x3a
 9671 016b 0B       		.uleb128 0xb
 9672 016c 3B       		.uleb128 0x3b
 9673 016d 05       		.uleb128 0x5
 9674 016e 01       		.uleb128 0x1
 9675 016f 13       		.uleb128 0x13
 9676 0170 00       		.byte	0
 9677 0171 00       		.byte	0
 9678 0172 21       		.uleb128 0x21
 9679 0173 0D       		.uleb128 0xd
 9680 0174 00       		.byte	0
 9681 0175 03       		.uleb128 0x3
 9682 0176 0E       		.uleb128 0xe
 9683 0177 3A       		.uleb128 0x3a
 9684 0178 0B       		.uleb128 0xb
 9685 0179 3B       		.uleb128 0x3b
 9686 017a 05       		.uleb128 0x5
 9687 017b 49       		.uleb128 0x49
 9688 017c 13       		.uleb128 0x13
 9689 017d 38       		.uleb128 0x38
 9690 017e 05       		.uleb128 0x5
 9691 017f 00       		.byte	0
 9692 0180 00       		.byte	0
 9693 0181 22       		.uleb128 0x22
 9694 0182 15       		.uleb128 0x15
 9695 0183 01       		.byte	0x1
 9696 0184 27       		.uleb128 0x27
 9697 0185 19       		.uleb128 0x19
 9698 0186 49       		.uleb128 0x49
ARM GAS  C:\Users\D4DE~1\AppData\Local\Temp\cccuUyWy.s 			page 206


 9699 0187 13       		.uleb128 0x13
 9700 0188 01       		.uleb128 0x1
 9701 0189 13       		.uleb128 0x13
 9702 018a 00       		.byte	0
 9703 018b 00       		.byte	0
 9704 018c 23       		.uleb128 0x23
 9705 018d 2E       		.uleb128 0x2e
 9706 018e 01       		.byte	0x1
 9707 018f 03       		.uleb128 0x3
 9708 0190 0E       		.uleb128 0xe
 9709 0191 3A       		.uleb128 0x3a
 9710 0192 0B       		.uleb128 0xb
 9711 0193 3B       		.uleb128 0x3b
 9712 0194 05       		.uleb128 0x5
 9713 0195 27       		.uleb128 0x27
 9714 0196 19       		.uleb128 0x19
 9715 0197 49       		.uleb128 0x49
 9716 0198 13       		.uleb128 0x13
 9717 0199 20       		.uleb128 0x20
 9718 019a 0B       		.uleb128 0xb
 9719 019b 01       		.uleb128 0x1
 9720 019c 13       		.uleb128 0x13
 9721 019d 00       		.byte	0
 9722 019e 00       		.byte	0
 9723 019f 24       		.uleb128 0x24
 9724 01a0 05       		.uleb128 0x5
 9725 01a1 00       		.byte	0
 9726 01a2 03       		.uleb128 0x3
 9727 01a3 0E       		.uleb128 0xe
 9728 01a4 3A       		.uleb128 0x3a
 9729 01a5 0B       		.uleb128 0xb
 9730 01a6 3B       		.uleb128 0x3b
 9731 01a7 05       		.uleb128 0x5
 9732 01a8 49       		.uleb128 0x49
 9733 01a9 13       		.uleb128 0x13
 9734 01aa 00       		.byte	0
 9735 01ab 00       		.byte	0
 9736 01ac 25       		.uleb128 0x25
 9737 01ad 2E       		.uleb128 0x2e
 9738 01ae 01       		.byte	0x1
 9739 01af 03       		.uleb128 0x3
 9740 01b0 0E       		.uleb128 0xe
 9741 01b1 3A       		.uleb128 0x3a
 9742 01b2 0B       		.uleb128 0xb
 9743 01b3 3B       		.uleb128 0x3b
 9744 01b4 05       		.uleb128 0x5
 9745 01b5 27       		.uleb128 0x27
 9746 01b6 19       		.uleb128 0x19
 9747 01b7 20       		.uleb128 0x20
 9748 01b8 0B       		.uleb128 0xb
 9749 01b9 01       		.uleb128 0x1
 9750 01ba 13       		.uleb128 0x13
 9751 01bb 00       		.byte	0
 9752 01bc 00       		.byte	0
 9753 01bd 26       		.uleb128 0x26
 9754 01be 2E       		.uleb128 0x2e
 9755 01bf 00       		.byte	0
ARM GAS  C:\Users\D4DE~1\AppData\Local\Temp\cccuUyWy.s 			page 207


 9756 01c0 03       		.uleb128 0x3
 9757 01c1 0E       		.uleb128 0xe
 9758 01c2 3A       		.uleb128 0x3a
 9759 01c3 0B       		.uleb128 0xb
 9760 01c4 3B       		.uleb128 0x3b
 9761 01c5 05       		.uleb128 0x5
 9762 01c6 27       		.uleb128 0x27
 9763 01c7 19       		.uleb128 0x19
 9764 01c8 49       		.uleb128 0x49
 9765 01c9 13       		.uleb128 0x13
 9766 01ca 20       		.uleb128 0x20
 9767 01cb 0B       		.uleb128 0xb
 9768 01cc 00       		.byte	0
 9769 01cd 00       		.byte	0
 9770 01ce 27       		.uleb128 0x27
 9771 01cf 2E       		.uleb128 0x2e
 9772 01d0 01       		.byte	0x1
 9773 01d1 03       		.uleb128 0x3
 9774 01d2 0E       		.uleb128 0xe
 9775 01d3 3A       		.uleb128 0x3a
 9776 01d4 0B       		.uleb128 0xb
 9777 01d5 3B       		.uleb128 0x3b
 9778 01d6 0B       		.uleb128 0xb
 9779 01d7 27       		.uleb128 0x27
 9780 01d8 19       		.uleb128 0x19
 9781 01d9 11       		.uleb128 0x11
 9782 01da 01       		.uleb128 0x1
 9783 01db 12       		.uleb128 0x12
 9784 01dc 06       		.uleb128 0x6
 9785 01dd 40       		.uleb128 0x40
 9786 01de 18       		.uleb128 0x18
 9787 01df 9742     		.uleb128 0x2117
 9788 01e1 19       		.uleb128 0x19
 9789 01e2 01       		.uleb128 0x1
 9790 01e3 13       		.uleb128 0x13
 9791 01e4 00       		.byte	0
 9792 01e5 00       		.byte	0
 9793 01e6 28       		.uleb128 0x28
 9794 01e7 05       		.uleb128 0x5
 9795 01e8 00       		.byte	0
 9796 01e9 03       		.uleb128 0x3
 9797 01ea 0E       		.uleb128 0xe
 9798 01eb 3A       		.uleb128 0x3a
 9799 01ec 0B       		.uleb128 0xb
 9800 01ed 3B       		.uleb128 0x3b
 9801 01ee 0B       		.uleb128 0xb
 9802 01ef 49       		.uleb128 0x49
 9803 01f0 13       		.uleb128 0x13
 9804 01f1 02       		.uleb128 0x2
 9805 01f2 17       		.uleb128 0x17
 9806 01f3 00       		.byte	0
 9807 01f4 00       		.byte	0
 9808 01f5 29       		.uleb128 0x29
 9809 01f6 34       		.uleb128 0x34
 9810 01f7 00       		.byte	0
 9811 01f8 03       		.uleb128 0x3
 9812 01f9 0E       		.uleb128 0xe
ARM GAS  C:\Users\D4DE~1\AppData\Local\Temp\cccuUyWy.s 			page 208


 9813 01fa 3A       		.uleb128 0x3a
 9814 01fb 0B       		.uleb128 0xb
 9815 01fc 3B       		.uleb128 0x3b
 9816 01fd 0B       		.uleb128 0xb
 9817 01fe 49       		.uleb128 0x49
 9818 01ff 13       		.uleb128 0x13
 9819 0200 02       		.uleb128 0x2
 9820 0201 18       		.uleb128 0x18
 9821 0202 00       		.byte	0
 9822 0203 00       		.byte	0
 9823 0204 2A       		.uleb128 0x2a
 9824 0205 898201   		.uleb128 0x4109
 9825 0208 01       		.byte	0x1
 9826 0209 11       		.uleb128 0x11
 9827 020a 01       		.uleb128 0x1
 9828 020b 31       		.uleb128 0x31
 9829 020c 13       		.uleb128 0x13
 9830 020d 01       		.uleb128 0x1
 9831 020e 13       		.uleb128 0x13
 9832 020f 00       		.byte	0
 9833 0210 00       		.byte	0
 9834 0211 2B       		.uleb128 0x2b
 9835 0212 8A8201   		.uleb128 0x410a
 9836 0215 00       		.byte	0
 9837 0216 02       		.uleb128 0x2
 9838 0217 18       		.uleb128 0x18
 9839 0218 9142     		.uleb128 0x2111
 9840 021a 18       		.uleb128 0x18
 9841 021b 00       		.byte	0
 9842 021c 00       		.byte	0
 9843 021d 2C       		.uleb128 0x2c
 9844 021e 898201   		.uleb128 0x4109
 9845 0221 00       		.byte	0
 9846 0222 11       		.uleb128 0x11
 9847 0223 01       		.uleb128 0x1
 9848 0224 31       		.uleb128 0x31
 9849 0225 13       		.uleb128 0x13
 9850 0226 00       		.byte	0
 9851 0227 00       		.byte	0
 9852 0228 2D       		.uleb128 0x2d
 9853 0229 2E       		.uleb128 0x2e
 9854 022a 01       		.byte	0x1
 9855 022b 3F       		.uleb128 0x3f
 9856 022c 19       		.uleb128 0x19
 9857 022d 03       		.uleb128 0x3
 9858 022e 0E       		.uleb128 0xe
 9859 022f 3A       		.uleb128 0x3a
 9860 0230 0B       		.uleb128 0xb
 9861 0231 3B       		.uleb128 0x3b
 9862 0232 0B       		.uleb128 0xb
 9863 0233 27       		.uleb128 0x27
 9864 0234 19       		.uleb128 0x19
 9865 0235 49       		.uleb128 0x49
 9866 0236 13       		.uleb128 0x13
 9867 0237 11       		.uleb128 0x11
 9868 0238 01       		.uleb128 0x1
 9869 0239 12       		.uleb128 0x12
ARM GAS  C:\Users\D4DE~1\AppData\Local\Temp\cccuUyWy.s 			page 209


 9870 023a 06       		.uleb128 0x6
 9871 023b 40       		.uleb128 0x40
 9872 023c 18       		.uleb128 0x18
 9873 023d 9742     		.uleb128 0x2117
 9874 023f 19       		.uleb128 0x19
 9875 0240 01       		.uleb128 0x1
 9876 0241 13       		.uleb128 0x13
 9877 0242 00       		.byte	0
 9878 0243 00       		.byte	0
 9879 0244 2E       		.uleb128 0x2e
 9880 0245 34       		.uleb128 0x34
 9881 0246 00       		.byte	0
 9882 0247 03       		.uleb128 0x3
 9883 0248 0E       		.uleb128 0xe
 9884 0249 3A       		.uleb128 0x3a
 9885 024a 0B       		.uleb128 0xb
 9886 024b 3B       		.uleb128 0x3b
 9887 024c 0B       		.uleb128 0xb
 9888 024d 49       		.uleb128 0x49
 9889 024e 13       		.uleb128 0x13
 9890 024f 02       		.uleb128 0x2
 9891 0250 17       		.uleb128 0x17
 9892 0251 00       		.byte	0
 9893 0252 00       		.byte	0
 9894 0253 2F       		.uleb128 0x2f
 9895 0254 0B       		.uleb128 0xb
 9896 0255 01       		.byte	0x1
 9897 0256 55       		.uleb128 0x55
 9898 0257 17       		.uleb128 0x17
 9899 0258 00       		.byte	0
 9900 0259 00       		.byte	0
 9901 025a 30       		.uleb128 0x30
 9902 025b 34       		.uleb128 0x34
 9903 025c 00       		.byte	0
 9904 025d 03       		.uleb128 0x3
 9905 025e 08       		.uleb128 0x8
 9906 025f 3A       		.uleb128 0x3a
 9907 0260 0B       		.uleb128 0xb
 9908 0261 3B       		.uleb128 0x3b
 9909 0262 0B       		.uleb128 0xb
 9910 0263 49       		.uleb128 0x49
 9911 0264 13       		.uleb128 0x13
 9912 0265 02       		.uleb128 0x2
 9913 0266 17       		.uleb128 0x17
 9914 0267 00       		.byte	0
 9915 0268 00       		.byte	0
 9916 0269 31       		.uleb128 0x31
 9917 026a 898201   		.uleb128 0x4109
 9918 026d 01       		.byte	0x1
 9919 026e 11       		.uleb128 0x11
 9920 026f 01       		.uleb128 0x1
 9921 0270 00       		.byte	0
 9922 0271 00       		.byte	0
 9923 0272 32       		.uleb128 0x32
 9924 0273 2E       		.uleb128 0x2e
 9925 0274 01       		.byte	0x1
 9926 0275 3F       		.uleb128 0x3f
ARM GAS  C:\Users\D4DE~1\AppData\Local\Temp\cccuUyWy.s 			page 210


 9927 0276 19       		.uleb128 0x19
 9928 0277 03       		.uleb128 0x3
 9929 0278 0E       		.uleb128 0xe
 9930 0279 3A       		.uleb128 0x3a
 9931 027a 0B       		.uleb128 0xb
 9932 027b 3B       		.uleb128 0x3b
 9933 027c 05       		.uleb128 0x5
 9934 027d 27       		.uleb128 0x27
 9935 027e 19       		.uleb128 0x19
 9936 027f 49       		.uleb128 0x49
 9937 0280 13       		.uleb128 0x13
 9938 0281 11       		.uleb128 0x11
 9939 0282 01       		.uleb128 0x1
 9940 0283 12       		.uleb128 0x12
 9941 0284 06       		.uleb128 0x6
 9942 0285 40       		.uleb128 0x40
 9943 0286 18       		.uleb128 0x18
 9944 0287 9742     		.uleb128 0x2117
 9945 0289 19       		.uleb128 0x19
 9946 028a 01       		.uleb128 0x1
 9947 028b 13       		.uleb128 0x13
 9948 028c 00       		.byte	0
 9949 028d 00       		.byte	0
 9950 028e 33       		.uleb128 0x33
 9951 028f 05       		.uleb128 0x5
 9952 0290 00       		.byte	0
 9953 0291 03       		.uleb128 0x3
 9954 0292 0E       		.uleb128 0xe
 9955 0293 3A       		.uleb128 0x3a
 9956 0294 0B       		.uleb128 0xb
 9957 0295 3B       		.uleb128 0x3b
 9958 0296 05       		.uleb128 0x5
 9959 0297 49       		.uleb128 0x49
 9960 0298 13       		.uleb128 0x13
 9961 0299 02       		.uleb128 0x2
 9962 029a 17       		.uleb128 0x17
 9963 029b 00       		.byte	0
 9964 029c 00       		.byte	0
 9965 029d 34       		.uleb128 0x34
 9966 029e 34       		.uleb128 0x34
 9967 029f 00       		.byte	0
 9968 02a0 03       		.uleb128 0x3
 9969 02a1 0E       		.uleb128 0xe
 9970 02a2 3A       		.uleb128 0x3a
 9971 02a3 0B       		.uleb128 0xb
 9972 02a4 3B       		.uleb128 0x3b
 9973 02a5 05       		.uleb128 0x5
 9974 02a6 49       		.uleb128 0x49
 9975 02a7 13       		.uleb128 0x13
 9976 02a8 02       		.uleb128 0x2
 9977 02a9 17       		.uleb128 0x17
 9978 02aa 00       		.byte	0
 9979 02ab 00       		.byte	0
 9980 02ac 35       		.uleb128 0x35
 9981 02ad 34       		.uleb128 0x34
 9982 02ae 00       		.byte	0
 9983 02af 03       		.uleb128 0x3
ARM GAS  C:\Users\D4DE~1\AppData\Local\Temp\cccuUyWy.s 			page 211


 9984 02b0 08       		.uleb128 0x8
 9985 02b1 3A       		.uleb128 0x3a
 9986 02b2 0B       		.uleb128 0xb
 9987 02b3 3B       		.uleb128 0x3b
 9988 02b4 05       		.uleb128 0x5
 9989 02b5 49       		.uleb128 0x49
 9990 02b6 13       		.uleb128 0x13
 9991 02b7 02       		.uleb128 0x2
 9992 02b8 17       		.uleb128 0x17
 9993 02b9 00       		.byte	0
 9994 02ba 00       		.byte	0
 9995 02bb 36       		.uleb128 0x36
 9996 02bc 34       		.uleb128 0x34
 9997 02bd 00       		.byte	0
 9998 02be 03       		.uleb128 0x3
 9999 02bf 08       		.uleb128 0x8
 10000 02c0 3A       		.uleb128 0x3a
 10001 02c1 0B       		.uleb128 0xb
 10002 02c2 3B       		.uleb128 0x3b
 10003 02c3 05       		.uleb128 0x5
 10004 02c4 49       		.uleb128 0x49
 10005 02c5 13       		.uleb128 0x13
 10006 02c6 00       		.byte	0
 10007 02c7 00       		.byte	0
 10008 02c8 37       		.uleb128 0x37
 10009 02c9 34       		.uleb128 0x34
 10010 02ca 00       		.byte	0
 10011 02cb 03       		.uleb128 0x3
 10012 02cc 0E       		.uleb128 0xe
 10013 02cd 3A       		.uleb128 0x3a
 10014 02ce 0B       		.uleb128 0xb
 10015 02cf 3B       		.uleb128 0x3b
 10016 02d0 05       		.uleb128 0x5
 10017 02d1 49       		.uleb128 0x49
 10018 02d2 13       		.uleb128 0x13
 10019 02d3 00       		.byte	0
 10020 02d4 00       		.byte	0
 10021 02d5 38       		.uleb128 0x38
 10022 02d6 2E       		.uleb128 0x2e
 10023 02d7 01       		.byte	0x1
 10024 02d8 3F       		.uleb128 0x3f
 10025 02d9 19       		.uleb128 0x19
 10026 02da 03       		.uleb128 0x3
 10027 02db 0E       		.uleb128 0xe
 10028 02dc 3A       		.uleb128 0x3a
 10029 02dd 0B       		.uleb128 0xb
 10030 02de 3B       		.uleb128 0x3b
 10031 02df 05       		.uleb128 0x5
 10032 02e0 27       		.uleb128 0x27
 10033 02e1 19       		.uleb128 0x19
 10034 02e2 11       		.uleb128 0x11
 10035 02e3 01       		.uleb128 0x1
 10036 02e4 12       		.uleb128 0x12
 10037 02e5 06       		.uleb128 0x6
 10038 02e6 40       		.uleb128 0x40
 10039 02e7 18       		.uleb128 0x18
 10040 02e8 9742     		.uleb128 0x2117
ARM GAS  C:\Users\D4DE~1\AppData\Local\Temp\cccuUyWy.s 			page 212


 10041 02ea 19       		.uleb128 0x19
 10042 02eb 01       		.uleb128 0x1
 10043 02ec 13       		.uleb128 0x13
 10044 02ed 00       		.byte	0
 10045 02ee 00       		.byte	0
 10046 02ef 39       		.uleb128 0x39
 10047 02f0 0B       		.uleb128 0xb
 10048 02f1 01       		.byte	0x1
 10049 02f2 11       		.uleb128 0x11
 10050 02f3 01       		.uleb128 0x1
 10051 02f4 12       		.uleb128 0x12
 10052 02f5 06       		.uleb128 0x6
 10053 02f6 01       		.uleb128 0x1
 10054 02f7 13       		.uleb128 0x13
 10055 02f8 00       		.byte	0
 10056 02f9 00       		.byte	0
 10057 02fa 3A       		.uleb128 0x3a
 10058 02fb 898201   		.uleb128 0x4109
 10059 02fe 01       		.byte	0x1
 10060 02ff 11       		.uleb128 0x11
 10061 0300 01       		.uleb128 0x1
 10062 0301 31       		.uleb128 0x31
 10063 0302 13       		.uleb128 0x13
 10064 0303 00       		.byte	0
 10065 0304 00       		.byte	0
 10066 0305 3B       		.uleb128 0x3b
 10067 0306 34       		.uleb128 0x34
 10068 0307 00       		.byte	0
 10069 0308 03       		.uleb128 0x3
 10070 0309 0E       		.uleb128 0xe
 10071 030a 3A       		.uleb128 0x3a
 10072 030b 0B       		.uleb128 0xb
 10073 030c 3B       		.uleb128 0x3b
 10074 030d 05       		.uleb128 0x5
 10075 030e 49       		.uleb128 0x49
 10076 030f 13       		.uleb128 0x13
 10077 0310 02       		.uleb128 0x2
 10078 0311 18       		.uleb128 0x18
 10079 0312 00       		.byte	0
 10080 0313 00       		.byte	0
 10081 0314 3C       		.uleb128 0x3c
 10082 0315 1D       		.uleb128 0x1d
 10083 0316 01       		.byte	0x1
 10084 0317 31       		.uleb128 0x31
 10085 0318 13       		.uleb128 0x13
 10086 0319 11       		.uleb128 0x11
 10087 031a 01       		.uleb128 0x1
 10088 031b 12       		.uleb128 0x12
 10089 031c 06       		.uleb128 0x6
 10090 031d 58       		.uleb128 0x58
 10091 031e 0B       		.uleb128 0xb
 10092 031f 59       		.uleb128 0x59
 10093 0320 05       		.uleb128 0x5
 10094 0321 01       		.uleb128 0x1
 10095 0322 13       		.uleb128 0x13
 10096 0323 00       		.byte	0
 10097 0324 00       		.byte	0
ARM GAS  C:\Users\D4DE~1\AppData\Local\Temp\cccuUyWy.s 			page 213


 10098 0325 3D       		.uleb128 0x3d
 10099 0326 05       		.uleb128 0x5
 10100 0327 00       		.byte	0
 10101 0328 31       		.uleb128 0x31
 10102 0329 13       		.uleb128 0x13
 10103 032a 02       		.uleb128 0x2
 10104 032b 17       		.uleb128 0x17
 10105 032c 00       		.byte	0
 10106 032d 00       		.byte	0
 10107 032e 3E       		.uleb128 0x3e
 10108 032f 0B       		.uleb128 0xb
 10109 0330 01       		.byte	0x1
 10110 0331 11       		.uleb128 0x11
 10111 0332 01       		.uleb128 0x1
 10112 0333 12       		.uleb128 0x12
 10113 0334 06       		.uleb128 0x6
 10114 0335 00       		.byte	0
 10115 0336 00       		.byte	0
 10116 0337 3F       		.uleb128 0x3f
 10117 0338 34       		.uleb128 0x34
 10118 0339 00       		.byte	0
 10119 033a 31       		.uleb128 0x31
 10120 033b 13       		.uleb128 0x13
 10121 033c 02       		.uleb128 0x2
 10122 033d 17       		.uleb128 0x17
 10123 033e 00       		.byte	0
 10124 033f 00       		.byte	0
 10125 0340 40       		.uleb128 0x40
 10126 0341 34       		.uleb128 0x34
 10127 0342 00       		.byte	0
 10128 0343 31       		.uleb128 0x31
 10129 0344 13       		.uleb128 0x13
 10130 0345 02       		.uleb128 0x2
 10131 0346 18       		.uleb128 0x18
 10132 0347 00       		.byte	0
 10133 0348 00       		.byte	0
 10134 0349 41       		.uleb128 0x41
 10135 034a 05       		.uleb128 0x5
 10136 034b 00       		.byte	0
 10137 034c 31       		.uleb128 0x31
 10138 034d 13       		.uleb128 0x13
 10139 034e 02       		.uleb128 0x2
 10140 034f 18       		.uleb128 0x18
 10141 0350 00       		.byte	0
 10142 0351 00       		.byte	0
 10143 0352 42       		.uleb128 0x42
 10144 0353 1D       		.uleb128 0x1d
 10145 0354 01       		.byte	0x1
 10146 0355 31       		.uleb128 0x31
 10147 0356 13       		.uleb128 0x13
 10148 0357 11       		.uleb128 0x11
 10149 0358 01       		.uleb128 0x1
 10150 0359 12       		.uleb128 0x12
 10151 035a 06       		.uleb128 0x6
 10152 035b 58       		.uleb128 0x58
 10153 035c 0B       		.uleb128 0xb
 10154 035d 59       		.uleb128 0x59
ARM GAS  C:\Users\D4DE~1\AppData\Local\Temp\cccuUyWy.s 			page 214


 10155 035e 05       		.uleb128 0x5
 10156 035f 00       		.byte	0
 10157 0360 00       		.byte	0
 10158 0361 43       		.uleb128 0x43
 10159 0362 1D       		.uleb128 0x1d
 10160 0363 00       		.byte	0
 10161 0364 31       		.uleb128 0x31
 10162 0365 13       		.uleb128 0x13
 10163 0366 11       		.uleb128 0x11
 10164 0367 01       		.uleb128 0x1
 10165 0368 12       		.uleb128 0x12
 10166 0369 06       		.uleb128 0x6
 10167 036a 58       		.uleb128 0x58
 10168 036b 0B       		.uleb128 0xb
 10169 036c 59       		.uleb128 0x59
 10170 036d 05       		.uleb128 0x5
 10171 036e 00       		.byte	0
 10172 036f 00       		.byte	0
 10173 0370 44       		.uleb128 0x44
 10174 0371 898201   		.uleb128 0x4109
 10175 0374 01       		.byte	0x1
 10176 0375 11       		.uleb128 0x11
 10177 0376 01       		.uleb128 0x1
 10178 0377 01       		.uleb128 0x1
 10179 0378 13       		.uleb128 0x13
 10180 0379 00       		.byte	0
 10181 037a 00       		.byte	0
 10182 037b 45       		.uleb128 0x45
 10183 037c 34       		.uleb128 0x34
 10184 037d 00       		.byte	0
 10185 037e 03       		.uleb128 0x3
 10186 037f 0E       		.uleb128 0xe
 10187 0380 3A       		.uleb128 0x3a
 10188 0381 0B       		.uleb128 0xb
 10189 0382 3B       		.uleb128 0x3b
 10190 0383 0B       		.uleb128 0xb
 10191 0384 49       		.uleb128 0x49
 10192 0385 13       		.uleb128 0x13
 10193 0386 3F       		.uleb128 0x3f
 10194 0387 19       		.uleb128 0x19
 10195 0388 3C       		.uleb128 0x3c
 10196 0389 19       		.uleb128 0x19
 10197 038a 00       		.byte	0
 10198 038b 00       		.byte	0
 10199 038c 46       		.uleb128 0x46
 10200 038d 34       		.uleb128 0x34
 10201 038e 00       		.byte	0
 10202 038f 03       		.uleb128 0x3
 10203 0390 0E       		.uleb128 0xe
 10204 0391 3A       		.uleb128 0x3a
 10205 0392 0B       		.uleb128 0xb
 10206 0393 3B       		.uleb128 0x3b
 10207 0394 0B       		.uleb128 0xb
 10208 0395 49       		.uleb128 0x49
 10209 0396 13       		.uleb128 0x13
 10210 0397 3F       		.uleb128 0x3f
 10211 0398 19       		.uleb128 0x19
ARM GAS  C:\Users\D4DE~1\AppData\Local\Temp\cccuUyWy.s 			page 215


 10212 0399 02       		.uleb128 0x2
 10213 039a 18       		.uleb128 0x18
 10214 039b 00       		.byte	0
 10215 039c 00       		.byte	0
 10216 039d 47       		.uleb128 0x47
 10217 039e 34       		.uleb128 0x34
 10218 039f 00       		.byte	0
 10219 03a0 03       		.uleb128 0x3
 10220 03a1 0E       		.uleb128 0xe
 10221 03a2 3A       		.uleb128 0x3a
 10222 03a3 0B       		.uleb128 0xb
 10223 03a4 3B       		.uleb128 0x3b
 10224 03a5 05       		.uleb128 0x5
 10225 03a6 49       		.uleb128 0x49
 10226 03a7 13       		.uleb128 0x13
 10227 03a8 3F       		.uleb128 0x3f
 10228 03a9 19       		.uleb128 0x19
 10229 03aa 3C       		.uleb128 0x3c
 10230 03ab 19       		.uleb128 0x19
 10231 03ac 00       		.byte	0
 10232 03ad 00       		.byte	0
 10233 03ae 48       		.uleb128 0x48
 10234 03af 2E       		.uleb128 0x2e
 10235 03b0 00       		.byte	0
 10236 03b1 3F       		.uleb128 0x3f
 10237 03b2 19       		.uleb128 0x19
 10238 03b3 3C       		.uleb128 0x3c
 10239 03b4 19       		.uleb128 0x19
 10240 03b5 6E       		.uleb128 0x6e
 10241 03b6 0E       		.uleb128 0xe
 10242 03b7 03       		.uleb128 0x3
 10243 03b8 0E       		.uleb128 0xe
 10244 03b9 00       		.byte	0
 10245 03ba 00       		.byte	0
 10246 03bb 49       		.uleb128 0x49
 10247 03bc 2E       		.uleb128 0x2e
 10248 03bd 00       		.byte	0
 10249 03be 3F       		.uleb128 0x3f
 10250 03bf 19       		.uleb128 0x19
 10251 03c0 3C       		.uleb128 0x3c
 10252 03c1 19       		.uleb128 0x19
 10253 03c2 6E       		.uleb128 0x6e
 10254 03c3 0E       		.uleb128 0xe
 10255 03c4 03       		.uleb128 0x3
 10256 03c5 0E       		.uleb128 0xe
 10257 03c6 3A       		.uleb128 0x3a
 10258 03c7 0B       		.uleb128 0xb
 10259 03c8 3B       		.uleb128 0x3b
 10260 03c9 05       		.uleb128 0x5
 10261 03ca 00       		.byte	0
 10262 03cb 00       		.byte	0
 10263 03cc 4A       		.uleb128 0x4a
 10264 03cd 2E       		.uleb128 0x2e
 10265 03ce 00       		.byte	0
 10266 03cf 3F       		.uleb128 0x3f
 10267 03d0 19       		.uleb128 0x19
 10268 03d1 3C       		.uleb128 0x3c
ARM GAS  C:\Users\D4DE~1\AppData\Local\Temp\cccuUyWy.s 			page 216


 10269 03d2 19       		.uleb128 0x19
 10270 03d3 6E       		.uleb128 0x6e
 10271 03d4 0E       		.uleb128 0xe
 10272 03d5 03       		.uleb128 0x3
 10273 03d6 0E       		.uleb128 0xe
 10274 03d7 3A       		.uleb128 0x3a
 10275 03d8 0B       		.uleb128 0xb
 10276 03d9 3B       		.uleb128 0x3b
 10277 03da 0B       		.uleb128 0xb
 10278 03db 00       		.byte	0
 10279 03dc 00       		.byte	0
 10280 03dd 00       		.byte	0
 10281              		.section	.debug_loc,"",%progbits
 10282              	.Ldebug_loc0:
 10283              	.LLST0:
 10284 0000 00000000 		.4byte	.LVL0
 10285 0004 0E000000 		.4byte	.LVL2
 10286 0008 0100     		.2byte	0x1
 10287 000a 50       		.byte	0x50
 10288 000b 0E000000 		.4byte	.LVL2
 10289 000f 3E000000 		.4byte	.LVL6
 10290 0013 0100     		.2byte	0x1
 10291 0015 54       		.byte	0x54
 10292 0016 3E000000 		.4byte	.LVL6
 10293 001a 44000000 		.4byte	.LFE170
 10294 001e 0400     		.2byte	0x4
 10295 0020 F3       		.byte	0xf3
 10296 0021 01       		.uleb128 0x1
 10297 0022 50       		.byte	0x50
 10298 0023 9F       		.byte	0x9f
 10299 0024 00000000 		.4byte	0
 10300 0028 00000000 		.4byte	0
 10301              	.LLST1:
 10302 002c 00000000 		.4byte	.LVL0
 10303 0030 0C000000 		.4byte	.LVL1
 10304 0034 0100     		.2byte	0x1
 10305 0036 51       		.byte	0x51
 10306 0037 0C000000 		.4byte	.LVL1
 10307 003b 44000000 		.4byte	.LFE170
 10308 003f 0400     		.2byte	0x4
 10309 0041 F3       		.byte	0xf3
 10310 0042 01       		.uleb128 0x1
 10311 0043 51       		.byte	0x51
 10312 0044 9F       		.byte	0x9f
 10313 0045 00000000 		.4byte	0
 10314 0049 00000000 		.4byte	0
 10315              	.LLST2:
 10316 004d 00000000 		.4byte	.LVL7
 10317 0051 52000000 		.4byte	.LVL19
 10318 0055 0100     		.2byte	0x1
 10319 0057 50       		.byte	0x50
 10320 0058 52000000 		.4byte	.LVL19
 10321 005c 60000000 		.4byte	.LFE168
 10322 0060 0400     		.2byte	0x4
 10323 0062 F3       		.byte	0xf3
 10324 0063 01       		.uleb128 0x1
 10325 0064 50       		.byte	0x50
ARM GAS  C:\Users\D4DE~1\AppData\Local\Temp\cccuUyWy.s 			page 217


 10326 0065 9F       		.byte	0x9f
 10327 0066 00000000 		.4byte	0
 10328 006a 00000000 		.4byte	0
 10329              	.LLST3:
 10330 006e 02000000 		.4byte	.LVL8
 10331 0072 32000000 		.4byte	.LVL15
 10332 0076 0200     		.2byte	0x2
 10333 0078 30       		.byte	0x30
 10334 0079 9F       		.byte	0x9f
 10335 007a 32000000 		.4byte	.LVL15
 10336 007e 60000000 		.4byte	.LFE168
 10337 0082 0100     		.2byte	0x1
 10338 0084 53       		.byte	0x53
 10339 0085 00000000 		.4byte	0
 10340 0089 00000000 		.4byte	0
 10341              	.LLST4:
 10342 008d 02000000 		.4byte	.LVL8
 10343 0091 0C000000 		.4byte	.LVL9
 10344 0095 0200     		.2byte	0x2
 10345 0097 30       		.byte	0x30
 10346 0098 9F       		.byte	0x9f
 10347 0099 0C000000 		.4byte	.LVL9
 10348 009d 2A000000 		.4byte	.LVL13
 10349 00a1 0100     		.2byte	0x1
 10350 00a3 54       		.byte	0x54
 10351 00a4 2A000000 		.4byte	.LVL13
 10352 00a8 30000000 		.4byte	.LVL14
 10353 00ac 0200     		.2byte	0x2
 10354 00ae 30       		.byte	0x30
 10355 00af 9F       		.byte	0x9f
 10356 00b0 30000000 		.4byte	.LVL14
 10357 00b4 46000000 		.4byte	.LVL16
 10358 00b8 0100     		.2byte	0x1
 10359 00ba 54       		.byte	0x54
 10360 00bb 4E000000 		.4byte	.LVL17
 10361 00bf 50000000 		.4byte	.LVL18
 10362 00c3 0100     		.2byte	0x1
 10363 00c5 54       		.byte	0x54
 10364 00c6 00000000 		.4byte	0
 10365 00ca 00000000 		.4byte	0
 10366              	.LLST5:
 10367 00ce 0C000000 		.4byte	.LVL9
 10368 00d2 28000000 		.4byte	.LVL12
 10369 00d6 0100     		.2byte	0x1
 10370 00d8 53       		.byte	0x53
 10371 00d9 30000000 		.4byte	.LVL14
 10372 00dd 32000000 		.4byte	.LVL15
 10373 00e1 0100     		.2byte	0x1
 10374 00e3 53       		.byte	0x53
 10375 00e4 00000000 		.4byte	0
 10376 00e8 00000000 		.4byte	0
 10377              	.LLST6:
 10378 00ec 00000000 		.4byte	.LVL20
 10379 00f0 08000000 		.4byte	.LVL22
 10380 00f4 0100     		.2byte	0x1
 10381 00f6 50       		.byte	0x50
 10382 00f7 08000000 		.4byte	.LVL22
ARM GAS  C:\Users\D4DE~1\AppData\Local\Temp\cccuUyWy.s 			page 218


 10383 00fb 2A000000 		.4byte	.LVL29
 10384 00ff 0100     		.2byte	0x1
 10385 0101 56       		.byte	0x56
 10386 0102 2A000000 		.4byte	.LVL29
 10387 0106 34000000 		.4byte	.LFE169
 10388 010a 0400     		.2byte	0x4
 10389 010c F3       		.byte	0xf3
 10390 010d 01       		.uleb128 0x1
 10391 010e 50       		.byte	0x50
 10392 010f 9F       		.byte	0x9f
 10393 0110 00000000 		.4byte	0
 10394 0114 00000000 		.4byte	0
 10395              	.LLST7:
 10396 0118 00000000 		.4byte	.LVL20
 10397 011c 0C000000 		.4byte	.LVL23
 10398 0120 0100     		.2byte	0x1
 10399 0122 51       		.byte	0x51
 10400 0123 0C000000 		.4byte	.LVL23
 10401 0127 2A000000 		.4byte	.LVL28
 10402 012b 0100     		.2byte	0x1
 10403 012d 55       		.byte	0x55
 10404 012e 2A000000 		.4byte	.LVL28
 10405 0132 34000000 		.4byte	.LFE169
 10406 0136 0400     		.2byte	0x4
 10407 0138 F3       		.byte	0xf3
 10408 0139 01       		.uleb128 0x1
 10409 013a 51       		.byte	0x51
 10410 013b 9F       		.byte	0x9f
 10411 013c 00000000 		.4byte	0
 10412 0140 00000000 		.4byte	0
 10413              	.LLST8:
 10414 0144 06000000 		.4byte	.LVL21
 10415 0148 0C000000 		.4byte	.LVL23
 10416 014c 0200     		.2byte	0x2
 10417 014e 30       		.byte	0x30
 10418 014f 9F       		.byte	0x9f
 10419 0150 0C000000 		.4byte	.LVL23
 10420 0154 2A000000 		.4byte	.LVL27
 10421 0158 0100     		.2byte	0x1
 10422 015a 54       		.byte	0x54
 10423 015b 00000000 		.4byte	0
 10424 015f 00000000 		.4byte	0
 10425              	.LLST9:
 10426 0163 06000000 		.4byte	.LVL21
 10427 0167 0C000000 		.4byte	.LVL23
 10428 016b 0200     		.2byte	0x2
 10429 016d 30       		.byte	0x30
 10430 016e 9F       		.byte	0x9f
 10431 016f 0C000000 		.4byte	.LVL23
 10432 0173 16000000 		.4byte	.LVL24
 10433 0177 0100     		.2byte	0x1
 10434 0179 50       		.byte	0x50
 10435 017a 18000000 		.4byte	.LVL25
 10436 017e 34000000 		.4byte	.LFE169
 10437 0182 0100     		.2byte	0x1
 10438 0184 50       		.byte	0x50
 10439 0185 00000000 		.4byte	0
ARM GAS  C:\Users\D4DE~1\AppData\Local\Temp\cccuUyWy.s 			page 219


 10440 0189 00000000 		.4byte	0
 10441              	.LLST10:
 10442 018d 00000000 		.4byte	.LVL30
 10443 0191 08000000 		.4byte	.LVL31
 10444 0195 0100     		.2byte	0x1
 10445 0197 50       		.byte	0x50
 10446 0198 08000000 		.4byte	.LVL31
 10447 019c 0A000000 		.4byte	.LVL32
 10448 01a0 0400     		.2byte	0x4
 10449 01a2 F3       		.byte	0xf3
 10450 01a3 01       		.uleb128 0x1
 10451 01a4 50       		.byte	0x50
 10452 01a5 9F       		.byte	0x9f
 10453 01a6 0A000000 		.4byte	.LVL32
 10454 01aa 1C000000 		.4byte	.LVL36
 10455 01ae 0100     		.2byte	0x1
 10456 01b0 50       		.byte	0x50
 10457 01b1 1C000000 		.4byte	.LVL36
 10458 01b5 1E000000 		.4byte	.LVL37
 10459 01b9 0400     		.2byte	0x4
 10460 01bb F3       		.byte	0xf3
 10461 01bc 01       		.uleb128 0x1
 10462 01bd 50       		.byte	0x50
 10463 01be 9F       		.byte	0x9f
 10464 01bf 1E000000 		.4byte	.LVL37
 10465 01c3 20000000 		.4byte	.LVL38
 10466 01c7 0100     		.2byte	0x1
 10467 01c9 50       		.byte	0x50
 10468 01ca 20000000 		.4byte	.LVL38
 10469 01ce 22000000 		.4byte	.LFE172
 10470 01d2 0400     		.2byte	0x4
 10471 01d4 F3       		.byte	0xf3
 10472 01d5 01       		.uleb128 0x1
 10473 01d6 50       		.byte	0x50
 10474 01d7 9F       		.byte	0x9f
 10475 01d8 00000000 		.4byte	0
 10476 01dc 00000000 		.4byte	0
 10477              	.LLST11:
 10478 01e0 00000000 		.4byte	.LVL30
 10479 01e4 20000000 		.4byte	.LVL38
 10480 01e8 0200     		.2byte	0x2
 10481 01ea 30       		.byte	0x30
 10482 01eb 9F       		.byte	0x9f
 10483 01ec 20000000 		.4byte	.LVL38
 10484 01f0 22000000 		.4byte	.LFE172
 10485 01f4 0100     		.2byte	0x1
 10486 01f6 50       		.byte	0x50
 10487 01f7 00000000 		.4byte	0
 10488 01fb 00000000 		.4byte	0
 10489              	.LLST12:
 10490 01ff 0A000000 		.4byte	.LVL32
 10491 0203 14000000 		.4byte	.LVL34
 10492 0207 0100     		.2byte	0x1
 10493 0209 53       		.byte	0x53
 10494 020a 16000000 		.4byte	.LVL35
 10495 020e 20000000 		.4byte	.LVL38
 10496 0212 0100     		.2byte	0x1
ARM GAS  C:\Users\D4DE~1\AppData\Local\Temp\cccuUyWy.s 			page 220


 10497 0214 53       		.byte	0x53
 10498 0215 00000000 		.4byte	0
 10499 0219 00000000 		.4byte	0
 10500              	.LLST13:
 10501 021d 00000000 		.4byte	.LVL39
 10502 0221 F8000000 		.4byte	.LVL42
 10503 0225 0100     		.2byte	0x1
 10504 0227 50       		.byte	0x50
 10505 0228 F8000000 		.4byte	.LVL42
 10506 022c 08010000 		.4byte	.LVL44
 10507 0230 0400     		.2byte	0x4
 10508 0232 F3       		.byte	0xf3
 10509 0233 01       		.uleb128 0x1
 10510 0234 50       		.byte	0x50
 10511 0235 9F       		.byte	0x9f
 10512 0236 08010000 		.4byte	.LVL44
 10513 023a 0E010000 		.4byte	.LVL45
 10514 023e 0100     		.2byte	0x1
 10515 0240 50       		.byte	0x50
 10516 0241 0E010000 		.4byte	.LVL45
 10517 0245 C4010000 		.4byte	.LVL58
 10518 0249 0400     		.2byte	0x4
 10519 024b F3       		.byte	0xf3
 10520 024c 01       		.uleb128 0x1
 10521 024d 50       		.byte	0x50
 10522 024e 9F       		.byte	0x9f
 10523 024f C4010000 		.4byte	.LVL58
 10524 0253 D4010000 		.4byte	.LVL61
 10525 0257 0100     		.2byte	0x1
 10526 0259 50       		.byte	0x50
 10527 025a D4010000 		.4byte	.LVL61
 10528 025e E6010000 		.4byte	.LVL64
 10529 0262 0400     		.2byte	0x4
 10530 0264 F3       		.byte	0xf3
 10531 0265 01       		.uleb128 0x1
 10532 0266 50       		.byte	0x50
 10533 0267 9F       		.byte	0x9f
 10534 0268 E6010000 		.4byte	.LVL64
 10535 026c F8010000 		.4byte	.LVL65
 10536 0270 0100     		.2byte	0x1
 10537 0272 50       		.byte	0x50
 10538 0273 F8010000 		.4byte	.LVL65
 10539 0277 30020000 		.4byte	.LVL69
 10540 027b 0400     		.2byte	0x4
 10541 027d F3       		.byte	0xf3
 10542 027e 01       		.uleb128 0x1
 10543 027f 50       		.byte	0x50
 10544 0280 9F       		.byte	0x9f
 10545 0281 30020000 		.4byte	.LVL69
 10546 0285 35020000 		.4byte	.LVL70-1
 10547 0289 0100     		.2byte	0x1
 10548 028b 50       		.byte	0x50
 10549 028c 35020000 		.4byte	.LVL70-1
 10550 0290 38020000 		.4byte	.LVL71
 10551 0294 0400     		.2byte	0x4
 10552 0296 F3       		.byte	0xf3
 10553 0297 01       		.uleb128 0x1
ARM GAS  C:\Users\D4DE~1\AppData\Local\Temp\cccuUyWy.s 			page 221


 10554 0298 50       		.byte	0x50
 10555 0299 9F       		.byte	0x9f
 10556 029a 38020000 		.4byte	.LVL71
 10557 029e 44020000 		.4byte	.LVL73
 10558 02a2 0100     		.2byte	0x1
 10559 02a4 50       		.byte	0x50
 10560 02a5 44020000 		.4byte	.LVL73
 10561 02a9 B4020000 		.4byte	.LVL84
 10562 02ad 0400     		.2byte	0x4
 10563 02af F3       		.byte	0xf3
 10564 02b0 01       		.uleb128 0x1
 10565 02b1 50       		.byte	0x50
 10566 02b2 9F       		.byte	0x9f
 10567 02b3 B4020000 		.4byte	.LVL84
 10568 02b7 E8020000 		.4byte	.LVL87
 10569 02bb 0100     		.2byte	0x1
 10570 02bd 50       		.byte	0x50
 10571 02be E8020000 		.4byte	.LVL87
 10572 02c2 7C040000 		.4byte	.LVL109
 10573 02c6 0400     		.2byte	0x4
 10574 02c8 F3       		.byte	0xf3
 10575 02c9 01       		.uleb128 0x1
 10576 02ca 50       		.byte	0x50
 10577 02cb 9F       		.byte	0x9f
 10578 02cc 7C040000 		.4byte	.LVL109
 10579 02d0 81040000 		.4byte	.LVL110-1
 10580 02d4 0100     		.2byte	0x1
 10581 02d6 50       		.byte	0x50
 10582 02d7 81040000 		.4byte	.LVL110-1
 10583 02db 84040000 		.4byte	.LVL111
 10584 02df 0400     		.2byte	0x4
 10585 02e1 F3       		.byte	0xf3
 10586 02e2 01       		.uleb128 0x1
 10587 02e3 50       		.byte	0x50
 10588 02e4 9F       		.byte	0x9f
 10589 02e5 84040000 		.4byte	.LVL111
 10590 02e9 A2040000 		.4byte	.LVL115
 10591 02ed 0100     		.2byte	0x1
 10592 02ef 50       		.byte	0x50
 10593 02f0 A2040000 		.4byte	.LVL115
 10594 02f4 1A050000 		.4byte	.LVL123
 10595 02f8 0400     		.2byte	0x4
 10596 02fa F3       		.byte	0xf3
 10597 02fb 01       		.uleb128 0x1
 10598 02fc 50       		.byte	0x50
 10599 02fd 9F       		.byte	0x9f
 10600 02fe 1A050000 		.4byte	.LVL123
 10601 0302 27050000 		.4byte	.LVL124-1
 10602 0306 0100     		.2byte	0x1
 10603 0308 50       		.byte	0x50
 10604 0309 27050000 		.4byte	.LVL124-1
 10605 030d 9A050000 		.4byte	.LVL133
 10606 0311 0400     		.2byte	0x4
 10607 0313 F3       		.byte	0xf3
 10608 0314 01       		.uleb128 0x1
 10609 0315 50       		.byte	0x50
 10610 0316 9F       		.byte	0x9f
ARM GAS  C:\Users\D4DE~1\AppData\Local\Temp\cccuUyWy.s 			page 222


 10611 0317 9A050000 		.4byte	.LVL133
 10612 031b 9F050000 		.4byte	.LVL134-1
 10613 031f 0100     		.2byte	0x1
 10614 0321 50       		.byte	0x50
 10615 0322 9F050000 		.4byte	.LVL134-1
 10616 0326 A2050000 		.4byte	.LVL135
 10617 032a 0400     		.2byte	0x4
 10618 032c F3       		.byte	0xf3
 10619 032d 01       		.uleb128 0x1
 10620 032e 50       		.byte	0x50
 10621 032f 9F       		.byte	0x9f
 10622 0330 A2050000 		.4byte	.LVL135
 10623 0334 A8050000 		.4byte	.LVL136
 10624 0338 0100     		.2byte	0x1
 10625 033a 50       		.byte	0x50
 10626 033b A8050000 		.4byte	.LVL136
 10627 033f 48060000 		.4byte	.LVL146
 10628 0343 0400     		.2byte	0x4
 10629 0345 F3       		.byte	0xf3
 10630 0346 01       		.uleb128 0x1
 10631 0347 50       		.byte	0x50
 10632 0348 9F       		.byte	0x9f
 10633 0349 48060000 		.4byte	.LVL146
 10634 034d 50060000 		.4byte	.LVL147
 10635 0351 0100     		.2byte	0x1
 10636 0353 50       		.byte	0x50
 10637 0354 50060000 		.4byte	.LVL147
 10638 0358 80060000 		.4byte	.LVL151
 10639 035c 0400     		.2byte	0x4
 10640 035e F3       		.byte	0xf3
 10641 035f 01       		.uleb128 0x1
 10642 0360 50       		.byte	0x50
 10643 0361 9F       		.byte	0x9f
 10644 0362 80060000 		.4byte	.LVL151
 10645 0366 82060000 		.4byte	.LVL152
 10646 036a 0100     		.2byte	0x1
 10647 036c 50       		.byte	0x50
 10648 036d 82060000 		.4byte	.LVL152
 10649 0371 90060000 		.4byte	.LVL154
 10650 0375 0400     		.2byte	0x4
 10651 0377 F3       		.byte	0xf3
 10652 0378 01       		.uleb128 0x1
 10653 0379 50       		.byte	0x50
 10654 037a 9F       		.byte	0x9f
 10655 037b 90060000 		.4byte	.LVL154
 10656 037f 92060000 		.4byte	.LVL155
 10657 0383 0100     		.2byte	0x1
 10658 0385 50       		.byte	0x50
 10659 0386 92060000 		.4byte	.LVL155
 10660 038a F0060000 		.4byte	.LVL165
 10661 038e 0400     		.2byte	0x4
 10662 0390 F3       		.byte	0xf3
 10663 0391 01       		.uleb128 0x1
 10664 0392 50       		.byte	0x50
 10665 0393 9F       		.byte	0x9f
 10666 0394 F0060000 		.4byte	.LVL165
 10667 0398 F5060000 		.4byte	.LVL166-1
ARM GAS  C:\Users\D4DE~1\AppData\Local\Temp\cccuUyWy.s 			page 223


 10668 039c 0100     		.2byte	0x1
 10669 039e 50       		.byte	0x50
 10670 039f F5060000 		.4byte	.LVL166-1
 10671 03a3 F8060000 		.4byte	.LVL167
 10672 03a7 0400     		.2byte	0x4
 10673 03a9 F3       		.byte	0xf3
 10674 03aa 01       		.uleb128 0x1
 10675 03ab 50       		.byte	0x50
 10676 03ac 9F       		.byte	0x9f
 10677 03ad F8060000 		.4byte	.LVL167
 10678 03b1 FD060000 		.4byte	.LVL168-1
 10679 03b5 0100     		.2byte	0x1
 10680 03b7 50       		.byte	0x50
 10681 03b8 FD060000 		.4byte	.LVL168-1
 10682 03bc 00070000 		.4byte	.LVL169
 10683 03c0 0400     		.2byte	0x4
 10684 03c2 F3       		.byte	0xf3
 10685 03c3 01       		.uleb128 0x1
 10686 03c4 50       		.byte	0x50
 10687 03c5 9F       		.byte	0x9f
 10688 03c6 00070000 		.4byte	.LVL169
 10689 03ca 05070000 		.4byte	.LVL170-1
 10690 03ce 0100     		.2byte	0x1
 10691 03d0 50       		.byte	0x50
 10692 03d1 05070000 		.4byte	.LVL170-1
 10693 03d5 08070000 		.4byte	.LVL171
 10694 03d9 0400     		.2byte	0x4
 10695 03db F3       		.byte	0xf3
 10696 03dc 01       		.uleb128 0x1
 10697 03dd 50       		.byte	0x50
 10698 03de 9F       		.byte	0x9f
 10699 03df 08070000 		.4byte	.LVL171
 10700 03e3 0D070000 		.4byte	.LVL172-1
 10701 03e7 0100     		.2byte	0x1
 10702 03e9 50       		.byte	0x50
 10703 03ea 0D070000 		.4byte	.LVL172-1
 10704 03ee 60070000 		.4byte	.LVL173
 10705 03f2 0400     		.2byte	0x4
 10706 03f4 F3       		.byte	0xf3
 10707 03f5 01       		.uleb128 0x1
 10708 03f6 50       		.byte	0x50
 10709 03f7 9F       		.byte	0x9f
 10710 03f8 60070000 		.4byte	.LVL173
 10711 03fc 62070000 		.4byte	.LVL174
 10712 0400 0100     		.2byte	0x1
 10713 0402 50       		.byte	0x50
 10714 0403 62070000 		.4byte	.LVL174
 10715 0407 70070000 		.4byte	.LVL177
 10716 040b 0400     		.2byte	0x4
 10717 040d F3       		.byte	0xf3
 10718 040e 01       		.uleb128 0x1
 10719 040f 50       		.byte	0x50
 10720 0410 9F       		.byte	0x9f
 10721 0411 70070000 		.4byte	.LVL177
 10722 0415 7A070000 		.4byte	.LVL178
 10723 0419 0100     		.2byte	0x1
 10724 041b 50       		.byte	0x50
ARM GAS  C:\Users\D4DE~1\AppData\Local\Temp\cccuUyWy.s 			page 224


 10725 041c 7A070000 		.4byte	.LVL178
 10726 0420 AC070000 		.4byte	.LFE173
 10727 0424 0400     		.2byte	0x4
 10728 0426 F3       		.byte	0xf3
 10729 0427 01       		.uleb128 0x1
 10730 0428 50       		.byte	0x50
 10731 0429 9F       		.byte	0x9f
 10732 042a 00000000 		.4byte	0
 10733 042e 00000000 		.4byte	0
 10734              	.LLST14:
 10735 0432 00000000 		.4byte	.LVL39
 10736 0436 10000000 		.4byte	.LVL40
 10737 043a 0100     		.2byte	0x1
 10738 043c 51       		.byte	0x51
 10739 043d 10000000 		.4byte	.LVL40
 10740 0441 9A070000 		.4byte	.LVL180
 10741 0445 0100     		.2byte	0x1
 10742 0447 55       		.byte	0x55
 10743 0448 9A070000 		.4byte	.LVL180
 10744 044c AC070000 		.4byte	.LFE173
 10745 0450 0400     		.2byte	0x4
 10746 0452 F3       		.byte	0xf3
 10747 0453 01       		.uleb128 0x1
 10748 0454 51       		.byte	0x51
 10749 0455 9F       		.byte	0x9f
 10750 0456 00000000 		.4byte	0
 10751 045a 00000000 		.4byte	0
 10752              	.LLST15:
 10753 045e F6000000 		.4byte	.LVL41
 10754 0462 08010000 		.4byte	.LVL44
 10755 0466 0100     		.2byte	0x1
 10756 0468 55       		.byte	0x55
 10757 0469 00000000 		.4byte	0
 10758 046d 00000000 		.4byte	0
 10759              	.LLST16:
 10760 0471 6C010000 		.4byte	.LVL50
 10761 0475 80010000 		.4byte	.LVL51
 10762 0479 0100     		.2byte	0x1
 10763 047b 53       		.byte	0x53
 10764 047c 00000000 		.4byte	0
 10765 0480 00000000 		.4byte	0
 10766              	.LLST17:
 10767 0484 CA010000 		.4byte	.LVL59
 10768 0488 CE010000 		.4byte	.LVL60
 10769 048c 0200     		.2byte	0x2
 10770 048e 30       		.byte	0x30
 10771 048f 9F       		.byte	0x9f
 10772 0490 00000000 		.4byte	0
 10773 0494 00000000 		.4byte	0
 10774              	.LLST18:
 10775 0498 3C020000 		.4byte	.LVL72
 10776 049c AA020000 		.4byte	.LVL83
 10777 04a0 0100     		.2byte	0x1
 10778 04a2 58       		.byte	0x58
 10779 04a3 00000000 		.4byte	0
 10780 04a7 00000000 		.4byte	0
 10781              	.LLST19:
ARM GAS  C:\Users\D4DE~1\AppData\Local\Temp\cccuUyWy.s 			page 225


 10782 04ab 48020000 		.4byte	.LVL74
 10783 04af 4C020000 		.4byte	.LVL75
 10784 04b3 0200     		.2byte	0x2
 10785 04b5 30       		.byte	0x30
 10786 04b6 9F       		.byte	0x9f
 10787 04b7 4C020000 		.4byte	.LVL75
 10788 04bb 7A020000 		.4byte	.LVL77
 10789 04bf 0100     		.2byte	0x1
 10790 04c1 56       		.byte	0x56
 10791 04c2 86020000 		.4byte	.LVL79
 10792 04c6 8C020000 		.4byte	.LVL81
 10793 04ca 0100     		.2byte	0x1
 10794 04cc 56       		.byte	0x56
 10795 04cd 00000000 		.4byte	0
 10796 04d1 00000000 		.4byte	0
 10797              	.LLST20:
 10798 04d5 B4020000 		.4byte	.LVL84
 10799 04d9 DC020000 		.4byte	.LVL85
 10800 04dd 0100     		.2byte	0x1
 10801 04df 55       		.byte	0x55
 10802 04e0 00000000 		.4byte	0
 10803 04e4 00000000 		.4byte	0
 10804              	.LLST21:
 10805 04e8 E0020000 		.4byte	.LVL86
 10806 04ec F2030000 		.4byte	.LVL97
 10807 04f0 0100     		.2byte	0x1
 10808 04f2 58       		.byte	0x58
 10809 04f3 00000000 		.4byte	0
 10810 04f7 00000000 		.4byte	0
 10811              	.LLST22:
 10812 04fb EC020000 		.4byte	.LVL88
 10813 04ff F0020000 		.4byte	.LVL89
 10814 0503 0200     		.2byte	0x2
 10815 0505 30       		.byte	0x30
 10816 0506 9F       		.byte	0x9f
 10817 0507 F0020000 		.4byte	.LVL89
 10818 050b 1E030000 		.4byte	.LVL91
 10819 050f 0100     		.2byte	0x1
 10820 0511 56       		.byte	0x56
 10821 0512 D0030000 		.4byte	.LVL93
 10822 0516 D6030000 		.4byte	.LVL95
 10823 051a 0100     		.2byte	0x1
 10824 051c 56       		.byte	0x56
 10825 051d 00000000 		.4byte	0
 10826 0521 00000000 		.4byte	0
 10827              	.LLST23:
 10828 0525 06040000 		.4byte	.LVL98
 10829 0529 72040000 		.4byte	.LVL108
 10830 052d 0100     		.2byte	0x1
 10831 052f 58       		.byte	0x58
 10832 0530 00000000 		.4byte	0
 10833 0534 00000000 		.4byte	0
 10834              	.LLST24:
 10835 0538 12040000 		.4byte	.LVL99
 10836 053c 16040000 		.4byte	.LVL100
 10837 0540 0200     		.2byte	0x2
 10838 0542 30       		.byte	0x30
ARM GAS  C:\Users\D4DE~1\AppData\Local\Temp\cccuUyWy.s 			page 226


 10839 0543 9F       		.byte	0x9f
 10840 0544 16040000 		.4byte	.LVL100
 10841 0548 44040000 		.4byte	.LVL102
 10842 054c 0100     		.2byte	0x1
 10843 054e 56       		.byte	0x56
 10844 054f 50040000 		.4byte	.LVL104
 10845 0553 56040000 		.4byte	.LVL106
 10846 0557 0100     		.2byte	0x1
 10847 0559 56       		.byte	0x56
 10848 055a 00000000 		.4byte	0
 10849 055e 00000000 		.4byte	0
 10850              	.LLST25:
 10851 0562 84040000 		.4byte	.LVL111
 10852 0566 1A050000 		.4byte	.LVL123
 10853 056a 0100     		.2byte	0x1
 10854 056c 55       		.byte	0x55
 10855 056d 00000000 		.4byte	0
 10856 0571 00000000 		.4byte	0
 10857              	.LLST26:
 10858 0575 90040000 		.4byte	.LVL112
 10859 0579 96040000 		.4byte	.LVL113
 10860 057d 0200     		.2byte	0x2
 10861 057f 30       		.byte	0x30
 10862 0580 9F       		.byte	0x9f
 10863 0581 00000000 		.4byte	0
 10864 0585 00000000 		.4byte	0
 10865              	.LLST27:
 10866 0589 9A040000 		.4byte	.LVL114
 10867 058d 06050000 		.4byte	.LVL122
 10868 0591 0100     		.2byte	0x1
 10869 0593 58       		.byte	0x58
 10870 0594 00000000 		.4byte	0
 10871 0598 00000000 		.4byte	0
 10872              	.LLST28:
 10873 059c A6040000 		.4byte	.LVL116
 10874 05a0 AA040000 		.4byte	.LVL117
 10875 05a4 0200     		.2byte	0x2
 10876 05a6 30       		.byte	0x30
 10877 05a7 9F       		.byte	0x9f
 10878 05a8 AA040000 		.4byte	.LVL117
 10879 05ac 06050000 		.4byte	.LVL122
 10880 05b0 0100     		.2byte	0x1
 10881 05b2 56       		.byte	0x56
 10882 05b3 00000000 		.4byte	0
 10883 05b7 00000000 		.4byte	0
 10884              	.LLST29:
 10885 05bb 3A050000 		.4byte	.LVL125
 10886 05bf 42050000 		.4byte	.LVL126
 10887 05c3 0200     		.2byte	0x2
 10888 05c5 32       		.byte	0x32
 10889 05c6 9F       		.byte	0x9f
 10890 05c7 00000000 		.4byte	0
 10891 05cb 00000000 		.4byte	0
 10892              	.LLST30:
 10893 05cf 46050000 		.4byte	.LVL127
 10894 05d3 4E050000 		.4byte	.LVL128
 10895 05d7 0200     		.2byte	0x2
ARM GAS  C:\Users\D4DE~1\AppData\Local\Temp\cccuUyWy.s 			page 227


 10896 05d9 30       		.byte	0x30
 10897 05da 9F       		.byte	0x9f
 10898 05db 00000000 		.4byte	0
 10899 05df 00000000 		.4byte	0
 10900              	.LLST31:
 10901 05e3 54050000 		.4byte	.LVL129
 10902 05e7 5A050000 		.4byte	.LVL130
 10903 05eb 0200     		.2byte	0x2
 10904 05ed 30       		.byte	0x30
 10905 05ee 9F       		.byte	0x9f
 10906 05ef 00000000 		.4byte	0
 10907 05f3 00000000 		.4byte	0
 10908              	.LLST32:
 10909 05f7 92050000 		.4byte	.LVL132
 10910 05fb 9A050000 		.4byte	.LVL133
 10911 05ff 0200     		.2byte	0x2
 10912 0601 31       		.byte	0x31
 10913 0602 9F       		.byte	0x9f
 10914 0603 00000000 		.4byte	0
 10915 0607 00000000 		.4byte	0
 10916              	.LLST33:
 10917 060b AC050000 		.4byte	.LVL137
 10918 060f C8050000 		.4byte	.LVL138
 10919 0613 0200     		.2byte	0x2
 10920 0615 32       		.byte	0x32
 10921 0616 9F       		.byte	0x9f
 10922 0617 00000000 		.4byte	0
 10923 061b 00000000 		.4byte	0
 10924              	.LLST34:
 10925 061f 14060000 		.4byte	.LVL141
 10926 0623 2A060000 		.4byte	.LVL142
 10927 0627 0100     		.2byte	0x1
 10928 0629 50       		.byte	0x50
 10929 062a 00000000 		.4byte	0
 10930 062e 00000000 		.4byte	0
 10931              	.LLST35:
 10932 0632 54060000 		.4byte	.LVL148
 10933 0636 6E060000 		.4byte	.LVL149
 10934 063a 0200     		.2byte	0x2
 10935 063c 30       		.byte	0x30
 10936 063d 9F       		.byte	0x9f
 10937 063e 00000000 		.4byte	0
 10938 0642 00000000 		.4byte	0
 10939              	.LLST36:
 10940 0646 98060000 		.4byte	.LVL157
 10941 064a 9E060000 		.4byte	.LVL158
 10942 064e 0100     		.2byte	0x1
 10943 0650 50       		.byte	0x50
 10944 0651 A4060000 		.4byte	.LVL160
 10945 0655 A9060000 		.4byte	.LVL161-1
 10946 0659 0100     		.2byte	0x1
 10947 065b 51       		.byte	0x51
 10948 065c 00000000 		.4byte	0
 10949 0660 00000000 		.4byte	0
 10950              	.LLST37:
 10951 0664 C0060000 		.4byte	.LVL163
 10952 0668 E3060000 		.4byte	.LVL164-1
ARM GAS  C:\Users\D4DE~1\AppData\Local\Temp\cccuUyWy.s 			page 228


 10953 066c 0100     		.2byte	0x1
 10954 066e 52       		.byte	0x52
 10955 066f 00000000 		.4byte	0
 10956 0673 00000000 		.4byte	0
 10957              		.section	.debug_aranges,"",%progbits
 10958 0000 3C000000 		.4byte	0x3c
 10959 0004 0200     		.2byte	0x2
 10960 0006 00000000 		.4byte	.Ldebug_info0
 10961 000a 04       		.byte	0x4
 10962 000b 00       		.byte	0
 10963 000c 0000     		.2byte	0
 10964 000e 0000     		.2byte	0
 10965 0010 00000000 		.4byte	.LFB170
 10966 0014 44000000 		.4byte	.LFE170-.LFB170
 10967 0018 00000000 		.4byte	.LFB168
 10968 001c 60000000 		.4byte	.LFE168-.LFB168
 10969 0020 00000000 		.4byte	.LFB169
 10970 0024 34000000 		.4byte	.LFE169-.LFB169
 10971 0028 00000000 		.4byte	.LFB172
 10972 002c 22000000 		.4byte	.LFE172-.LFB172
 10973 0030 00000000 		.4byte	.LFB173
 10974 0034 AC070000 		.4byte	.LFE173-.LFB173
 10975 0038 00000000 		.4byte	0
 10976 003c 00000000 		.4byte	0
 10977              		.section	.debug_ranges,"",%progbits
 10978              	.Ldebug_ranges0:
 10979 0000 0C000000 		.4byte	.LBB40
 10980 0004 26000000 		.4byte	.LBE40
 10981 0008 28000000 		.4byte	.LBB41
 10982 000c 2A000000 		.4byte	.LBE41
 10983 0010 00000000 		.4byte	0
 10984 0014 00000000 		.4byte	0
 10985 0018 00000000 		.4byte	.LFB170
 10986 001c 44000000 		.4byte	.LFE170
 10987 0020 00000000 		.4byte	.LFB168
 10988 0024 60000000 		.4byte	.LFE168
 10989 0028 00000000 		.4byte	.LFB169
 10990 002c 34000000 		.4byte	.LFE169
 10991 0030 00000000 		.4byte	.LFB172
 10992 0034 22000000 		.4byte	.LFE172
 10993 0038 00000000 		.4byte	.LFB173
 10994 003c AC070000 		.4byte	.LFE173
 10995 0040 00000000 		.4byte	0
 10996 0044 00000000 		.4byte	0
 10997              		.section	.debug_line,"",%progbits
 10998              	.Ldebug_line0:
 10999 0000 42060000 		.section	.debug_str,"MS",%progbits,1
 10999      02000504 
 10999      00000201 
 10999      FB0E0D00 
 10999      01010101 
 11000              	.LASF741:
 11001 0000 63795F73 		.ascii	"cy_stc_ble_gap_auth_info_t\000"
 11001      74635F62 
 11001      6C655F67 
 11001      61705F61 
 11001      7574685F 
ARM GAS  C:\Users\D4DE~1\AppData\Local\Temp\cccuUyWy.s 			page 229


 11002              	.LASF577:
 11003 001b 6C646F56 		.ascii	"ldoVoltageTable\000"
 11003      6F6C7461 
 11003      67655461 
 11003      626C6500 
 11004              	.LASF143:
 11005 002b 6770696F 		.ascii	"gpioBase\000"
 11005      42617365 
 11005      00
 11006              	.LASF1:
 11007 0034 6C6F6E67 		.ascii	"long long int\000"
 11007      206C6F6E 
 11007      6720696E 
 11007      7400
 11008              	.LASF636:
 11009 0042 43595F42 		.ascii	"CY_BLE_GATT_WRITE_REQ\000"
 11009      4C455F47 
 11009      4154545F 
 11009      57524954 
 11009      455F5245 
 11010              	.LASF1031:
 11011 0058 43595F42 		.ascii	"CY_BLE_EVT_GLSC_READ_CHAR_RESPONSE\000"
 11011      4C455F45 
 11011      56545F47 
 11011      4C53435F 
 11011      52454144 
 11012              	.LASF649:
 11013 007b 43595F42 		.ascii	"CY_BLE_GATT_ERR_NONE\000"
 11013      4C455F47 
 11013      4154545F 
 11013      4552525F 
 11013      4E4F4E45 
 11014              	.LASF976:
 11015 0090 43595F42 		.ascii	"CY_BLE_EVT_CPSS_INDICATION_DISABLED\000"
 11015      4C455F45 
 11015      56545F43 
 11015      5053535F 
 11015      494E4449 
 11016              	.LASF613:
 11017 00b4 636F6E6E 		.ascii	"connHandle\000"
 11017      48616E64 
 11017      6C6500
 11018              	.LASF775:
 11019 00bf 63795F73 		.ascii	"cy_stc_ble_gapp_disc_param_t\000"
 11019      74635F62 
 11019      6C655F67 
 11019      6170705F 
 11019      64697363 
 11020              	.LASF307:
 11021 00dc 7363625F 		.ascii	"scb_2_interrupt_IRQn\000"
 11021      325F696E 
 11021      74657272 
 11021      7570745F 
 11021      4952516E 
 11022              	.LASF931:
 11023 00f1 43595F42 		.ascii	"CY_BLE_EVT_ANSC_WRITE_CHAR_RESPONSE\000"
 11023      4C455F45 
ARM GAS  C:\Users\D4DE~1\AppData\Local\Temp\cccuUyWy.s 			page 230


 11023      56545F41 
 11023      4E53435F 
 11023      57524954 
 11024              	.LASF397:
 11025 0115 7564625F 		.ascii	"udb_interrupts_11_IRQn\000"
 11025      696E7465 
 11025      72727570 
 11025      74735F31 
 11025      315F4952 
 11026              	.LASF1169:
 11027 012c 43595F42 		.ascii	"CY_BLE_EVT_WPTSC_INDICATION\000"
 11027      4C455F45 
 11027      56545F57 
 11027      50545343 
 11027      5F494E44 
 11028              	.LASF958:
 11029 0148 43595F42 		.ascii	"CY_BLE_EVT_BMSC_READ_CHAR_RESPONSE\000"
 11029      4C455F45 
 11029      56545F42 
 11029      4D53435F 
 11029      52454144 
 11030              	.LASF438:
 11031 016b 43595F42 		.ascii	"CY_BLE_EVT_GET_PEER_RPA_COMPLETE\000"
 11031      4C455F45 
 11031      56545F47 
 11031      45545F50 
 11031      4545525F 
 11032              	.LASF960:
 11033 018c 43595F42 		.ascii	"CY_BLE_EVT_BMSC_READ_DESCR_RESPONSE\000"
 11033      4C455F45 
 11033      56545F42 
 11033      4D53435F 
 11033      52454144 
 11034              	.LASF700:
 11035 01b0 65727249 		.ascii	"errInfo\000"
 11035      6E666F00 
 11036              	.LASF12:
 11037 01b8 6C6F6E67 		.ascii	"long unsigned int\000"
 11037      20756E73 
 11037      69676E65 
 11037      6420696E 
 11037      7400
 11038              	.LASF309:
 11039 01ca 7363625F 		.ascii	"scb_4_interrupt_IRQn\000"
 11039      345F696E 
 11039      74657272 
 11039      7570745F 
 11039      4952516E 
 11040              	.LASF1218:
 11041 01df 626C6553 		.ascii	"bleSsPowerLevel\000"
 11041      73506F77 
 11041      65724C65 
 11041      76656C00 
 11042              	.LASF1108:
 11043 01ef 43595F42 		.ascii	"CY_BLE_EVT_PASSC_WRITE_DESCR_RESPONSE\000"
 11043      4C455F45 
 11043      56545F50 
ARM GAS  C:\Users\D4DE~1\AppData\Local\Temp\cccuUyWy.s 			page 231


 11043      41535343 
 11043      5F575249 
 11044              	.LASF992:
 11045 0215 43595F42 		.ascii	"CY_BLE_EVT_CSCSS_INDICATION_DISABLED\000"
 11045      4C455F45 
 11045      56545F43 
 11045      53435353 
 11045      5F494E44 
 11046              	.LASF171:
 11047 023a 73797350 		.ascii	"sysPmSimoPresent\000"
 11047      6D53696D 
 11047      6F507265 
 11047      73656E74 
 11047      00
 11048              	.LASF628:
 11049 024b 43595F42 		.ascii	"CY_BLE_GATT_READ_REQ\000"
 11049      4C455F47 
 11049      4154545F 
 11049      52454144 
 11049      5F524551 
 11050              	.LASF603:
 11051 0260 61747449 		.ascii	"attId\000"
 11051      6400
 11052              	.LASF1268:
 11053 0266 43795F42 		.ascii	"Cy_BLE_EventHandler\000"
 11053      4C455F45 
 11053      76656E74 
 11053      48616E64 
 11053      6C657200 
 11054              	.LASF158:
 11055 027a 63707573 		.ascii	"cpussDwChNr\000"
 11055      73447743 
 11055      684E7200 
 11056              	.LASF1261:
 11057 0286 43795F42 		.ascii	"Cy_BLE_GAPP_StartAdvertisement\000"
 11057      4C455F47 
 11057      4150505F 
 11057      53746172 
 11057      74416476 
 11058              	.LASF60:
 11059 02a5 52455345 		.ascii	"RESERVED10\000"
 11059      52564544 
 11059      313000
 11060              	.LASF65:
 11061 02b0 52455345 		.ascii	"RESERVED11\000"
 11061      52564544 
 11061      313100
 11062              	.LASF71:
 11063 02bb 52455345 		.ascii	"RESERVED12\000"
 11063      52564544 
 11063      313200
 11064              	.LASF76:
 11065 02c6 52455345 		.ascii	"RESERVED13\000"
 11065      52564544 
 11065      313300
 11066              	.LASF83:
 11067 02d1 52455345 		.ascii	"RESERVED14\000"
ARM GAS  C:\Users\D4DE~1\AppData\Local\Temp\cccuUyWy.s 			page 232


 11067      52564544 
 11067      313400
 11068              	.LASF87:
 11069 02dc 52455345 		.ascii	"RESERVED15\000"
 11069      52564544 
 11069      313500
 11070              	.LASF96:
 11071 02e7 52455345 		.ascii	"RESERVED16\000"
 11071      52564544 
 11071      313600
 11072              	.LASF106:
 11073 02f2 52455345 		.ascii	"RESERVED17\000"
 11073      52564544 
 11073      313700
 11074              	.LASF118:
 11075 02fd 52455345 		.ascii	"RESERVED18\000"
 11075      52564544 
 11075      313800
 11076              	.LASF132:
 11077 0308 52455345 		.ascii	"RESERVED19\000"
 11077      52564544 
 11077      313900
 11078              	.LASF1257:
 11079 0313 43795F42 		.ascii	"Cy_BLE_GAP_SetBdAddress\000"
 11079      4C455F47 
 11079      41505F53 
 11079      65744264 
 11079      41646472 
 11080              	.LASF311:
 11081 032b 7363625F 		.ascii	"scb_6_interrupt_IRQn\000"
 11081      365F696E 
 11081      74657272 
 11081      7570745F 
 11081      4952516E 
 11082              	.LASF272:
 11083 0340 696F7373 		.ascii	"ioss_interrupts_gpio_8_IRQn\000"
 11083      5F696E74 
 11083      65727275 
 11083      7074735F 
 11083      6770696F 
 11084              	.LASF621:
 11085 035c 43595F42 		.ascii	"CY_BLE_GATT_XCHNG_MTU_RSP\000"
 11085      4C455F47 
 11085      4154545F 
 11085      5843484E 
 11085      475F4D54 
 11086              	.LASF373:
 11087 0376 74637077 		.ascii	"tcpwm_1_interrupts_11_IRQn\000"
 11087      6D5F315F 
 11087      696E7465 
 11087      72727570 
 11087      74735F31 
 11088              	.LASF617:
 11089 0391 74696D65 		.ascii	"timerHandle\000"
 11089      7248616E 
 11089      646C6500 
 11090              	.LASF788:
ARM GAS  C:\Users\D4DE~1\AppData\Local\Temp\cccuUyWy.s 			page 233


 11091 039d 43595F42 		.ascii	"CY_BLE_STATE_ON\000"
 11091      4C455F53 
 11091      54415445 
 11091      5F4F4E00 
 11092              	.LASF520:
 11093 03ad 43595F42 		.ascii	"CY_BLE_EVT_GATTC_HANDLE_VALUE_IND\000"
 11093      4C455F45 
 11093      56545F47 
 11093      41545443 
 11093      5F48414E 
 11094              	.LASF282:
 11095 03cf 7363625F 		.ascii	"scb_8_interrupt_IRQn\000"
 11095      385F696E 
 11095      74657272 
 11095      7570745F 
 11095      4952516E 
 11096              	.LASF620:
 11097 03e4 43595F42 		.ascii	"CY_BLE_GATT_XCNHG_MTU_REQ\000"
 11097      4C455F47 
 11097      4154545F 
 11097      58434E48 
 11097      475F4D54 
 11098              	.LASF1215:
 11099 03fe 48636950 		.ascii	"HciPktParams\000"
 11099      6B745061 
 11099      72616D73 
 11099      00
 11100              	.LASF899:
 11101 040b 43595F42 		.ascii	"CY_BLE_EVT_GATTC_SRVC_DISCOVERY_COMPLETE\000"
 11101      4C455F45 
 11101      56545F47 
 11101      41545443 
 11101      5F535256 
 11102              	.LASF459:
 11103 0434 43595F42 		.ascii	"CY_BLE_EVT_GET_CLK_CONFIG_COMPLETE\000"
 11103      4C455F45 
 11103      56545F47 
 11103      45545F43 
 11103      4C4B5F43 
 11104              	.LASF1021:
 11105 0457 43595F42 		.ascii	"CY_BLE_EVT_ESSC_READ_DESCR_RESPONSE\000"
 11105      4C455F45 
 11105      56545F45 
 11105      5353435F 
 11105      52454144 
 11106              	.LASF490:
 11107 047b 43595F42 		.ascii	"CY_BLE_EVT_GAP_ENHANCE_CONN_COMPLETE\000"
 11107      4C455F45 
 11107      56545F47 
 11107      41505F45 
 11107      4E48414E 
 11108              	.LASF597:
 11109 04a0 43595F42 		.ascii	"CY_BLE_GENERIC_APP_TO\000"
 11109      4C455F47 
 11109      454E4552 
 11109      49435F41 
 11109      50505F54 
ARM GAS  C:\Users\D4DE~1\AppData\Local\Temp\cccuUyWy.s 			page 234


 11110              	.LASF1249:
 11111 04b6 6D656D73 		.ascii	"memset\000"
 11111      657400
 11112              	.LASF606:
 11113 04bd 63795F73 		.ascii	"cy_stc_ble_tx_pwr_config_param_t\000"
 11113      74635F62 
 11113      6C655F74 
 11113      785F7077 
 11113      725F636F 
 11114              	.LASF302:
 11115 04de 63707573 		.ascii	"cpuss_interrupts_ipc_13_IRQn\000"
 11115      735F696E 
 11115      74657272 
 11115      75707473 
 11115      5F697063 
 11116              	.LASF136:
 11117 04fb 53464C41 		.ascii	"SFLASH_V1_Type\000"
 11117      53485F56 
 11117      315F5479 
 11117      706500
 11118              	.LASF717:
 11119 050a 43595F42 		.ascii	"CY_BLE_GAP_AUTH_ERROR_PAIRING_NOT_SUPPORTED\000"
 11119      4C455F47 
 11119      41505F41 
 11119      5554485F 
 11119      4552524F 
 11120              	.LASF1204:
 11121 0536 65786973 		.ascii	"existFlag\000"
 11121      74466C61 
 11121      6700
 11122              	.LASF686:
 11123 0540 43595F42 		.ascii	"CY_BLE_GATT_ERR_OUT_OF_RANGE\000"
 11123      4C455F47 
 11123      4154545F 
 11123      4552525F 
 11123      4F55545F 
 11124              	.LASF429:
 11125 055d 43595F42 		.ascii	"CY_BLE_EVT_WRITE_AUTH_PAYLOAD_TO_COMPLETE\000"
 11125      4C455F45 
 11125      56545F57 
 11125      52495445 
 11125      5F415554 
 11126              	.LASF824:
 11127 0587 736C6F77 		.ascii	"slowScanWindow\000"
 11127      5363616E 
 11127      57696E64 
 11127      6F7700
 11128              	.LASF1189:
 11129 0596 43595F42 		.ascii	"CY_BLE_EVT_GATTC_DISC_CHAR\000"
 11129      4C455F45 
 11129      56545F47 
 11129      41545443 
 11129      5F444953 
 11130              	.LASF1033:
 11131 05b1 43595F42 		.ascii	"CY_BLE_EVT_GLSC_READ_DESCR_RESPONSE\000"
 11131      4C455F45 
 11131      56545F47 
ARM GAS  C:\Users\D4DE~1\AppData\Local\Temp\cccuUyWy.s 			page 235


 11131      4C53435F 
 11131      52454144 
 11132              	.LASF1043:
 11133 05d5 43595F42 		.ascii	"CY_BLE_EVT_HIDSC_READ_CHAR_RESPONSE\000"
 11133      4C455F45 
 11133      56545F48 
 11133      49445343 
 11133      5F524541 
 11134              	.LASF763:
 11135 05f9 43595F42 		.ascii	"CY_BLE_GAPP_CONNECTABLE_HIGH_DC_DIRECTED_ADV\000"
 11135      4C455F47 
 11135      4150505F 
 11135      434F4E4E 
 11135      45435441 
 11136              	.LASF770:
 11137 0626 61647654 		.ascii	"advType\000"
 11137      79706500 
 11138              	.LASF817:
 11139 062e 736C6F77 		.ascii	"slowAdvTimeOut\000"
 11139      41647654 
 11139      696D654F 
 11139      757400
 11140              	.LASF432:
 11141 063d 43595F42 		.ascii	"CY_BLE_EVT_LE_SET_EVENT_MASK_COMPLETE\000"
 11141      4C455F45 
 11141      56545F4C 
 11141      455F5345 
 11141      545F4556 
 11142              	.LASF874:
 11143 0663 67617073 		.ascii	"gaps\000"
 11143      00
 11144              	.LASF1151:
 11145 0668 43595F42 		.ascii	"CY_BLE_EVT_UDSS_NOTIFICATION_ENABLED\000"
 11145      4C455F45 
 11145      56545F55 
 11145      4453535F 
 11145      4E4F5449 
 11146              	.LASF1165:
 11147 068d 43595F42 		.ascii	"CY_BLE_EVT_WPTSS_INDICATION_DISABLED\000"
 11147      4C455F45 
 11147      56545F57 
 11147      50545353 
 11147      5F494E44 
 11148              	.LASF761:
 11149 06b2 63795F73 		.ascii	"cy_stc_ble_gapc_disc_info_t\000"
 11149      74635F62 
 11149      6C655F67 
 11149      6170635F 
 11149      64697363 
 11150              	.LASF811:
 11151 06ce 66617374 		.ascii	"fastAdvIntervalMin\000"
 11151      41647649 
 11151      6E746572 
 11151      76616C4D 
 11151      696E00
 11152              	.LASF745:
 11153 06e1 70656572 		.ascii	"peerBdAddr\000"
ARM GAS  C:\Users\D4DE~1\AppData\Local\Temp\cccuUyWy.s 			page 236


 11153      42644164 
 11153      647200
 11154              	.LASF240:
 11155 06ec 4E766963 		.ascii	"NvicMux10_IRQn\000"
 11155      4D757831 
 11155      305F4952 
 11155      516E00
 11156              	.LASF961:
 11157 06fb 43595F42 		.ascii	"CY_BLE_EVT_CGMSS_INDICATION_ENABLED\000"
 11157      4C455F45 
 11157      56545F43 
 11157      474D5353 
 11157      5F494E44 
 11158              	.LASF703:
 11159 071f 746F7461 		.ascii	"totalAttrValueLength\000"
 11159      6C417474 
 11159      7256616C 
 11159      75654C65 
 11159      6E677468 
 11160              	.LASF1071:
 11161 0734 43595F42 		.ascii	"CY_BLE_EVT_HTSC_READ_CHAR_RESPONSE\000"
 11161      4C455F45 
 11161      56545F48 
 11161      5453435F 
 11161      52454144 
 11162              	.LASF885:
 11163 0757 43595F42 		.ascii	"CY_BLE_PASSKEY_ENTRY_REQUEST_REPLY\000"
 11163      4C455F50 
 11163      4153534B 
 11163      45595F45 
 11163      4E545259 
 11164              	.LASF610:
 11165 077a 72657175 		.ascii	"request\000"
 11165      65737400 
 11166              	.LASF164:
 11167 0782 73727373 		.ascii	"srssNumPll\000"
 11167      4E756D50 
 11167      6C6C00
 11168              	.LASF643:
 11169 078d 43595F42 		.ascii	"CY_BLE_GATT_HANDLE_VALUE_NTF\000"
 11169      4C455F47 
 11169      4154545F 
 11169      48414E44 
 11169      4C455F56 
 11170              	.LASF849:
 11171 07aa 73657276 		.ascii	"serviceChangedHandle\000"
 11171      69636543 
 11171      68616E67 
 11171      65644861 
 11171      6E646C65 
 11172              	.LASF764:
 11173 07bf 43595F42 		.ascii	"CY_BLE_GAPP_SCANNABLE_UNDIRECTED_ADV\000"
 11173      4C455F47 
 11173      4150505F 
 11173      5343414E 
 11173      4E41424C 
 11174              	.LASF328:
ARM GAS  C:\Users\D4DE~1\AppData\Local\Temp\cccuUyWy.s 			page 237


 11175 07e4 63707573 		.ascii	"cpuss_interrupts_dw0_14_IRQn\000"
 11175      735F696E 
 11175      74657272 
 11175      75707473 
 11175      5F647730 
 11176              	.LASF523:
 11177 0801 43595F42 		.ascii	"CY_BLE_EVT_GATTC_STOP_CMD_COMPLETE\000"
 11177      4C455F45 
 11177      56545F47 
 11177      41545443 
 11177      5F53544F 
 11178              	.LASF662:
 11179 0824 43595F42 		.ascii	"CY_BLE_GATT_ERR_INVALID_ATTRIBUTE_LEN\000"
 11179      4C455F47 
 11179      4154545F 
 11179      4552525F 
 11179      494E5641 
 11180              	.LASF938:
 11181 084a 43595F42 		.ascii	"CY_BLE_EVT_BASC_READ_DESCR_RESPONSE\000"
 11181      4C455F45 
 11181      56545F42 
 11181      4153435F 
 11181      52454144 
 11182              	.LASF78:
 11183 086e 464C4153 		.ascii	"FLASH_BOOT_APP_ID\000"
 11183      485F424F 
 11183      4F545F41 
 11183      50505F49 
 11183      4400
 11184              	.LASF188:
 11185 0880 64775374 		.ascii	"dwStatusChIdxPos\000"
 11185      61747573 
 11185      43684964 
 11185      78506F73 
 11185      00
 11186              	.LASF944:
 11187 0891 43595F42 		.ascii	"CY_BLE_EVT_BCSC_READ_CHAR_RESPONSE\000"
 11187      4C455F45 
 11187      56545F42 
 11187      4353435F 
 11187      52454144 
 11188              	.LASF611:
 11189 08b4 636F6E66 		.ascii	"configMemory\000"
 11189      69674D65 
 11189      6D6F7279 
 11189      00
 11190              	.LASF283:
 11191 08c1 73727373 		.ascii	"srss_interrupt_mcwdt_0_IRQn\000"
 11191      5F696E74 
 11191      65727275 
 11191      70745F6D 
 11191      63776474 
 11192              	.LASF434:
 11193 08dd 43595F42 		.ascii	"CY_BLE_EVT_SET_DATA_LENGTH_COMPLETE\000"
 11193      4C455F45 
 11193      56545F53 
 11193      45545F44 
ARM GAS  C:\Users\D4DE~1\AppData\Local\Temp\cccuUyWy.s 			page 238


 11193      4154415F 
 11194              	.LASF120:
 11195 0901 544F4332 		.ascii	"TOC2_FLAGS\000"
 11195      5F464C41 
 11195      475300
 11196              	.LASF360:
 11197 090c 74637077 		.ascii	"tcpwm_0_interrupts_6_IRQn\000"
 11197      6D5F305F 
 11197      696E7465 
 11197      72727570 
 11197      74735F36 
 11198              	.LASF73:
 11199 0926 43505553 		.ascii	"CPUSS_TRIM_RAM_CTL_HALF_ULP\000"
 11199      535F5452 
 11199      494D5F52 
 11199      414D5F43 
 11199      544C5F48 
 11200              	.LASF936:
 11201 0942 43595F42 		.ascii	"CY_BLE_EVT_BASC_NOTIFICATION\000"
 11201      4C455F45 
 11201      56545F42 
 11201      4153435F 
 11201      4E4F5449 
 11202              	.LASF30:
 11203 095f 4449455F 		.ascii	"DIE_X\000"
 11203      5800
 11204              	.LASF31:
 11205 0965 4449455F 		.ascii	"DIE_Y\000"
 11205      5900
 11206              	.LASF1024:
 11207 096b 43595F42 		.ascii	"CY_BLE_EVT_GLSS_INDICATION_DISABLED\000"
 11207      4C455F45 
 11207      56545F47 
 11207      4C53535F 
 11207      494E4449 
 11208              	.LASF943:
 11209 098f 43595F42 		.ascii	"CY_BLE_EVT_BCSC_INDICATION\000"
 11209      4C455F45 
 11209      56545F42 
 11209      4353435F 
 11209      494E4449 
 11210              	.LASF1131:
 11211 09aa 43595F42 		.ascii	"CY_BLE_EVT_RSCSC_WRITE_CHAR_RESPONSE\000"
 11211      4C455F45 
 11211      56545F52 
 11211      53435343 
 11211      5F575249 
 11212              	.LASF47:
 11213 09cf 55534552 		.ascii	"USER_FREE_ROW1\000"
 11213      5F465245 
 11213      455F524F 
 11213      573100
 11214              	.LASF48:
 11215 09de 55534552 		.ascii	"USER_FREE_ROW2\000"
 11215      5F465245 
 11215      455F524F 
 11215      573200
ARM GAS  C:\Users\D4DE~1\AppData\Local\Temp\cccuUyWy.s 			page 239


 11216              	.LASF49:
 11217 09ed 55534552 		.ascii	"USER_FREE_ROW3\000"
 11217      5F465245 
 11217      455F524F 
 11217      573300
 11218              	.LASF1171:
 11219 09fc 43595F42 		.ascii	"CY_BLE_EVT_WPTSC_READ_CHAR_RESPONSE\000"
 11219      4C455F45 
 11219      56545F57 
 11219      50545343 
 11219      5F524541 
 11220              	.LASF395:
 11221 0a20 7564625F 		.ascii	"udb_interrupts_9_IRQn\000"
 11221      696E7465 
 11221      72727570 
 11221      74735F39 
 11221      5F495251 
 11222              	.LASF1256:
 11223 0a36 43795F42 		.ascii	"Cy_BLE_GATTS_WriteEventHandler\000"
 11223      4C455F47 
 11223      41545453 
 11223      5F577269 
 11223      74654576 
 11224              	.LASF19:
 11225 0a55 75696E74 		.ascii	"uint32_t\000"
 11225      33325F74 
 11225      00
 11226              	.LASF1072:
 11227 0a5e 43595F42 		.ascii	"CY_BLE_EVT_HTSC_WRITE_CHAR_RESPONSE\000"
 11227      4C455F45 
 11227      56545F48 
 11227      5453435F 
 11227      57524954 
 11228              	.LASF1190:
 11229 0a82 43595F42 		.ascii	"CY_BLE_EVT_GATTC_DISC_DESCR\000"
 11229      4C455F45 
 11229      56545F47 
 11229      41545443 
 11229      5F444953 
 11230              	.LASF1233:
 11231 0a9e 63795F62 		.ascii	"cy_ble_connState\000"
 11231      6C655F63 
 11231      6F6E6E53 
 11231      74617465 
 11231      00
 11232              	.LASF33:
 11233 0aaf 4449455F 		.ascii	"DIE_MINOR\000"
 11233      4D494E4F 
 11233      5200
 11234              	.LASF410:
 11235 0ab9 70617373 		.ascii	"pass_interrupt_dacs_IRQn\000"
 11235      5F696E74 
 11235      65727275 
 11235      70745F64 
 11235      6163735F 
 11236              	.LASF1036:
 11237 0ad2 43595F42 		.ascii	"CY_BLE_EVT_HIDSS_NOTIFICATION_DISABLED\000"
ARM GAS  C:\Users\D4DE~1\AppData\Local\Temp\cccuUyWy.s 			page 240


 11237      4C455F45 
 11237      56545F48 
 11237      49445353 
 11237      5F4E4F54 
 11238              	.LASF206:
 11239 0af9 6770696F 		.ascii	"gpioPrtCfgSioOffset\000"
 11239      50727443 
 11239      66675369 
 11239      6F4F6666 
 11239      73657400 
 11240              	.LASF1044:
 11241 0b0d 43595F42 		.ascii	"CY_BLE_EVT_HIDSC_WRITE_CHAR_RESPONSE\000"
 11241      4C455F45 
 11241      56545F48 
 11241      49445343 
 11241      5F575249 
 11242              	.LASF893:
 11243 0b32 43595F42 		.ascii	"CY_BLE_EVT_GATTC_INCL_DISCOVERY_FAILED\000"
 11243      4C455F45 
 11243      56545F47 
 11243      41545443 
 11243      5F494E43 
 11244              	.LASF842:
 11245 0b59 63795F73 		.ascii	"cy_stc_ble_gatts_att_value_t\000"
 11245      74635F62 
 11245      6C655F67 
 11245      61747473 
 11245      5F617474 
 11246              	.LASF458:
 11247 0b76 43595F42 		.ascii	"CY_BLE_EVT_SET_TX_PWR_COMPLETE\000"
 11247      4C455F45 
 11247      56545F53 
 11247      45545F54 
 11247      585F5057 
 11248              	.LASF1232:
 11249 0b95 63795F62 		.ascii	"cy_ble_connHandle\000"
 11249      6C655F63 
 11249      6F6E6E48 
 11249      616E646C 
 11249      6500
 11250              	.LASF773:
 11251 0ba7 61647643 		.ascii	"advChannelMap\000"
 11251      68616E6E 
 11251      656C4D61 
 11251      7000
 11252              	.LASF1156:
 11253 0bb5 43595F42 		.ascii	"CY_BLE_EVT_UDSC_NOTIFICATION\000"
 11253      4C455F45 
 11253      56545F55 
 11253      4453435F 
 11253      4E4F5449 
 11254              	.LASF286:
 11255 0bd2 73727373 		.ascii	"srss_interrupt_IRQn\000"
 11255      5F696E74 
 11255      65727275 
 11255      70745F49 
 11255      52516E00 
ARM GAS  C:\Users\D4DE~1\AppData\Local\Temp\cccuUyWy.s 			page 241


 11256              	.LASF269:
 11257 0be6 696F7373 		.ascii	"ioss_interrupts_gpio_5_IRQn\000"
 11257      5F696E74 
 11257      65727275 
 11257      7074735F 
 11257      6770696F 
 11258              	.LASF137:
 11259 0c02 63707573 		.ascii	"cpussBase\000"
 11259      73426173 
 11259      6500
 11260              	.LASF2:
 11261 0c0c 6C6F6E67 		.ascii	"long double\000"
 11261      20646F75 
 11261      626C6500 
 11262              	.LASF468:
 11263 0c18 43595F42 		.ascii	"CY_BLE_EVT_RADIO_VOLTAGE_LEVEL\000"
 11263      4C455F45 
 11263      56545F52 
 11263      4144494F 
 11263      5F564F4C 
 11264              	.LASF485:
 11265 0c37 43595F42 		.ascii	"CY_BLE_EVT_GAPC_SCAN_START_STOP\000"
 11265      4C455F45 
 11265      56545F47 
 11265      4150435F 
 11265      5343414E 
 11266              	.LASF353:
 11267 0c57 63707573 		.ascii	"cpuss_interrupts_cm4_cti_1_IRQn\000"
 11267      735F696E 
 11267      74657272 
 11267      75707473 
 11267      5F636D34 
 11268              	.LASF81:
 11269 0c77 464C4153 		.ascii	"FLASH_BOOT_VT_OFFSET\000"
 11269      485F424F 
 11269      4F545F56 
 11269      545F4F46 
 11269      46534554 
 11270              	.LASF771:
 11271 0c8c 64697265 		.ascii	"directAddrType\000"
 11271      63744164 
 11271      64725479 
 11271      706500
 11272              	.LASF1211:
 11273 0c9b 43795F42 		.ascii	"Cy_BLE_GetConnHandleByBdHandle\000"
 11273      4C455F47 
 11273      6574436F 
 11273      6E6E4861 
 11273      6E646C65 
 11274              	.LASF238:
 11275 0cba 4E766963 		.ascii	"NvicMux8_IRQn\000"
 11275      4D757838 
 11275      5F495251 
 11275      6E00
 11276              	.LASF1054:
 11277 0cc8 43595F42 		.ascii	"CY_BLE_EVT_HPSC_WRITE_CHAR_RESPONSE\000"
 11277      4C455F45 
ARM GAS  C:\Users\D4DE~1\AppData\Local\Temp\cccuUyWy.s 			page 242


 11277      56545F48 
 11277      5053435F 
 11277      57524954 
 11278              	.LASF1186:
 11279 0cec 43595F42 		.ascii	"CY_BLE_EVT_BTSS_EXEC_WRITE_REQ\000"
 11279      4C455F45 
 11279      56545F42 
 11279      5453535F 
 11279      45584543 
 11280              	.LASF435:
 11281 0d0b 43595F42 		.ascii	"CY_BLE_EVT_SET_SUGGESTED_DATA_LENGTH_COMPLETE\000"
 11281      4C455F45 
 11281      56545F53 
 11281      45545F53 
 11281      55474745 
 11282              	.LASF1101:
 11283 0d39 43595F42 		.ascii	"CY_BLE_EVT_NDCSC_READ_CHAR_RESPONSE\000"
 11283      4C455F45 
 11283      56545F4E 
 11283      44435343 
 11283      5F524541 
 11284              	.LASF759:
 11285 0d5d 7363616E 		.ascii	"scanTo\000"
 11285      546F00
 11286              	.LASF192:
 11287 0d64 70657269 		.ascii	"periTrGrOffset\000"
 11287      54724772 
 11287      4F666673 
 11287      657400
 11288              	.LASF351:
 11289 0d73 63707573 		.ascii	"cpuss_interrupts_cm0_cti_1_IRQn\000"
 11289      735F696E 
 11289      74657272 
 11289      75707473 
 11289      5F636D30 
 11290              	.LASF1253:
 11291 0d93 43795F53 		.ascii	"Cy_SysLib_AssertFailed\000"
 11291      79734C69 
 11291      625F4173 
 11291      73657274 
 11291      4661696C 
 11292              	.LASF28:
 11293 0daa 4449455F 		.ascii	"DIE_LOT\000"
 11293      4C4F5400 
 11294              	.LASF1106:
 11295 0db2 43595F42 		.ascii	"CY_BLE_EVT_PASSC_READ_CHAR_RESPONSE\000"
 11295      4C455F45 
 11295      56545F50 
 11295      41535343 
 11295      5F524541 
 11296              	.LASF194:
 11297 0dd6 70657269 		.ascii	"periDivCmdDivSelMsk\000"
 11297      44697643 
 11297      6D644469 
 11297      7653656C 
 11297      4D736B00 
 11298              	.LASF756:
ARM GAS  C:\Users\D4DE~1\AppData\Local\Temp\cccuUyWy.s 			page 243


 11299 0dea 7363616E 		.ascii	"scanWindow\000"
 11299      57696E64 
 11299      6F7700
 11300              	.LASF1028:
 11301 0df5 43595F42 		.ascii	"CY_BLE_EVT_GLSS_WRITE_CHAR\000"
 11301      4C455F45 
 11301      56545F47 
 11301      4C53535F 
 11301      57524954 
 11302              	.LASF1034:
 11303 0e10 43595F42 		.ascii	"CY_BLE_EVT_GLSC_WRITE_DESCR_RESPONSE\000"
 11303      4C455F45 
 11303      56545F47 
 11303      4C53435F 
 11303      57524954 
 11304              	.LASF428:
 11305 0e35 43595F42 		.ascii	"CY_BLE_EVT_HARDWARE_ERROR\000"
 11305      4C455F45 
 11305      56545F48 
 11305      41524457 
 11305      4152455F 
 11306              	.LASF299:
 11307 0e4f 63707573 		.ascii	"cpuss_interrupts_ipc_10_IRQn\000"
 11307      735F696E 
 11307      74657272 
 11307      75707473 
 11307      5F697063 
 11308              	.LASF182:
 11309 0e6c 666C6173 		.ascii	"flashCtlMainWs3Freq\000"
 11309      6843746C 
 11309      4D61696E 
 11309      57733346 
 11309      72657100 
 11310              	.LASF674:
 11311 0e80 43595F42 		.ascii	"CY_BLE_GATTS_ERR_CCCD_IMPROPERLY_CONFIGURED\000"
 11311      4C455F47 
 11311      41545453 
 11311      5F455252 
 11311      5F434343 
 11312              	.LASF32:
 11313 0eac 4449455F 		.ascii	"DIE_SORT\000"
 11313      534F5254 
 11313      00
 11314              	.LASF1152:
 11315 0eb5 43595F42 		.ascii	"CY_BLE_EVT_UDSS_NOTIFICATION_DISABLED\000"
 11315      4C455F45 
 11315      56545F55 
 11315      4453535F 
 11315      4E4F5449 
 11316              	.LASF495:
 11317 0edb 43595F42 		.ascii	"CY_BLE_EVT_GAP_RESOLVE_DEVICE_COMPLETE\000"
 11317      4C455F45 
 11317      56545F47 
 11317      41505F52 
 11317      45534F4C 
 11318              	.LASF769:
 11319 0f02 61647649 		.ascii	"advIntvMax\000"
ARM GAS  C:\Users\D4DE~1\AppData\Local\Temp\cccuUyWy.s 			page 244


 11319      6E74764D 
 11319      617800
 11320              	.LASF907:
 11321 0f0d 43595F42 		.ascii	"CY_BLE_EVT_AIOSS_INDICATION_DISABLED\000"
 11321      4C455F45 
 11321      56545F41 
 11321      494F5353 
 11321      5F494E44 
 11322              	.LASF676:
 11323 0f32 43595F42 		.ascii	"CY_BLE_GATT_ERR_INVALID_CRC\000"
 11323      4C455F47 
 11323      4154545F 
 11323      4552525F 
 11323      494E5641 
 11324              	.LASF544:
 11325 0f4e 43595F42 		.ascii	"CY_BLE_ERROR_INSUFFICIENT_RESOURCES\000"
 11325      4C455F45 
 11325      52524F52 
 11325      5F494E53 
 11325      55464649 
 11326              	.LASF446:
 11327 0f72 43595F42 		.ascii	"CY_BLE_EVT_REMOVE_DEVICE_FROM_WHITE_LIST_COMPLETE\000"
 11327      4C455F45 
 11327      56545F52 
 11327      454D4F56 
 11327      455F4445 
 11328              	.LASF813:
 11329 0fa4 66617374 		.ascii	"fastAdvTimeOut\000"
 11329      41647654 
 11329      696D654F 
 11329      757400
 11330              	.LASF369:
 11331 0fb3 74637077 		.ascii	"tcpwm_1_interrupts_7_IRQn\000"
 11331      6D5F315F 
 11331      696E7465 
 11331      72727570 
 11331      74735F37 
 11332              	.LASF149:
 11333 0fcd 64775665 		.ascii	"dwVersion\000"
 11333      7273696F 
 11333      6E00
 11334              	.LASF906:
 11335 0fd7 43595F42 		.ascii	"CY_BLE_EVT_AIOSS_INDICATION_ENABLED\000"
 11335      4C455F45 
 11335      56545F41 
 11335      494F5353 
 11335      5F494E44 
 11336              	.LASF1102:
 11337 0ffb 43595F42 		.ascii	"CY_BLE_EVT_PASSS_NOTIFICATION_ENABLED\000"
 11337      4C455F45 
 11337      56545F50 
 11337      41535353 
 11337      5F4E4F54 
 11338              	.LASF406:
 11339 1021 736D6966 		.ascii	"smif_interrupt_IRQn\000"
 11339      5F696E74 
 11339      65727275 
ARM GAS  C:\Users\D4DE~1\AppData\Local\Temp\cccuUyWy.s 			page 245


 11339      70745F49 
 11339      52516E00 
 11340              	.LASF412:
 11341 1035 63795F65 		.ascii	"cy_en_intr_t\000"
 11341      6E5F696E 
 11341      74725F74 
 11341      00
 11342              	.LASF898:
 11343 1042 43595F42 		.ascii	"CY_BLE_EVT_GATTC_DESCR_DUPLICATION\000"
 11343      4C455F45 
 11343      56545F47 
 11343      41545443 
 11343      5F444553 
 11344              	.LASF157:
 11345 1065 63707573 		.ascii	"cpussIpcIrqNr\000"
 11345      73497063 
 11345      4972714E 
 11345      7200
 11346              	.LASF425:
 11347 1073 43595F42 		.ascii	"CY_BLE_EVT_MEMORY_REQUEST\000"
 11347      4C455F45 
 11347      56545F4D 
 11347      454D4F52 
 11347      595F5245 
 11348              	.LASF607:
 11349 108d 626C6550 		.ascii	"blePwrLevel\000"
 11349      77724C65 
 11349      76656C00 
 11350              	.LASF799:
 11351 1099 43595F42 		.ascii	"CY_BLE_CONN_STATE_CLIENT_INCL_DISCOVERING\000"
 11351      4C455F43 
 11351      4F4E4E5F 
 11351      53544154 
 11351      455F434C 
 11352              	.LASF1239:
 11353 10c3 43795F42 		.ascii	"Cy_BLE_ApplCallback\000"
 11353      4C455F41 
 11353      70706C43 
 11353      616C6C62 
 11353      61636B00 
 11354              	.LASF653:
 11355 10d7 43595F42 		.ascii	"CY_BLE_GATT_ERR_INVALID_PDU\000"
 11355      4C455F47 
 11355      4154545F 
 11355      4552525F 
 11355      494E5641 
 11356              	.LASF637:
 11357 10f3 43595F42 		.ascii	"CY_BLE_GATT_WRITE_RSP\000"
 11357      4C455F47 
 11357      4154545F 
 11357      57524954 
 11357      455F5253 
 11358              	.LASF212:
 11359 1109 63707573 		.ascii	"cpussTrimRamCtlOffset\000"
 11359      73547269 
 11359      6D52616D 
 11359      43746C4F 
ARM GAS  C:\Users\D4DE~1\AppData\Local\Temp\cccuUyWy.s 			page 246


 11359      66667365 
 11360              	.LASF891:
 11361 111f 43595F42 		.ascii	"CY_BLE_EVT_GATTC_INDICATION\000"
 11361      4C455F45 
 11361      56545F47 
 11361      41545443 
 11361      5F494E44 
 11362              	.LASF919:
 11363 113b 43595F42 		.ascii	"CY_BLE_EVT_ANCSS_NOTIFICATION_DISABLED\000"
 11363      4C455F45 
 11363      56545F41 
 11363      4E435353 
 11363      5F4E4F54 
 11364              	.LASF57:
 11365 1162 5354414E 		.ascii	"STANDARD_PPU_STRUCT\000"
 11365      44415244 
 11365      5F505055 
 11365      5F535452 
 11365      55435400 
 11366              	.LASF325:
 11367 1176 63707573 		.ascii	"cpuss_interrupts_dw0_11_IRQn\000"
 11367      735F696E 
 11367      74657272 
 11367      75707473 
 11367      5F647730 
 11368              	.LASF783:
 11369 1193 61647650 		.ascii	"advParam\000"
 11369      6172616D 
 11369      00
 11370              	.LASF634:
 11371 119c 43595F42 		.ascii	"CY_BLE_GATT_READ_BY_GROUP_REQ\000"
 11371      4C455F47 
 11371      4154545F 
 11371      52454144 
 11371      5F42595F 
 11372              	.LASF1079:
 11373 11ba 43595F42 		.ascii	"CY_BLE_EVT_IPSC_READ_CHAR_RESPONSE\000"
 11373      4C455F45 
 11373      56545F49 
 11373      5053435F 
 11373      52454144 
 11374              	.LASF1117:
 11375 11dd 43595F42 		.ascii	"CY_BLE_EVT_PLXSC_READ_CHAR_RESPONSE\000"
 11375      4C455F45 
 11375      56545F50 
 11375      4C585343 
 11375      5F524541 
 11376              	.LASF684:
 11377 1201 43595F42 		.ascii	"CY_BLE_GATT_ERR_CCCD_IMPROPERLY_CONFIGURED\000"
 11377      4C455F47 
 11377      4154545F 
 11377      4552525F 
 11377      43434344 
 11378              	.LASF600:
 11379 122c 43595F42 		.ascii	"CY_BLE_INVALID_REQUEST\000"
 11379      4C455F49 
 11379      4E56414C 
ARM GAS  C:\Users\D4DE~1\AppData\Local\Temp\cccuUyWy.s 			page 247


 11379      49445F52 
 11379      45515545 
 11380              	.LASF722:
 11381 1243 43595F42 		.ascii	"CY_BLE_GAP_AUTH_ERROR_INVALID_PARAMETERS\000"
 11381      4C455F47 
 11381      41505F41 
 11381      5554485F 
 11381      4552524F 
 11382              	.LASF569:
 11383 126c 63795F65 		.ascii	"cy_en_ble_api_result_t\000"
 11383      6E5F626C 
 11383      655F6170 
 11383      695F7265 
 11383      73756C74 
 11384              	.LASF681:
 11385 1283 43595F42 		.ascii	"CY_BLE_GATT_ERR_ANCS_INVALID_COMMAND\000"
 11385      4C455F47 
 11385      4154545F 
 11385      4552525F 
 11385      414E4353 
 11386              	.LASF357:
 11387 12a8 74637077 		.ascii	"tcpwm_0_interrupts_3_IRQn\000"
 11387      6D5F305F 
 11387      696E7465 
 11387      72727570 
 11387      74735F33 
 11388              	.LASF947:
 11389 12c2 43595F42 		.ascii	"CY_BLE_EVT_BLSS_INDICATION_ENABLED\000"
 11389      4C455F45 
 11389      56545F42 
 11389      4C53535F 
 11389      494E4449 
 11390              	.LASF1224:
 11391 12e5 63636364 		.ascii	"cccdCrc\000"
 11391      43726300 
 11392              	.LASF1254:
 11393 12ed 43795F42 		.ascii	"Cy_BLE_HAL_CalcCRC8\000"
 11393      4C455F48 
 11393      414C5F43 
 11393      616C6343 
 11393      52433800 
 11394              	.LASF629:
 11395 1301 43595F42 		.ascii	"CY_BLE_GATT_READ_RSP\000"
 11395      4C455F47 
 11395      4154545F 
 11395      52454144 
 11395      5F525350 
 11396              	.LASF1090:
 11397 1316 43595F42 		.ascii	"CY_BLE_EVT_LNSS_INDICATION_DISABLED\000"
 11397      4C455F45 
 11397      56545F4C 
 11397      4E53535F 
 11397      494E4449 
 11398              	.LASF1048:
 11399 133a 43595F42 		.ascii	"CY_BLE_EVT_HPSS_NOTIFICATION_DISABLED\000"
 11399      4C455F45 
 11399      56545F48 
ARM GAS  C:\Users\D4DE~1\AppData\Local\Temp\cccuUyWy.s 			page 248


 11399      5053535F 
 11399      4E4F5449 
 11400              	.LASF969:
 11401 1360 43595F42 		.ascii	"CY_BLE_EVT_CGMSC_READ_CHAR_RESPONSE\000"
 11401      4C455F45 
 11401      56545F43 
 11401      474D5343 
 11401      5F524541 
 11402              	.LASF1197:
 11403 1384 43795F42 		.ascii	"Cy_BLE_SetAdvertisementState\000"
 11403      4C455F53 
 11403      65744164 
 11403      76657274 
 11403      6973656D 
 11404              	.LASF950:
 11405 13a1 43595F42 		.ascii	"CY_BLE_EVT_BLSS_NOTIFICATION_ENABLED\000"
 11405      4C455F45 
 11405      56545F42 
 11405      4C53535F 
 11405      4E4F5449 
 11406              	.LASF392:
 11407 13c6 7564625F 		.ascii	"udb_interrupts_6_IRQn\000"
 11407      696E7465 
 11407      72727570 
 11407      74735F36 
 11407      5F495251 
 11408              	.LASF714:
 11409 13dc 43595F42 		.ascii	"CY_BLE_GAP_AUTH_ERROR_OOB_DATA_NOT_AVAILABLE\000"
 11409      4C455F47 
 11409      41505F41 
 11409      5554485F 
 11409      4552524F 
 11410              	.LASF338:
 11411 1409 63707573 		.ascii	"cpuss_interrupts_dw1_8_IRQn\000"
 11411      735F696E 
 11411      74657272 
 11411      75707473 
 11411      5F647731 
 11412              	.LASF499:
 11413 1425 43595F42 		.ascii	"CY_BLE_EVT_GAPP_UPDATE_ADV_SCAN_DATA_COMPLETE\000"
 11413      4C455F45 
 11413      56545F47 
 11413      4150505F 
 11413      55504441 
 11414              	.LASF663:
 11415 1453 43595F42 		.ascii	"CY_BLE_GATT_ERR_UNLIKELY_ERROR\000"
 11415      4C455F47 
 11415      4154545F 
 11415      4552525F 
 11415      554E4C49 
 11416              	.LASF581:
 11417 1472 43595F42 		.ascii	"CY_BLE_LL_PWR_LVL_NEG_12_DBM\000"
 11417      4C455F4C 
 11417      4C5F5057 
 11417      525F4C56 
 11417      4C5F4E45 
 11418              	.LASF484:
ARM GAS  C:\Users\D4DE~1\AppData\Local\Temp\cccuUyWy.s 			page 249


 11419 148f 43595F42 		.ascii	"CY_BLE_EVT_GAP_CONNECTION_UPDATE_COMPLETE\000"
 11419      4C455F45 
 11419      56545F47 
 11419      41505F43 
 11419      4F4E4E45 
 11420              	.LASF832:
 11421 14b9 67617474 		.ascii	"gattErrorCode\000"
 11421      4572726F 
 11421      72436F64 
 11421      6500
 11422              	.LASF900:
 11423 14c7 43595F42 		.ascii	"CY_BLE_EVT_GATTC_INCL_DISCOVERY_COMPLETE\000"
 11423      4C455F45 
 11423      56545F47 
 11423      41545443 
 11423      5F494E43 
 11424              	.LASF699:
 11425 14f0 63795F73 		.ascii	"cy_stc_ble_gatt_err_info_t\000"
 11425      74635F62 
 11425      6C655F67 
 11425      6174745F 
 11425      6572725F 
 11426              	.LASF729:
 11427 150b 63795F65 		.ascii	"cy_en_ble_gap_auth_failed_reason_t\000"
 11427      6E5F626C 
 11427      655F6761 
 11427      705F6175 
 11427      74685F66 
 11428              	.LASF997:
 11429 152e 43595F42 		.ascii	"CY_BLE_EVT_CSCSC_READ_CHAR_RESPONSE\000"
 11429      4C455F45 
 11429      56545F43 
 11429      53435343 
 11429      5F524541 
 11430              	.LASF989:
 11431 1552 43595F42 		.ascii	"CY_BLE_EVT_CSCSS_NOTIFICATION_ENABLED\000"
 11431      4C455F45 
 11431      56545F43 
 11431      53435353 
 11431      5F4E4F54 
 11432              	.LASF878:
 11433 1578 70617261 		.ascii	"params\000"
 11433      6D7300
 11434              	.LASF343:
 11435 157f 63707573 		.ascii	"cpuss_interrupts_dw1_13_IRQn\000"
 11435      735F696E 
 11435      74657272 
 11435      75707473 
 11435      5F647731 
 11436              	.LASF38:
 11437 159c 5341525F 		.ascii	"SAR_TEMP_MULTIPLIER\000"
 11437      54454D50 
 11437      5F4D554C 
 11437      5449504C 
 11437      49455200 
 11438              	.LASF257:
 11439 15b0 4E766963 		.ascii	"NvicMux27_IRQn\000"
ARM GAS  C:\Users\D4DE~1\AppData\Local\Temp\cccuUyWy.s 			page 250


 11439      4D757832 
 11439      375F4952 
 11439      516E00
 11440              	.LASF713:
 11441 15bf 43595F42 		.ascii	"CY_BLE_GAP_AUTH_ERROR_PASSKEY_ENTRY_FAILED\000"
 11441      4C455F47 
 11441      41505F41 
 11441      5554485F 
 11441      4552524F 
 11442              	.LASF266:
 11443 15ea 696F7373 		.ascii	"ioss_interrupts_gpio_2_IRQn\000"
 11443      5F696E74 
 11443      65727275 
 11443      7074735F 
 11443      6770696F 
 11444              	.LASF414:
 11445 1606 63686172 		.ascii	"char_t\000"
 11445      5F7400
 11446              	.LASF750:
 11447 160d 6D617374 		.ascii	"masterClockAccuracy\000"
 11447      6572436C 
 11447      6F636B41 
 11447      63637572 
 11447      61637900 
 11448              	.LASF735:
 11449 1621 63795F73 		.ascii	"cy_stc_ble_gap_bd_addr_t\000"
 11449      74635F62 
 11449      6C655F67 
 11449      61705F62 
 11449      645F6164 
 11450              	.LASF437:
 11451 163a 43595F42 		.ascii	"CY_BLE_EVT_DATA_LENGTH_CHANGE\000"
 11451      4C455F45 
 11451      56545F44 
 11451      4154415F 
 11451      4C454E47 
 11452              	.LASF1213:
 11453 1658 6576656E 		.ascii	"event\000"
 11453      7400
 11454              	.LASF235:
 11455 165e 4E766963 		.ascii	"NvicMux5_IRQn\000"
 11455      4D757835 
 11455      5F495251 
 11455      6E00
 11456              	.LASF586:
 11457 166c 43595F42 		.ascii	"CY_BLE_LL_ADV_CH_TYPE\000"
 11457      4C455F4C 
 11457      4C5F4144 
 11457      565F4348 
 11457      5F545950 
 11458              	.LASF1088:
 11459 1682 43595F42 		.ascii	"CY_BLE_EVT_LLSC_WRITE_CHAR_RESPONSE\000"
 11459      4C455F45 
 11459      56545F4C 
 11459      4C53435F 
 11459      57524954 
 11460              	.LASF1123:
ARM GAS  C:\Users\D4DE~1\AppData\Local\Temp\cccuUyWy.s 			page 251


 11461 16a6 43595F42 		.ascii	"CY_BLE_EVT_RSCSS_NOTIFICATION_DISABLED\000"
 11461      4C455F45 
 11461      56545F52 
 11461      53435353 
 11461      5F4E4F54 
 11462              	.LASF1020:
 11463 16cd 43595F42 		.ascii	"CY_BLE_EVT_ESSC_WRITE_CHAR_RESPONSE\000"
 11463      4C455F45 
 11463      56545F45 
 11463      5353435F 
 11463      57524954 
 11464              	.LASF554:
 11465 16f1 43595F42 		.ascii	"CY_BLE_ERROR_L2CAP_PSM_NOT_REGISTERED\000"
 11465      4C455F45 
 11465      52524F52 
 11465      5F4C3243 
 11465      41505F50 
 11466              	.LASF514:
 11467 1717 43595F42 		.ascii	"CY_BLE_EVT_GATTC_WRITE_RSP\000"
 11467      4C455F45 
 11467      56545F47 
 11467      41545443 
 11467      5F575249 
 11468              	.LASF573:
 11469 1732 6C6F6275 		.ascii	"lobuffTable\000"
 11469      66665461 
 11469      626C6500 
 11470              	.LASF904:
 11471 173e 43595F42 		.ascii	"CY_BLE_EVT_AIOSS_NOTIFICATION_ENABLED\000"
 11471      4C455F45 
 11471      56545F41 
 11471      494F5353 
 11471      5F4E4F54 
 11472              	.LASF1160:
 11473 1764 43595F42 		.ascii	"CY_BLE_EVT_UDSC_WRITE_DESCR_RESPONSE\000"
 11473      4C455F45 
 11473      56545F55 
 11473      4453435F 
 11473      57524954 
 11474              	.LASF526:
 11475 1789 43595F42 		.ascii	"CY_BLE_EVT_L2CAP_CONN_PARAM_UPDATE_REQ\000"
 11475      4C455F45 
 11475      56545F4C 
 11475      32434150 
 11475      5F434F4E 
 11476              	.LASF765:
 11477 17b0 43595F42 		.ascii	"CY_BLE_GAPP_NON_CONNECTABLE_UNDIRECTED_ADV\000"
 11477      4C455F47 
 11477      4150505F 
 11477      4E4F4E5F 
 11477      434F4E4E 
 11478              	.LASF605:
 11479 17db 626C6553 		.ascii	"bleSsChId\000"
 11479      73436849 
 11479      6400
 11480              	.LASF407:
 11481 17e5 7573625F 		.ascii	"usb_interrupt_hi_IRQn\000"
ARM GAS  C:\Users\D4DE~1\AppData\Local\Temp\cccuUyWy.s 			page 252


 11481      696E7465 
 11481      72727570 
 11481      745F6869 
 11481      5F495251 
 11482              	.LASF229:
 11483 17fb 53797354 		.ascii	"SysTick_IRQn\000"
 11483      69636B5F 
 11483      4952516E 
 11483      00
 11484              	.LASF1237:
 11485 1808 63795F62 		.ascii	"cy_ble_peerBonding\000"
 11485      6C655F70 
 11485      65657242 
 11485      6F6E6469 
 11485      6E6700
 11486              	.LASF794:
 11487 181b 63795F65 		.ascii	"cy_en_ble_adv_state_t\000"
 11487      6E5F626C 
 11487      655F6164 
 11487      765F7374 
 11487      6174655F 
 11488              	.LASF863:
 11489 1831 73656375 		.ascii	"securityIoCapability\000"
 11489      72697479 
 11489      496F4361 
 11489      70616269 
 11489      6C697479 
 11490              	.LASF214:
 11491 1846 63707573 		.ascii	"cpussSysTickCtlOffset\000"
 11491      73537973 
 11491      5469636B 
 11491      43746C4F 
 11491      66667365 
 11492              	.LASF1111:
 11493 185c 43595F42 		.ascii	"CY_BLE_EVT_PLXSS_INDICATION_CONFIRMED\000"
 11493      4C455F45 
 11493      56545F50 
 11493      4C585353 
 11493      5F494E44 
 11494              	.LASF913:
 11495 1882 43595F42 		.ascii	"CY_BLE_EVT_AIOSC_READ_CHAR_RESPONSE\000"
 11495      4C455F45 
 11495      56545F41 
 11495      494F5343 
 11495      5F524541 
 11496              	.LASF652:
 11497 18a6 43595F42 		.ascii	"CY_BLE_GATT_ERR_WRITE_NOT_PERMITTED\000"
 11497      4C455F47 
 11497      4154545F 
 11497      4552525F 
 11497      57524954 
 11498              	.LASF480:
 11499 18ca 43595F42 		.ascii	"CY_BLE_EVT_GAPP_ADVERTISEMENT_START_STOP\000"
 11499      4C455F45 
 11499      56545F47 
 11499      4150505F 
 11499      41445645 
ARM GAS  C:\Users\D4DE~1\AppData\Local\Temp\cccuUyWy.s 			page 253


 11500              	.LASF782:
 11501 18f3 64697363 		.ascii	"discMode\000"
 11501      4D6F6465 
 11501      00
 11502              	.LASF1103:
 11503 18fc 43595F42 		.ascii	"CY_BLE_EVT_PASSS_NOTIFICATION_DISABLED\000"
 11503      4C455F45 
 11503      56545F50 
 11503      41535353 
 11503      5F4E4F54 
 11504              	.LASF276:
 11505 1923 696F7373 		.ascii	"ioss_interrupts_gpio_12_IRQn\000"
 11505      5F696E74 
 11505      65727275 
 11505      7074735F 
 11505      6770696F 
 11506              	.LASF1140:
 11507 1940 43595F42 		.ascii	"CY_BLE_EVT_SCPSC_READ_DESCR_RESPONSE\000"
 11507      4C455F45 
 11507      56545F53 
 11507      43505343 
 11507      5F524541 
 11508              	.LASF1089:
 11509 1965 43595F42 		.ascii	"CY_BLE_EVT_LNSS_INDICATION_ENABLED\000"
 11509      4C455F45 
 11509      56545F4C 
 11509      4E53535F 
 11509      494E4449 
 11510              	.LASF323:
 11511 1988 63707573 		.ascii	"cpuss_interrupts_dw0_9_IRQn\000"
 11511      735F696E 
 11511      74657272 
 11511      75707473 
 11511      5F647730 
 11512              	.LASF762:
 11513 19a4 43595F42 		.ascii	"CY_BLE_GAPP_CONNECTABLE_UNDIRECTED_ADV\000"
 11513      4C455F47 
 11513      4150505F 
 11513      434F4E4E 
 11513      45435441 
 11514              	.LASF736:
 11515 19cb 73656375 		.ascii	"security\000"
 11515      72697479 
 11515      00
 11516              	.LASF809:
 11517 19d4 7265736F 		.ascii	"resolvablePrivateAddressOnly\000"
 11517      6C766162 
 11517      6C655072 
 11517      69766174 
 11517      65416464 
 11518              	.LASF440:
 11519 19f1 43595F42 		.ascii	"CY_BLE_EVT_SET_RPA_TO_COMPLETE\000"
 11519      4C455F45 
 11519      56545F53 
 11519      45545F52 
 11519      50415F54 
 11520              	.LASF261:
ARM GAS  C:\Users\D4DE~1\AppData\Local\Temp\cccuUyWy.s 			page 254


 11521 1a10 4E766963 		.ascii	"NvicMux31_IRQn\000"
 11521      4D757833 
 11521      315F4952 
 11521      516E00
 11522              	.LASF130:
 11523 1a1f 52544F43 		.ascii	"RTOC2_SHASH_OBJECTS\000"
 11523      325F5348 
 11523      4153485F 
 11523      4F424A45 
 11523      43545300 
 11524              	.LASF701:
 11525 1a33 63795F73 		.ascii	"cy_stc_ble_gatt_err_param_t\000"
 11525      74635F62 
 11525      6C655F67 
 11525      6174745F 
 11525      6572725F 
 11526              	.LASF470:
 11527 1a4f 43595F42 		.ascii	"CY_BLE_EVT_SET_EVENT_MASK_COMPLETE\000"
 11527      4C455F45 
 11527      56545F53 
 11527      45545F45 
 11527      56454E54 
 11528              	.LASF685:
 11529 1a72 43595F42 		.ascii	"CY_BLE_GATT_ERR_PROCEDURE_ALREADY_IN_PROGRESS\000"
 11529      4C455F47 
 11529      4154545F 
 11529      4552525F 
 11529      50524F43 
 11530              	.LASF444:
 11531 1aa0 43595F42 		.ascii	"CY_BLE_EVT_REMOVE_DEVICE_FROM_RPA_LIST_COMPLETE\000"
 11531      4C455F45 
 11531      56545F52 
 11531      454D4F56 
 11531      455F4445 
 11532              	.LASF354:
 11533 1ad0 74637077 		.ascii	"tcpwm_0_interrupts_0_IRQn\000"
 11533      6D5F305F 
 11533      696E7465 
 11533      72727570 
 11533      74735F30 
 11534              	.LASF720:
 11535 1aea 43595F42 		.ascii	"CY_BLE_GAP_AUTH_ERROR_UNSPECIFIED_REASON\000"
 11535      4C455F47 
 11535      41505F41 
 11535      5554485F 
 11535      4552524F 
 11536              	.LASF91:
 11537 1b13 544F4331 		.ascii	"TOC1_GENERAL_TRIM_ADDR_UNUSED\000"
 11537      5F47454E 
 11537      4552414C 
 11537      5F545249 
 11537      4D5F4144 
 11538              	.LASF1155:
 11539 1b31 43595F42 		.ascii	"CY_BLE_EVT_UDSC_INDICATION\000"
 11539      4C455F45 
 11539      56545F55 
 11539      4453435F 
ARM GAS  C:\Users\D4DE~1\AppData\Local\Temp\cccuUyWy.s 			page 255


 11539      494E4449 
 11540              	.LASF547:
 11541 1b4c 43595F42 		.ascii	"CY_BLE_ERROR_NO_DEVICE_ENTITY\000"
 11541      4C455F45 
 11541      52524F52 
 11541      5F4E4F5F 
 11541      44455649 
 11542              	.LASF153:
 11543 1b6a 69706356 		.ascii	"ipcVersion\000"
 11543      65727369 
 11543      6F6E00
 11544              	.LASF196:
 11545 1b75 70657269 		.ascii	"periDivCmdPaDivSelPos\000"
 11545      44697643 
 11545      6D645061 
 11545      44697653 
 11545      656C506F 
 11546              	.LASF715:
 11547 1b8b 43595F42 		.ascii	"CY_BLE_GAP_AUTH_ERROR_AUTHENTICATION_REQ_NOT_MET\000"
 11547      4C455F47 
 11547      41505F41 
 11547      5554485F 
 11547      4552524F 
 11548              	.LASF154:
 11549 1bbc 70657269 		.ascii	"periVersion\000"
 11549      56657273 
 11549      696F6E00 
 11550              	.LASF5:
 11551 1bc8 5F5F7569 		.ascii	"__uint8_t\000"
 11551      6E74385F 
 11551      7400
 11552              	.LASF1181:
 11553 1bd2 43595F42 		.ascii	"CY_BLE_EVT_BTSS_NOTIFICATION_ENABLED\000"
 11553      4C455F45 
 11553      56545F42 
 11553      5453535F 
 11553      4E4F5449 
 11554              	.LASF389:
 11555 1bf7 7564625F 		.ascii	"udb_interrupts_3_IRQn\000"
 11555      696E7465 
 11555      72727570 
 11555      74735F33 
 11555      5F495251 
 11556              	.LASF352:
 11557 1c0d 63707573 		.ascii	"cpuss_interrupts_cm4_cti_0_IRQn\000"
 11557      735F696E 
 11557      74657272 
 11557      75707473 
 11557      5F636D34 
 11558              	.LASF689:
 11559 1c2d 61637475 		.ascii	"actualLen\000"
 11559      616C4C65 
 11559      6E00
 11560              	.LASF522:
 11561 1c37 43595F42 		.ascii	"CY_BLE_EVT_GATTS_DATA_SIGNED_CMD_REQ\000"
 11561      4C455F45 
 11561      56545F47 
ARM GAS  C:\Users\D4DE~1\AppData\Local\Temp\cccuUyWy.s 			page 256


 11561      41545453 
 11561      5F444154 
 11562              	.LASF335:
 11563 1c5c 63707573 		.ascii	"cpuss_interrupts_dw1_5_IRQn\000"
 11563      735F696E 
 11563      74657272 
 11563      75707473 
 11563      5F647731 
 11564              	.LASF1050:
 11565 1c78 43595F42 		.ascii	"CY_BLE_EVT_HPSC_NOTIFICATION\000"
 11565      4C455F45 
 11565      56545F48 
 11565      5053435F 
 11565      4E4F5449 
 11566              	.LASF366:
 11567 1c95 74637077 		.ascii	"tcpwm_1_interrupts_4_IRQn\000"
 11567      6D5F315F 
 11567      696E7465 
 11567      72727570 
 11567      74735F34 
 11568              	.LASF489:
 11569 1caf 43595F42 		.ascii	"CY_BLE_EVT_GAP_OOB_GENERATED_NOTIFICATION\000"
 11569      4C455F45 
 11569      56545F47 
 11569      41505F4F 
 11569      4F425F47 
 11570              	.LASF993:
 11571 1cd9 43595F42 		.ascii	"CY_BLE_EVT_CSCSS_INDICATION_CONFIRMATION\000"
 11571      4C455F45 
 11571      56545F43 
 11571      53435353 
 11571      5F494E44 
 11572              	.LASF380:
 11573 1d02 74637077 		.ascii	"tcpwm_1_interrupts_18_IRQn\000"
 11573      6D5F315F 
 11573      696E7465 
 11573      72727570 
 11573      74735F31 
 11574              	.LASF570:
 11575 1d1d 62644164 		.ascii	"bdAddr\000"
 11575      647200
 11576              	.LASF579:
 11577 1d24 43595F42 		.ascii	"CY_BLE_LL_PWR_LVL_NEG_20_DBM\000"
 11577      4C455F4C 
 11577      4C5F5057 
 11577      525F4C56 
 11577      4C5F4E45 
 11578              	.LASF883:
 11579 1d41 63795F73 		.ascii	"cy_stc_ble_config_t\000"
 11579      74635F62 
 11579      6C655F63 
 11579      6F6E6669 
 11579      675F7400 
 11580              	.LASF340:
 11581 1d55 63707573 		.ascii	"cpuss_interrupts_dw1_10_IRQn\000"
 11581      735F696E 
 11581      74657272 
ARM GAS  C:\Users\D4DE~1\AppData\Local\Temp\cccuUyWy.s 			page 257


 11581      75707473 
 11581      5F647731 
 11582              	.LASF421:
 11583 1d72 43595F42 		.ascii	"CY_BLE_EVT_INVALID\000"
 11583      4C455F45 
 11583      56545F49 
 11583      4E56414C 
 11583      494400
 11584              	.LASF1058:
 11585 1d85 43595F42 		.ascii	"CY_BLE_EVT_HRSC_NOTIFICATION\000"
 11585      4C455F45 
 11585      56545F48 
 11585      5253435F 
 11585      4E4F5449 
 11586              	.LASF254:
 11587 1da2 4E766963 		.ascii	"NvicMux24_IRQn\000"
 11587      4D757832 
 11587      345F4952 
 11587      516E00
 11588              	.LASF768:
 11589 1db1 61647649 		.ascii	"advIntvMin\000"
 11589      6E74764D 
 11589      696E00
 11590              	.LASF1266:
 11591 1dbc 43795F42 		.ascii	"Cy_BLE_GetAdvertisementState\000"
 11591      4C455F47 
 11591      65744164 
 11591      76657274 
 11591      6973656D 
 11592              	.LASF954:
 11593 1dd9 43595F42 		.ascii	"CY_BLE_EVT_BLSC_READ_CHAR_RESPONSE\000"
 11593      4C455F45 
 11593      56545F42 
 11593      4C53435F 
 11593      52454144 
 11594              	.LASF1162:
 11595 1dfc 43595F42 		.ascii	"CY_BLE_EVT_WPTSS_NOTIFICATION_ENABLED\000"
 11595      4C455F45 
 11595      56545F57 
 11595      50545353 
 11595      5F4E4F54 
 11596              	.LASF232:
 11597 1e22 4E766963 		.ascii	"NvicMux2_IRQn\000"
 11597      4D757832 
 11597      5F495251 
 11597      6E00
 11598              	.LASF860:
 11599 1e30 63795F73 		.ascii	"cy_stc_ble_flash_storage_t\000"
 11599      74635F62 
 11599      6C655F66 
 11599      6C617368 
 11599      5F73746F 
 11600              	.LASF79:
 11601 1e4b 464C4153 		.ascii	"FLASH_BOOT_ATTRIBUTE\000"
 11601      485F424F 
 11601      4F545F41 
 11601      54545249 
ARM GAS  C:\Users\D4DE~1\AppData\Local\Temp\cccuUyWy.s 			page 258


 11601      42555445 
 11602              	.LASF879:
 11603 1e60 63616C6C 		.ascii	"callbackFunc\000"
 11603      6261636B 
 11603      46756E63 
 11603      00
 11604              	.LASF1069:
 11605 1e6d 43595F42 		.ascii	"CY_BLE_EVT_HTSC_NOTIFICATION\000"
 11605      4C455F45 
 11605      56545F48 
 11605      5453435F 
 11605      4E4F5449 
 11606              	.LASF655:
 11607 1e8a 43595F42 		.ascii	"CY_BLE_GATT_ERR_REQUEST_NOT_SUPPORTED\000"
 11607      4C455F47 
 11607      4154545F 
 11607      4552525F 
 11607      52455155 
 11608              	.LASF1049:
 11609 1eb0 43595F42 		.ascii	"CY_BLE_EVT_HPSS_WRITE_CHAR\000"
 11609      4C455F45 
 11609      56545F48 
 11609      5053535F 
 11609      57524954 
 11610              	.LASF535:
 11611 1ecb 43595F42 		.ascii	"CY_BLE_EVT_L2CAP_CBFC_TX_CREDIT_IND\000"
 11611      4C455F45 
 11611      56545F4C 
 11611      32434150 
 11611      5F434246 
 11612              	.LASF870:
 11613 1eef 64697363 		.ascii	"discoveryInfo\000"
 11613      6F766572 
 11613      79496E66 
 11613      6F00
 11614              	.LASF331:
 11615 1efd 63707573 		.ascii	"cpuss_interrupts_dw1_1_IRQn\000"
 11615      735F696E 
 11615      74657272 
 11615      75707473 
 11615      5F647731 
 11616              	.LASF632:
 11617 1f19 43595F42 		.ascii	"CY_BLE_GATT_READ_MULTIPLE_REQ\000"
 11617      4C455F47 
 11617      4154545F 
 11617      52454144 
 11617      5F4D554C 
 11618              	.LASF363:
 11619 1f37 74637077 		.ascii	"tcpwm_1_interrupts_1_IRQn\000"
 11619      6D5F315F 
 11619      696E7465 
 11619      72727570 
 11619      74735F31 
 11620              	.LASF719:
 11621 1f51 43595F42 		.ascii	"CY_BLE_GAP_AUTH_ERROR_COMMAND_NOT_SUPPORTED\000"
 11621      4C455F47 
 11621      41505F41 
ARM GAS  C:\Users\D4DE~1\AppData\Local\Temp\cccuUyWy.s 			page 259


 11621      5554485F 
 11621      4552524F 
 11622              	.LASF82:
 11623 1f7d 464C4153 		.ascii	"FLASH_BOOT_CORE_CPUID\000"
 11623      485F424F 
 11623      4F545F43 
 11623      4F52455F 
 11623      43505549 
 11624              	.LASF426:
 11625 1f93 43595F42 		.ascii	"CY_BLE_EVT_PENDING_FLASH_WRITE\000"
 11625      4C455F45 
 11625      56545F50 
 11625      454E4449 
 11625      4E475F46 
 11626              	.LASF492:
 11627 1fb2 43595F42 		.ascii	"CY_BLE_EVT_GAP_SMP_NEGOTIATED_AUTH_INFO\000"
 11627      4C455F45 
 11627      56545F47 
 11627      41505F53 
 11627      4D505F4E 
 11628              	.LASF1226:
 11629 1fda 63795F64 		.ascii	"cy_device\000"
 11629      65766963 
 11629      6500
 11630              	.LASF583:
 11631 1fe4 43595F42 		.ascii	"CY_BLE_LL_PWR_LVL_0_DBM\000"
 11631      4C455F4C 
 11631      4C5F5057 
 11631      525F4C56 
 11631      4C5F305F 
 11632              	.LASF716:
 11633 1ffc 43595F42 		.ascii	"CY_BLE_GAP_AUTH_ERROR_CONFIRM_VALUE_NOT_MATCH\000"
 11633      4C455F47 
 11633      41505F41 
 11633      5554485F 
 11633      4552524F 
 11634              	.LASF225:
 11635 202a 4E6F6E4D 		.ascii	"NonMaskableInt_IRQn\000"
 11635      61736B61 
 11635      626C6549 
 11635      6E745F49 
 11635      52516E00 
 11636              	.LASF922:
 11637 203e 43595F42 		.ascii	"CY_BLE_EVT_ANCSC_WRITE_CHAR_RESPONSE\000"
 11637      4C455F45 
 11637      56545F41 
 11637      4E435343 
 11637      5F575249 
 11638              	.LASF247:
 11639 2063 4E766963 		.ascii	"NvicMux17_IRQn\000"
 11639      4D757831 
 11639      375F4952 
 11639      516E00
 11640              	.LASF218:
 11641 2072 63707573 		.ascii	"cpussRam0Ctl0\000"
 11641      7352616D 
 11641      3043746C 
ARM GAS  C:\Users\D4DE~1\AppData\Local\Temp\cccuUyWy.s 			page 260


 11641      3000
 11642              	.LASF1248:
 11643 2080 43795F42 		.ascii	"Cy_BLE_HAL_SoftHciHostReceiveControllerPkt\000"
 11643      4C455F48 
 11643      414C5F53 
 11643      6F667448 
 11643      6369486F 
 11644              	.LASF320:
 11645 20ab 63707573 		.ascii	"cpuss_interrupts_dw0_6_IRQn\000"
 11645      735F696E 
 11645      74657272 
 11645      75707473 
 11645      5F647730 
 11646              	.LASF448:
 11647 20c7 43595F42 		.ascii	"CY_BLE_EVT_SET_DEFAULT_PHY_COMPLETE\000"
 11647      4C455F45 
 11647      56545F53 
 11647      45545F44 
 11647      45464155 
 11648              	.LASF1045:
 11649 20eb 43595F42 		.ascii	"CY_BLE_EVT_HIDSC_READ_DESCR_RESPONSE\000"
 11649      4C455F45 
 11649      56545F48 
 11649      49445343 
 11649      5F524541 
 11650              	.LASF88:
 11651 2110 544F4331 		.ascii	"TOC1_OBJECT_SIZE\000"
 11651      5F4F424A 
 11651      4543545F 
 11651      53495A45 
 11651      00
 11652              	.LASF890:
 11653 2121 43595F42 		.ascii	"CY_BLE_EVT_GATTS_INDICATION_DISABLED\000"
 11653      4C455F45 
 11653      56545F47 
 11653      41545453 
 11653      5F494E44 
 11654              	.LASF41:
 11655 2146 4353505F 		.ascii	"CSP_PANEL_ID\000"
 11655      50414E45 
 11655      4C5F4944 
 11655      00
 11656              	.LASF623:
 11657 2153 43595F42 		.ascii	"CY_BLE_GATT_FIND_INFO_RSP\000"
 11657      4C455F47 
 11657      4154545F 
 11657      46494E44 
 11657      5F494E46 
 11658              	.LASF858:
 11659 216d 63636364 		.ascii	"cccdCount\000"
 11659      436F756E 
 11659      7400
 11660              	.LASF537:
 11661 2177 43595F42 		.ascii	"CY_BLE_EVT_MAX\000"
 11661      4C455F45 
 11661      56545F4D 
 11661      415800
ARM GAS  C:\Users\D4DE~1\AppData\Local\Temp\cccuUyWy.s 			page 261


 11662              	.LASF1217:
 11663 2186 6C654D61 		.ascii	"leMask\000"
 11663      736B00
 11664              	.LASF915:
 11665 218d 43595F42 		.ascii	"CY_BLE_EVT_AIOSC_READ_DESCR_RESPONSE\000"
 11665      4C455F45 
 11665      56545F41 
 11665      494F5343 
 11665      5F524541 
 11666              	.LASF1177:
 11667 21b2 43595F42 		.ascii	"CY_BLE_EVT_WSSC_INDICATION\000"
 11667      4C455F45 
 11667      56545F57 
 11667      5353435F 
 11667      494E4449 
 11668              	.LASF551:
 11669 21cd 43595F42 		.ascii	"CY_BLE_ERROR_SEC_FAILED\000"
 11669      4C455F45 
 11669      52524F52 
 11669      5F534543 
 11669      5F464149 
 11670              	.LASF995:
 11671 21e5 43595F42 		.ascii	"CY_BLE_EVT_CSCSC_NOTIFICATION\000"
 11671      4C455F45 
 11671      56545F43 
 11671      53435343 
 11671      5F4E4F54 
 11672              	.LASF1006:
 11673 2203 43595F42 		.ascii	"CY_BLE_EVT_CTSC_READ_DESCR_RESPONSE\000"
 11673      4C455F45 
 11673      56545F43 
 11673      5453435F 
 11673      52454144 
 11674              	.LASF1096:
 11675 2227 43595F42 		.ascii	"CY_BLE_EVT_LNSC_NOTIFICATION\000"
 11675      4C455F45 
 11675      56545F4C 
 11675      4E53435F 
 11675      4E4F5449 
 11676              	.LASF594:
 11677 2244 43595F42 		.ascii	"CY_BLE_GAP_ADV_TO\000"
 11677      4C455F47 
 11677      41505F41 
 11677      44565F54 
 11677      4F00
 11678              	.LASF401:
 11679 2256 7564625F 		.ascii	"udb_interrupts_15_IRQn\000"
 11679      696E7465 
 11679      72727570 
 11679      74735F31 
 11679      355F4952 
 11680              	.LASF215:
 11681 226d 63707573 		.ascii	"cpussCm0NmiCtlOffset\000"
 11681      73436D30 
 11681      4E6D6943 
 11681      746C4F66 
 11681      66736574 
ARM GAS  C:\Users\D4DE~1\AppData\Local\Temp\cccuUyWy.s 			page 262


 11682              	.LASF262:
 11683 2282 756E636F 		.ascii	"unconnected_IRQn\000"
 11683      6E6E6563 
 11683      7465645F 
 11683      4952516E 
 11683      00
 11684              	.LASF183:
 11685 2293 666C6173 		.ascii	"flashCtlMainWs4Freq\000"
 11685      6843746C 
 11685      4D61696E 
 11685      57733446 
 11685      72657100 
 11686              	.LASF416:
 11687 22a7 646F7562 		.ascii	"double\000"
 11687      6C6500
 11688              	.LASF592:
 11689 22ae 7061636B 		.ascii	"packetType\000"
 11689      65745479 
 11689      706500
 11690              	.LASF1038:
 11691 22b9 43595F42 		.ascii	"CY_BLE_EVT_HIDSS_REPORT_MODE_ENTER\000"
 11691      4C455F45 
 11691      56545F48 
 11691      49445353 
 11691      5F524550 
 11692              	.LASF384:
 11693 22dc 74637077 		.ascii	"tcpwm_1_interrupts_22_IRQn\000"
 11693      6D5F315F 
 11693      696E7465 
 11693      72727570 
 11693      74735F32 
 11694              	.LASF956:
 11695 22f7 43595F42 		.ascii	"CY_BLE_EVT_BLSC_WRITE_DESCR_RESPONSE\000"
 11695      4C455F45 
 11695      56545F42 
 11695      4C53435F 
 11695      57524954 
 11696              	.LASF56:
 11697 231c 5354414E 		.ascii	"STANDARD_MPU_STRUCT\000"
 11697      44415244 
 11697      5F4D5055 
 11697      5F535452 
 11697      55435400 
 11698              	.LASF559:
 11699 2330 43595F42 		.ascii	"CY_BLE_ERROR_FLASH_WRITE\000"
 11699      4C455F45 
 11699      52524F52 
 11699      5F464C41 
 11699      53485F57 
 11700              	.LASF386:
 11701 2349 7564625F 		.ascii	"udb_interrupts_0_IRQn\000"
 11701      696E7465 
 11701      72727570 
 11701      74735F30 
 11701      5F495251 
 11702              	.LASF1000:
 11703 235f 43595F42 		.ascii	"CY_BLE_EVT_CSCSC_WRITE_DESCR_RESPONSE\000"
ARM GAS  C:\Users\D4DE~1\AppData\Local\Temp\cccuUyWy.s 			page 263


 11703      4C455F45 
 11703      56545F43 
 11703      53435343 
 11703      5F575249 
 11704              	.LASF935:
 11705 2385 43595F42 		.ascii	"CY_BLE_EVT_BASS_NOTIFICATION_DISABLED\000"
 11705      4C455F45 
 11705      56545F42 
 11705      4153535F 
 11705      4E4F5449 
 11706              	.LASF994:
 11707 23ab 43595F42 		.ascii	"CY_BLE_EVT_CSCSS_WRITE_CHAR\000"
 11707      4C455F45 
 11707      56545F43 
 11707      53435353 
 11707      5F575249 
 11708              	.LASF402:
 11709 23c7 70617373 		.ascii	"pass_interrupt_sar_IRQn\000"
 11709      5F696E74 
 11709      65727275 
 11709      70745F73 
 11709      61725F49 
 11710              	.LASF502:
 11711 23df 43595F42 		.ascii	"CY_BLE_EVT_GATT_CONNECT_IND\000"
 11711      4C455F45 
 11711      56545F47 
 11711      4154545F 
 11711      434F4E4E 
 11712              	.LASF644:
 11713 23fb 43595F42 		.ascii	"CY_BLE_GATT_HANDLE_VALUE_IND\000"
 11713      4C455F47 
 11713      4154545F 
 11713      48414E44 
 11713      4C455F56 
 11714              	.LASF1133:
 11715 2418 43595F42 		.ascii	"CY_BLE_EVT_RSCSC_WRITE_DESCR_RESPONSE\000"
 11715      4C455F45 
 11715      56545F52 
 11715      53435343 
 11715      5F575249 
 11716              	.LASF985:
 11717 243e 43595F42 		.ascii	"CY_BLE_EVT_CPSC_READ_DESCR_RESPONSE\000"
 11717      4C455F45 
 11717      56545F43 
 11717      5053435F 
 11717      52454144 
 11718              	.LASF479:
 11719 2462 43595F42 		.ascii	"CY_BLE_EVT_GAP_AUTH_FAILED\000"
 11719      4C455F45 
 11719      56545F47 
 11719      41505F41 
 11719      5554485F 
 11720              	.LASF404:
 11721 247d 61756469 		.ascii	"audioss_interrupt_pdm_IRQn\000"
 11721      6F73735F 
 11721      696E7465 
 11721      72727570 
ARM GAS  C:\Users\D4DE~1\AppData\Local\Temp\cccuUyWy.s 			page 264


 11721      745F7064 
 11722              	.LASF195:
 11723 2498 70657269 		.ascii	"periDivCmdTypeSelPos\000"
 11723      44697643 
 11723      6D645479 
 11723      70655365 
 11723      6C506F73 
 11724              	.LASF767:
 11725 24ad 63795F65 		.ascii	"cy_en_ble_gapp_adv_t\000"
 11725      6E5F626C 
 11725      655F6761 
 11725      70705F61 
 11725      64765F74 
 11726              	.LASF1097:
 11727 24c2 43595F42 		.ascii	"CY_BLE_EVT_LNSC_READ_CHAR_RESPONSE\000"
 11727      4C455F45 
 11727      56545F4C 
 11727      4E53435F 
 11727      52454144 
 11728              	.LASF1016:
 11729 24e5 43595F42 		.ascii	"CY_BLE_EVT_ESSS_DESCR_WRITE\000"
 11729      4C455F45 
 11729      56545F45 
 11729      5353535F 
 11729      44455343 
 11730              	.LASF293:
 11731 2501 63707573 		.ascii	"cpuss_interrupts_ipc_4_IRQn\000"
 11731      735F696E 
 11731      74657272 
 11731      75707473 
 11731      5F697063 
 11732              	.LASF751:
 11733 251d 73746174 		.ascii	"status\000"
 11733      757300
 11734              	.LASF332:
 11735 2524 63707573 		.ascii	"cpuss_interrupts_dw1_2_IRQn\000"
 11735      735F696E 
 11735      74657272 
 11735      75707473 
 11735      5F647731 
 11736              	.LASF1179:
 11737 2540 43595F42 		.ascii	"CY_BLE_EVT_WSSC_READ_DESCR_RESPONSE\000"
 11737      4C455F45 
 11737      56545F57 
 11737      5353435F 
 11737      52454144 
 11738              	.LASF1235:
 11739 2564 63795F62 		.ascii	"cy_ble_pairStatus\000"
 11739      6C655F70 
 11739      61697253 
 11739      74617475 
 11739      7300
 11740              	.LASF548:
 11741 2576 43595F42 		.ascii	"CY_BLE_ERROR_DEVICE_ALREADY_EXISTS\000"
 11741      4C455F45 
 11741      52524F52 
 11741      5F444556 
ARM GAS  C:\Users\D4DE~1\AppData\Local\Temp\cccuUyWy.s 			page 265


 11741      4943455F 
 11742              	.LASF530:
 11743 2599 43595F42 		.ascii	"CY_BLE_EVT_L2CAP_CBFC_CONN_CNF\000"
 11743      4C455F45 
 11743      56545F4C 
 11743      32434150 
 11743      5F434246 
 11744              	.LASF677:
 11745 25b8 43595F42 		.ascii	"CY_BLE_GATTS_ERR_HPS_INVALID_REQUEST\000"
 11745      4C455F47 
 11745      41545453 
 11745      5F455252 
 11745      5F485053 
 11746              	.LASF1182:
 11747 25dd 43595F42 		.ascii	"CY_BLE_EVT_BTSS_NOTIFICATION_DISABLED\000"
 11747      4C455F45 
 11747      56545F42 
 11747      5453535F 
 11747      4E4F5449 
 11748              	.LASF779:
 11749 2603 7363616E 		.ascii	"scanRspData\000"
 11749      52737044 
 11749      61746100 
 11750              	.LASF916:
 11751 260f 43595F42 		.ascii	"CY_BLE_EVT_AIOSC_WRITE_DESCR_RESPONSE\000"
 11751      4C455F45 
 11751      56545F41 
 11751      494F5343 
 11751      5F575249 
 11752              	.LASF377:
 11753 2635 74637077 		.ascii	"tcpwm_1_interrupts_15_IRQn\000"
 11753      6D5F315F 
 11753      696E7465 
 11753      72727570 
 11753      74735F31 
 11754              	.LASF959:
 11755 2650 43595F42 		.ascii	"CY_BLE_EVT_BMSC_WRITE_CHAR_RESPONSE\000"
 11755      4C455F45 
 11755      56545F42 
 11755      4D53435F 
 11755      57524954 
 11756              	.LASF999:
 11757 2674 43595F42 		.ascii	"CY_BLE_EVT_CSCSC_READ_DESCR_RESPONSE\000"
 11757      4C455F45 
 11757      56545F43 
 11757      53435343 
 11757      5F524541 
 11758              	.LASF647:
 11759 2699 43595F42 		.ascii	"CY_BLE_GATT_UNKNOWN_PDU_IND\000"
 11759      4C455F47 
 11759      4154545F 
 11759      554E4B4E 
 11759      4F574E5F 
 11760              	.LASF186:
 11761 26b5 64774368 		.ascii	"dwChCtlPrioPos\000"
 11761      43746C50 
 11761      72696F50 
ARM GAS  C:\Users\D4DE~1\AppData\Local\Temp\cccuUyWy.s 			page 266


 11761      6F7300
 11762              	.LASF1115:
 11763 26c4 43595F42 		.ascii	"CY_BLE_EVT_PLXSC_INDICATION\000"
 11763      4C455F45 
 11763      56545F50 
 11763      4C585343 
 11763      5F494E44 
 11764              	.LASF251:
 11765 26e0 4E766963 		.ascii	"NvicMux21_IRQn\000"
 11765      4D757832 
 11765      315F4952 
 11765      516E00
 11766              	.LASF456:
 11767 26ef 43595F42 		.ascii	"CY_BLE_EVT_GET_RSSI_COMPLETE\000"
 11767      4C455F45 
 11767      56545F47 
 11767      45545F52 
 11767      5353495F 
 11768              	.LASF527:
 11769 270c 43595F42 		.ascii	"CY_BLE_EVT_L2CAP_CONN_PARAM_UPDATE_RSP\000"
 11769      4C455F45 
 11769      56545F4C 
 11769      32434150 
 11769      5F434F4E 
 11770              	.LASF156:
 11771 2733 63707573 		.ascii	"cpussIpcNr\000"
 11771      73497063 
 11771      4E7200
 11772              	.LASF1149:
 11773 273e 43595F42 		.ascii	"CY_BLE_EVT_UDSS_INDICATION_DISABLED\000"
 11773      4C455F45 
 11773      56545F55 
 11773      4453535F 
 11773      494E4449 
 11774              	.LASF167:
 11775 2762 736D6966 		.ascii	"smifDeviceNr\000"
 11775      44657669 
 11775      63654E72 
 11775      00
 11776              	.LASF1040:
 11777 276f 43595F42 		.ascii	"CY_BLE_EVT_HIDSS_EXIT_SUSPEND\000"
 11777      4C455F45 
 11777      56545F48 
 11777      49445353 
 11777      5F455849 
 11778              	.LASF963:
 11779 278d 43595F42 		.ascii	"CY_BLE_EVT_CGMSS_INDICATION_CONFIRMED\000"
 11779      4C455F45 
 11779      56545F43 
 11779      474D5353 
 11779      5F494E44 
 11780              	.LASF441:
 11781 27b3 43595F42 		.ascii	"CY_BLE_EVT_SET_RPA_ENABLE_COMPLETE\000"
 11781      4C455F45 
 11781      56545F53 
 11781      45545F52 
 11781      50415F45 
ARM GAS  C:\Users\D4DE~1\AppData\Local\Temp\cccuUyWy.s 			page 267


 11782              	.LASF650:
 11783 27d6 43595F42 		.ascii	"CY_BLE_GATT_ERR_INVALID_HANDLE\000"
 11783      4C455F47 
 11783      4154545F 
 11783      4552525F 
 11783      494E5641 
 11784              	.LASF90:
 11785 27f5 544F4331 		.ascii	"TOC1_FHASH_OBJECTS\000"
 11785      5F464841 
 11785      53485F4F 
 11785      424A4543 
 11785      545300
 11786              	.LASF1018:
 11787 2808 43595F42 		.ascii	"CY_BLE_EVT_ESSC_INDICATION\000"
 11787      4C455F45 
 11787      56545F45 
 11787      5353435F 
 11787      494E4449 
 11788              	.LASF1093:
 11789 2823 43595F42 		.ascii	"CY_BLE_EVT_LNSS_NOTIFICATION_DISABLED\000"
 11789      4C455F45 
 11789      56545F4C 
 11789      4E53535F 
 11789      4E4F5449 
 11790              	.LASF408:
 11791 2849 7573625F 		.ascii	"usb_interrupt_med_IRQn\000"
 11791      696E7465 
 11791      72727570 
 11791      745F6D65 
 11791      645F4952 
 11792              	.LASF1167:
 11793 2860 43595F42 		.ascii	"CY_BLE_EVT_WPTSS_WRITE_CHAR\000"
 11793      4C455F45 
 11793      56545F57 
 11793      50545353 
 11793      5F575249 
 11794              	.LASF1247:
 11795 287c 43795F42 		.ascii	"Cy_BLE_GATTS_WriteRsp\000"
 11795      4C455F47 
 11795      41545453 
 11795      5F577269 
 11795      74655273 
 11796              	.LASF941:
 11797 2892 43595F42 		.ascii	"CY_BLE_EVT_BCSS_INDICATION_DISABLED\000"
 11797      4C455F45 
 11797      56545F42 
 11797      4353535F 
 11797      494E4449 
 11798              	.LASF503:
 11799 28b6 43595F42 		.ascii	"CY_BLE_EVT_GATT_DISCONNECT_IND\000"
 11799      4C455F45 
 11799      56545F47 
 11799      4154545F 
 11799      44495343 
 11800              	.LASF845:
 11801 28d5 7065726D 		.ascii	"permission\000"
 11801      69737369 
ARM GAS  C:\Users\D4DE~1\AppData\Local\Temp\cccuUyWy.s 			page 268


 11801      6F6E00
 11802              	.LASF199:
 11803 28e0 70657269 		.ascii	"periDiv16CtlOffset\000"
 11803      44697631 
 11803      3643746C 
 11803      4F666673 
 11803      657400
 11804              	.LASF651:
 11805 28f3 43595F42 		.ascii	"CY_BLE_GATT_ERR_READ_NOT_PERMITTED\000"
 11805      4C455F47 
 11805      4154545F 
 11805      4552525F 
 11805      52454144 
 11806              	.LASF1228:
 11807 2916 63795F62 		.ascii	"cy_ble_sflashDeviceAddress\000"
 11807      6C655F73 
 11807      666C6173 
 11807      68446576 
 11807      69636541 
 11808              	.LASF658:
 11809 2931 43595F42 		.ascii	"CY_BLE_GATT_ERR_PREPARE_WRITE_QUEUE_FULL\000"
 11809      4C455F47 
 11809      4154545F 
 11809      4552525F 
 11809      50524550 
 11810              	.LASF792:
 11811 295a 43595F42 		.ascii	"CY_BLE_ADV_STATE_ADVERTISING\000"
 11811      4C455F41 
 11811      44565F53 
 11811      54415445 
 11811      5F414456 
 11812              	.LASF654:
 11813 2977 43595F42 		.ascii	"CY_BLE_GATT_ERR_INSUFFICIENT_AUTHENTICATION\000"
 11813      4C455F47 
 11813      4154545F 
 11813      4552525F 
 11813      494E5355 
 11814              	.LASF508:
 11815 29a3 43595F42 		.ascii	"CY_BLE_EVT_GATTC_FIND_INFO_RSP\000"
 11815      4C455F45 
 11815      56545F47 
 11815      41545443 
 11815      5F46494E 
 11816              	.LASF244:
 11817 29c2 4E766963 		.ascii	"NvicMux14_IRQn\000"
 11817      4D757831 
 11817      345F4952 
 11817      516E00
 11818              	.LASF185:
 11819 29d1 64774368 		.ascii	"dwChSize\000"
 11819      53697A65 
 11819      00
 11820              	.LASF317:
 11821 29da 63707573 		.ascii	"cpuss_interrupts_dw0_3_IRQn\000"
 11821      735F696E 
 11821      74657272 
 11821      75707473 
ARM GAS  C:\Users\D4DE~1\AppData\Local\Temp\cccuUyWy.s 			page 269


 11821      5F647730 
 11822              	.LASF139:
 11823 29f6 70657269 		.ascii	"periBase\000"
 11823      42617365 
 11823      00
 11824              	.LASF1227:
 11825 29ff 63795F62 		.ascii	"cy_ble_eventHandlerFlag\000"
 11825      6C655F65 
 11825      76656E74 
 11825      48616E64 
 11825      6C657246 
 11826              	.LASF1241:
 11827 2a17 63795F62 		.ascii	"cy_ble_configPtr\000"
 11827      6C655F63 
 11827      6F6E6669 
 11827      67507472 
 11827      00
 11828              	.LASF1184:
 11829 2a28 43595F42 		.ascii	"CY_BLE_EVT_BTSS_WRITE_CMD_REQ\000"
 11829      4C455F45 
 11829      56545F42 
 11829      5453535F 
 11829      57524954 
 11830              	.LASF463:
 11831 2a46 43595F42 		.ascii	"CY_BLE_EVT_AES_CCM_ENCRYPT_COMPLETE\000"
 11831      4C455F45 
 11831      56545F41 
 11831      45535F43 
 11831      434D5F45 
 11832              	.LASF880:
 11833 2a6a 64657669 		.ascii	"deviceAddress\000"
 11833      63654164 
 11833      64726573 
 11833      7300
 11834              	.LASF604:
 11835 2a78 63795F73 		.ascii	"cy_stc_ble_conn_handle_t\000"
 11835      74635F62 
 11835      6C655F63 
 11835      6F6E6E5F 
 11835      68616E64 
 11836              	.LASF612:
 11837 2a91 616C6C6F 		.ascii	"allocFree\000"
 11837      63467265 
 11837      6500
 11838              	.LASF844:
 11839 2a9b 61747454 		.ascii	"attType\000"
 11839      79706500 
 11840              	.LASF1172:
 11841 2aa3 43595F42 		.ascii	"CY_BLE_EVT_WPTSC_READ_DESCR_RESPONSE\000"
 11841      4C455F45 
 11841      56545F57 
 11841      50545343 
 11841      5F524541 
 11842              	.LASF702:
 11843 2ac8 71756575 		.ascii	"queueBuffer\000"
 11843      65427566 
 11843      66657200 
ARM GAS  C:\Users\D4DE~1\AppData\Local\Temp\cccuUyWy.s 			page 270


 11844              	.LASF694:
 11845 2ad4 63795F73 		.ascii	"cy_stc_ble_gatt_xchg_mtu_param_t\000"
 11845      74635F62 
 11845      6C655F67 
 11845      6174745F 
 11845      78636867 
 11846              	.LASF614:
 11847 2af5 63795F73 		.ascii	"cy_stc_ble_memory_request_t\000"
 11847      74635F62 
 11847      6C655F6D 
 11847      656D6F72 
 11847      795F7265 
 11848              	.LASF506:
 11849 2b11 43595F42 		.ascii	"CY_BLE_EVT_GATTC_READ_BY_GROUP_TYPE_RSP\000"
 11849      4C455F45 
 11849      56545F47 
 11849      41545443 
 11849      5F524541 
 11850              	.LASF758:
 11851 2b39 7363616E 		.ascii	"scanFilterPolicy\000"
 11851      46696C74 
 11851      6572506F 
 11851      6C696379 
 11851      00
 11852              	.LASF1236:
 11853 2b4a 63795F62 		.ascii	"cy_ble_pendingFlashWrite\000"
 11853      6C655F70 
 11853      656E6469 
 11853      6E67466C 
 11853      61736857 
 11854              	.LASF148:
 11855 2b63 63727970 		.ascii	"cryptoVersion\000"
 11855      746F5665 
 11855      7273696F 
 11855      6E00
 11856              	.LASF1199:
 11857 2b71 6576656E 		.ascii	"eventParam\000"
 11857      74506172 
 11857      616D00
 11858              	.LASF398:
 11859 2b7c 7564625F 		.ascii	"udb_interrupts_12_IRQn\000"
 11859      696E7465 
 11859      72727570 
 11859      74735F31 
 11859      325F4952 
 11860              	.LASF8:
 11861 2b93 5F5F7569 		.ascii	"__uint16_t\000"
 11861      6E743136 
 11861      5F7400
 11862              	.LASF951:
 11863 2b9e 43595F42 		.ascii	"CY_BLE_EVT_BLSS_NOTIFICATION_DISABLED\000"
 11863      4C455F45 
 11863      56545F42 
 11863      4C53535F 
 11863      4E4F5449 
 11864              	.LASF868:
 11865 2bc4 64697363 		.ascii	"discoveryModeInfo\000"
ARM GAS  C:\Users\D4DE~1\AppData\Local\Temp\cccuUyWy.s 			page 271


 11865      6F766572 
 11865      794D6F64 
 11865      65496E66 
 11865      6F00
 11866              	.LASF205:
 11867 2bd6 6770696F 		.ascii	"gpioPrtCfgOutOffset\000"
 11867      50727443 
 11867      66674F75 
 11867      744F6666 
 11867      73657400 
 11868              	.LASF197:
 11869 2bea 70657269 		.ascii	"periDivCmdPaTypeSelPos\000"
 11869      44697643 
 11869      6D645061 
 11869      54797065 
 11869      53656C50 
 11870              	.LASF743:
 11871 2c01 636F6E6E 		.ascii	"connLatency\000"
 11871      4C617465 
 11871      6E637900 
 11872              	.LASF1164:
 11873 2c0d 43595F42 		.ascii	"CY_BLE_EVT_WPTSS_INDICATION_ENABLED\000"
 11873      4C455F45 
 11873      56545F57 
 11873      50545353 
 11873      5F494E44 
 11874              	.LASF1009:
 11875 2c31 43595F42 		.ascii	"CY_BLE_EVT_DISC_READ_CHAR_RESPONSE\000"
 11875      4C455F45 
 11875      56545F44 
 11875      4953435F 
 11875      52454144 
 11876              	.LASF113:
 11877 2c54 544F4332 		.ascii	"TOC2_FIRST_USER_APP_FORMAT\000"
 11877      5F464952 
 11877      53545F55 
 11877      5345525F 
 11877      4150505F 
 11878              	.LASF198:
 11879 2c6f 70657269 		.ascii	"periDiv8CtlOffset\000"
 11879      44697638 
 11879      43746C4F 
 11879      66667365 
 11879      7400
 11880              	.LASF553:
 11881 2c81 43595F42 		.ascii	"CY_BLE_ERROR_L2CAP_PSM_ALREADY_REGISTERED\000"
 11881      4C455F45 
 11881      52524F52 
 11881      5F4C3243 
 11881      41505F50 
 11882              	.LASF1039:
 11883 2cab 43595F42 		.ascii	"CY_BLE_EVT_HIDSS_SUSPEND\000"
 11883      4C455F45 
 11883      56545F48 
 11883      49445353 
 11883      5F535553 
 11884              	.LASF962:
ARM GAS  C:\Users\D4DE~1\AppData\Local\Temp\cccuUyWy.s 			page 272


 11885 2cc4 43595F42 		.ascii	"CY_BLE_EVT_CGMSS_INDICATION_DISABLED\000"
 11885      4C455F45 
 11885      56545F43 
 11885      474D5353 
 11885      5F494E44 
 11886              	.LASF796:
 11887 2ce9 43595F42 		.ascii	"CY_BLE_CONN_STATE_CLIENT_DISCONNECTED_DISCOVERED\000"
 11887      4C455F43 
 11887      4F4E4E5F 
 11887      53544154 
 11887      455F434C 
 11888              	.LASF1061:
 11889 2d1a 43595F42 		.ascii	"CY_BLE_EVT_HRSC_READ_DESCR_RESPONSE\000"
 11889      4C455F45 
 11889      56545F48 
 11889      5253435F 
 11889      52454144 
 11890              	.LASF1173:
 11891 2d3e 43595F42 		.ascii	"CY_BLE_EVT_WPTSC_WRITE_DESCR_RESPONSE\000"
 11891      4C455F45 
 11891      56545F57 
 11891      50545343 
 11891      5F575249 
 11892              	.LASF54:
 11893 2d64 5354414E 		.ascii	"STANDARD_SMPU_STRUCT_SLAVE_ATTR\000"
 11893      44415244 
 11893      5F534D50 
 11893      555F5354 
 11893      52554354 
 11894              	.LASF927:
 11895 2d84 43595F42 		.ascii	"CY_BLE_EVT_ANSS_NOTIFICATION_DISABLED\000"
 11895      4C455F45 
 11895      56545F41 
 11895      4E53535F 
 11895      4E4F5449 
 11896              	.LASF760:
 11897 2daa 66696C74 		.ascii	"filterDuplicates\000"
 11897      65724475 
 11897      706C6963 
 11897      61746573 
 11897      00
 11898              	.LASF498:
 11899 2dbb 43595F42 		.ascii	"CY_BLE_EVT_GAP_CONN_ESTB\000"
 11899      4C455F45 
 11899      56545F47 
 11899      41505F43 
 11899      4F4E4E5F 
 11900              	.LASF69:
 11901 2dd4 43505553 		.ascii	"CPUSS_TRIM_ROM_CTL_LP\000"
 11901      535F5452 
 11901      494D5F52 
 11901      4F4D5F43 
 11901      544C5F4C 
 11902              	.LASF877:
 11903 2dea 61757468 		.ascii	"authInfo\000"
 11903      496E666F 
 11903      00
ARM GAS  C:\Users\D4DE~1\AppData\Local\Temp\cccuUyWy.s 			page 273


 11904              	.LASF831:
 11905 2df3 63795F73 		.ascii	"cy_stc_ble_gatts_write_cmd_req_param_t\000"
 11905      74635F62 
 11905      6C655F67 
 11905      61747473 
 11905      5F777269 
 11906              	.LASF150:
 11907 2e1a 666C6173 		.ascii	"flashcVersion\000"
 11907      68635665 
 11907      7273696F 
 11907      6E00
 11908              	.LASF848:
 11909 2e28 63795F73 		.ascii	"cy_stc_ble_gatts_db_t\000"
 11909      74635F62 
 11909      6C655F67 
 11909      61747473 
 11909      5F64625F 
 11910              	.LASF273:
 11911 2e3e 696F7373 		.ascii	"ioss_interrupts_gpio_9_IRQn\000"
 11911      5F696E74 
 11911      65727275 
 11911      7074735F 
 11911      6770696F 
 11912              	.LASF802:
 11913 2e5a 43595F42 		.ascii	"CY_BLE_CONN_STATE_CLIENT_DISCOVERED\000"
 11913      4C455F43 
 11913      4F4E4E5F 
 11913      53544154 
 11913      455F434C 
 11914              	.LASF374:
 11915 2e7e 74637077 		.ascii	"tcpwm_1_interrupts_12_IRQn\000"
 11915      6D5F315F 
 11915      696E7465 
 11915      72727570 
 11915      74735F31 
 11916              	.LASF609:
 11917 2e99 63795F73 		.ascii	"cy_stc_ble_tx_pwr_lvl_info_t\000"
 11917      74635F62 
 11917      6C655F74 
 11917      785F7077 
 11917      725F6C76 
 11918              	.LASF481:
 11919 2eb6 43595F42 		.ascii	"CY_BLE_EVT_GAP_DEVICE_CONNECTED\000"
 11919      4C455F45 
 11919      56545F47 
 11919      41505F44 
 11919      45564943 
 11920              	.LASF928:
 11921 2ed6 43595F42 		.ascii	"CY_BLE_EVT_ANSS_WRITE_CHAR\000"
 11921      4C455F45 
 11921      56545F41 
 11921      4E53535F 
 11921      57524954 
 11922              	.LASF1082:
 11923 2ef1 43595F42 		.ascii	"CY_BLE_EVT_IPSC_READ_DESCR_RESPONSE\000"
 11923      4C455F45 
 11923      56545F49 
ARM GAS  C:\Users\D4DE~1\AppData\Local\Temp\cccuUyWy.s 			page 274


 11923      5053435F 
 11923      52454144 
 11924              	.LASF110:
 11925 2f15 544F4332 		.ascii	"TOC2_KEY_BLOCK_ADDR\000"
 11925      5F4B4559 
 11925      5F424C4F 
 11925      434B5F41 
 11925      44445200 
 11926              	.LASF853:
 11927 2f29 63795F73 		.ascii	"cy_stc_ble_l2cap_state_info_t\000"
 11927      74635F62 
 11927      6C655F6C 
 11927      32636170 
 11927      5F737461 
 11928              	.LASF855:
 11929 2f47 5F426F6F 		.ascii	"_Bool\000"
 11929      6C00
 11930              	.LASF135:
 11931 2f4d 52544F43 		.ascii	"RTOC2_CRC_ADDR\000"
 11931      325F4352 
 11931      435F4144 
 11931      445200
 11932              	.LASF822:
 11933 2f5c 736C6F77 		.ascii	"slowScanEnabled\000"
 11933      5363616E 
 11933      456E6162 
 11933      6C656400 
 11934              	.LASF209:
 11935 2f6c 63707573 		.ascii	"cpussCm4StatusOffset\000"
 11935      73436D34 
 11935      53746174 
 11935      75734F66 
 11935      66736574 
 11936              	.LASF1116:
 11937 2f81 43595F42 		.ascii	"CY_BLE_EVT_PLXSC_NOTIFICATION\000"
 11937      4C455F45 
 11937      56545F50 
 11937      4C585343 
 11937      5F4E4F54 
 11938              	.LASF808:
 11939 2f9f 63656E74 		.ascii	"centralAddrResolutionCharHandle\000"
 11939      72616C41 
 11939      64647252 
 11939      65736F6C 
 11939      7574696F 
 11940              	.LASF288:
 11941 2fbf 626C6573 		.ascii	"bless_interrupt_IRQn\000"
 11941      735F696E 
 11941      74657272 
 11941      7570745F 
 11941      4952516E 
 11942              	.LASF303:
 11943 2fd4 63707573 		.ascii	"cpuss_interrupts_ipc_14_IRQn\000"
 11943      735F696E 
 11943      74657272 
 11943      75707473 
 11943      5F697063 
ARM GAS  C:\Users\D4DE~1\AppData\Local\Temp\cccuUyWy.s 			page 275


 11944              	.LASF619:
 11945 2ff1 43595F42 		.ascii	"CY_BLE_GATT_ERROR_RSP\000"
 11945      4C455F47 
 11945      4154545F 
 11945      4552524F 
 11945      525F5253 
 11946              	.LASF1014:
 11947 3007 43595F42 		.ascii	"CY_BLE_EVT_ESSS_INDICATION_CONFIRMATION\000"
 11947      4C455F45 
 11947      56545F45 
 11947      5353535F 
 11947      494E4449 
 11948              	.LASF117:
 11949 302f 544F4332 		.ascii	"TOC2_SIGNATURE_VERIF_KEY\000"
 11949      5F534947 
 11949      4E415455 
 11949      52455F56 
 11949      45524946 
 11950              	.LASF1003:
 11951 3048 43595F42 		.ascii	"CY_BLE_EVT_CTSS_WRITE_CHAR\000"
 11951      4C455F45 
 11951      56545F43 
 11951      5453535F 
 11951      57524954 
 11952              	.LASF525:
 11953 3063 43595F42 		.ascii	"CY_BLE_EVT_GATTC_LONG_PROCEDURE_END\000"
 11953      4C455F45 
 11953      56545F47 
 11953      41545443 
 11953      5F4C4F4E 
 11954              	.LASF1250:
 11955 3087 6D656D63 		.ascii	"memcpy\000"
 11955      707900
 11956              	.LASF1055:
 11957 308e 43595F42 		.ascii	"CY_BLE_EVT_HRSS_ENERGY_EXPENDED_RESET\000"
 11957      4C455F45 
 11957      56545F48 
 11957      5253535F 
 11957      454E4552 
 11958              	.LASF838:
 11959 30b4 61747447 		.ascii	"attGenericValLen\000"
 11959      656E6572 
 11959      69635661 
 11959      6C4C656E 
 11959      00
 11960              	.LASF457:
 11961 30c5 43595F42 		.ascii	"CY_BLE_EVT_GET_TX_PWR_COMPLETE\000"
 11961      4C455F45 
 11961      56545F47 
 11961      45545F54 
 11961      585F5057 
 11962              	.LASF1023:
 11963 30e4 43595F42 		.ascii	"CY_BLE_EVT_GLSS_INDICATION_ENABLED\000"
 11963      4C455F45 
 11963      56545F47 
 11963      4C53535F 
 11963      494E4449 
ARM GAS  C:\Users\D4DE~1\AppData\Local\Temp\cccuUyWy.s 			page 276


 11964              	.LASF509:
 11965 3107 43595F42 		.ascii	"CY_BLE_EVT_GATTC_FIND_BY_TYPE_VALUE_RSP\000"
 11965      4C455F45 
 11965      56545F47 
 11965      41545443 
 11965      5F46494E 
 11966              	.LASF241:
 11967 312f 4E766963 		.ascii	"NvicMux11_IRQn\000"
 11967      4D757831 
 11967      315F4952 
 11967      516E00
 11968              	.LASF72:
 11969 313e 43505553 		.ascii	"CPUSS_TRIM_ROM_CTL_HALF_ULP\000"
 11969      535F5452 
 11969      494D5F52 
 11969      4F4D5F43 
 11969      544C5F48 
 11970              	.LASF901:
 11971 315a 43595F42 		.ascii	"CY_BLE_EVT_GATTC_CHAR_DISCOVERY_COMPLETE\000"
 11971      4C455F45 
 11971      56545F47 
 11971      41545443 
 11971      5F434841 
 11972              	.LASF314:
 11973 3183 63707573 		.ascii	"cpuss_interrupts_dw0_0_IRQn\000"
 11973      735F696E 
 11973      74657272 
 11973      75707473 
 11973      5F647730 
 11974              	.LASF147:
 11975 319f 63707573 		.ascii	"cpussVersion\000"
 11975      73566572 
 11975      73696F6E 
 11975      00
 11976              	.LASF21:
 11977 31ac 53495F52 		.ascii	"SI_REVISION_ID\000"
 11977      45564953 
 11977      494F4E5F 
 11977      494400
 11978              	.LASF679:
 11979 31bb 43595F42 		.ascii	"CY_BLE_GATT_ERR_ANS_COMMAND_NOT_SUPPORTED\000"
 11979      4C455F47 
 11979      4154545F 
 11979      4552525F 
 11979      414E535F 
 11980              	.LASF587:
 11981 31e5 43595F42 		.ascii	"CY_BLE_LL_CONN_CH_TYPE\000"
 11981      4C455F4C 
 11981      4C5F434F 
 11981      4E4E5F43 
 11981      485F5459 
 11982              	.LASF217:
 11983 31fc 63707573 		.ascii	"cpussRomCtl\000"
 11983      73526F6D 
 11983      43746C00 
 11984              	.LASF51:
 11985 3208 44455649 		.ascii	"DEVICE_UID\000"
ARM GAS  C:\Users\D4DE~1\AppData\Local\Temp\cccuUyWy.s 			page 277


 11985      43455F55 
 11985      494400
 11986              	.LASF329:
 11987 3213 63707573 		.ascii	"cpuss_interrupts_dw0_15_IRQn\000"
 11987      735F696E 
 11987      74657272 
 11987      75707473 
 11987      5F647730 
 11988              	.LASF22:
 11989 3230 53494C49 		.ascii	"SILICON_ID\000"
 11989      434F4E5F 
 11989      494400
 11990              	.LASF361:
 11991 323b 74637077 		.ascii	"tcpwm_0_interrupts_7_IRQn\000"
 11991      6D5F305F 
 11991      696E7465 
 11991      72727570 
 11991      74735F37 
 11992              	.LASF284:
 11993 3255 73727373 		.ascii	"srss_interrupt_mcwdt_1_IRQn\000"
 11993      5F696E74 
 11993      65727275 
 11993      70745F6D 
 11993      63776474 
 11994              	.LASF346:
 11995 3271 63707573 		.ascii	"cpuss_interrupts_fault_0_IRQn\000"
 11995      735F696E 
 11995      74657272 
 11995      75707473 
 11995      5F666175 
 11996              	.LASF1144:
 11997 328f 43595F42 		.ascii	"CY_BLE_EVT_TPSC_NOTIFICATION\000"
 11997      4C455F45 
 11997      56545F54 
 11997      5053435F 
 11997      4E4F5449 
 11998              	.LASF1231:
 11999 32ac 63795F62 		.ascii	"cy_ble_advIndex\000"
 11999      6C655F61 
 11999      6476496E 
 11999      64657800 
 12000              	.LASF1200:
 12001 32bc 67617474 		.ascii	"gattErr\000"
 12001      45727200 
 12002              	.LASF790:
 12003 32c4 43595F42 		.ascii	"CY_BLE_ADV_STATE_STOPPED\000"
 12003      4C455F41 
 12003      44565F53 
 12003      54415445 
 12003      5F53544F 
 12004              	.LASF108:
 12005 32dd 544F4332 		.ascii	"TOC2_OBJECT_SIZE\000"
 12005      5F4F424A 
 12005      4543545F 
 12005      53495A45 
 12005      00
 12006              	.LASF504:
ARM GAS  C:\Users\D4DE~1\AppData\Local\Temp\cccuUyWy.s 			page 278


 12007 32ee 43595F42 		.ascii	"CY_BLE_EVT_GATTS_XCNHG_MTU_REQ\000"
 12007      4C455F45 
 12007      56545F47 
 12007      41545453 
 12007      5F58434E 
 12008              	.LASF165:
 12009 330d 73727373 		.ascii	"srssNumHfroot\000"
 12009      4E756D48 
 12009      66726F6F 
 12009      7400
 12010              	.LASF493:
 12011 331b 43595F42 		.ascii	"CY_BLE_EVT_GAP_DEVICE_ADDR_GEN_COMPLETE\000"
 12011      4C455F45 
 12011      56545F47 
 12011      41505F44 
 12011      45564943 
 12012              	.LASF175:
 12013 3343 666C6173 		.ascii	"flashPipeRequired\000"
 12013      68506970 
 12013      65526571 
 12013      75697265 
 12013      6400
 12014              	.LASF981:
 12015 3355 43595F42 		.ascii	"CY_BLE_EVT_CPSC_NOTIFICATION\000"
 12015      4C455F45 
 12015      56545F43 
 12015      5053435F 
 12015      4E4F5449 
 12016              	.LASF866:
 12017 3372 67617474 		.ascii	"gattDbIndexCount\000"
 12017      4462496E 
 12017      64657843 
 12017      6F756E74 
 12017      00
 12018              	.LASF219:
 12019 3383 63707573 		.ascii	"cpussRam1Ctl0\000"
 12019      7352616D 
 12019      3143746C 
 12019      3000
 12020              	.LASF834:
 12021 3391 61637475 		.ascii	"actualLength\000"
 12021      616C4C65 
 12021      6E677468 
 12021      00
 12022              	.LASF1099:
 12023 339e 43595F42 		.ascii	"CY_BLE_EVT_LNSC_READ_DESCR_RESPONSE\000"
 12023      4C455F45 
 12023      56545F4C 
 12023      4E53435F 
 12023      52454144 
 12024              	.LASF836:
 12025 33c2 63795F73 		.ascii	"cy_stc_ble_gatts_att_gen_val_len_t\000"
 12025      74635F62 
 12025      6C655F67 
 12025      61747473 
 12025      5F617474 
 12026              	.LASF1110:
ARM GAS  C:\Users\D4DE~1\AppData\Local\Temp\cccuUyWy.s 			page 279


 12027 33e5 43595F42 		.ascii	"CY_BLE_EVT_PLXSS_INDICATION_DISABLED\000"
 12027      4C455F45 
 12027      56545F50 
 12027      4C585353 
 12027      5F494E44 
 12028              	.LASF1070:
 12029 340a 43595F42 		.ascii	"CY_BLE_EVT_HTSC_INDICATION\000"
 12029      4C455F45 
 12029      56545F48 
 12029      5453435F 
 12029      494E4449 
 12030              	.LASF582:
 12031 3425 43595F42 		.ascii	"CY_BLE_LL_PWR_LVL_NEG_6_DBM\000"
 12031      4C455F4C 
 12031      4C5F5057 
 12031      525F4C56 
 12031      4C5F4E45 
 12032              	.LASF512:
 12033 3441 43595F42 		.ascii	"CY_BLE_EVT_GATTC_READ_MULTI_RSP\000"
 12033      4C455F45 
 12033      56545F47 
 12033      41545443 
 12033      5F524541 
 12034              	.LASF1085:
 12035 3461 43595F42 		.ascii	"CY_BLE_EVT_IPSC_READ_BLOB_RSP\000"
 12035      4C455F45 
 12035      56545F49 
 12035      5053435F 
 12035      52454144 
 12036              	.LASF1135:
 12037 347f 43595F42 		.ascii	"CY_BLE_EVT_RTUSC_READ_CHAR_RESPONSE\000"
 12037      4C455F45 
 12037      56545F52 
 12037      54555343 
 12037      5F524541 
 12038              	.LASF552:
 12039 34a3 43595F42 		.ascii	"CY_BLE_ERROR_L2CAP_PSM_WRONG_ENCODING\000"
 12039      4C455F45 
 12039      52524F52 
 12039      5F4C3243 
 12039      41505F50 
 12040              	.LASF173:
 12041 34c9 63727970 		.ascii	"cryptoMemSize\000"
 12041      746F4D65 
 12041      6D53697A 
 12041      6500
 12042              	.LASF748:
 12043 34d7 70656572 		.ascii	"peerResolvablePvtAddr\000"
 12043      5265736F 
 12043      6C766162 
 12043      6C655076 
 12043      74416464 
 12044              	.LASF92:
 12045 34ed 544F4331 		.ascii	"TOC1_UNIQUE_ID_ADDR\000"
 12045      5F554E49 
 12045      5155455F 
 12045      49445F41 
ARM GAS  C:\Users\D4DE~1\AppData\Local\Temp\cccuUyWy.s 			page 280


 12045      44445200 
 12046              	.LASF543:
 12047 3501 43595F42 		.ascii	"CY_BLE_ERROR_MEMORY_ALLOCATION_FAILED\000"
 12047      4C455F45 
 12047      52524F52 
 12047      5F4D454D 
 12047      4F52595F 
 12048              	.LASF789:
 12049 3527 63795F65 		.ascii	"cy_en_ble_state_t\000"
 12049      6E5F626C 
 12049      655F7374 
 12049      6174655F 
 12049      7400
 12050              	.LASF1004:
 12051 3539 43595F42 		.ascii	"CY_BLE_EVT_CTSC_NOTIFICATION\000"
 12051      4C455F45 
 12051      56545F43 
 12051      5453435F 
 12051      4E4F5449 
 12052              	.LASF29:
 12053 3556 4449455F 		.ascii	"DIE_WAFER\000"
 12053      57414645 
 12053      5200
 12054              	.LASF270:
 12055 3560 696F7373 		.ascii	"ioss_interrupts_gpio_6_IRQn\000"
 12055      5F696E74 
 12055      65727275 
 12055      7074735F 
 12055      6770696F 
 12056              	.LASF1047:
 12057 357c 43595F42 		.ascii	"CY_BLE_EVT_HPSS_NOTIFICATION_ENABLED\000"
 12057      4C455F45 
 12057      56545F48 
 12057      5053535F 
 12057      4E4F5449 
 12058              	.LASF823:
 12059 35a1 736C6F77 		.ascii	"slowScanInterval\000"
 12059      5363616E 
 12059      496E7465 
 12059      7276616C 
 12059      00
 12060              	.LASF178:
 12061 35b2 666C6173 		.ascii	"flashEraseDelay\000"
 12061      68457261 
 12061      73654465 
 12061      6C617900 
 12062              	.LASF239:
 12063 35c2 4E766963 		.ascii	"NvicMux9_IRQn\000"
 12063      4D757839 
 12063      5F495251 
 12063      6E00
 12064              	.LASF766:
 12065 35d0 43595F42 		.ascii	"CY_BLE_GAPP_CONNECTABLE_LOW_DC_DIRECTED_ADV\000"
 12065      4C455F47 
 12065      4150505F 
 12065      434F4E4E 
 12065      45435441 
ARM GAS  C:\Users\D4DE~1\AppData\Local\Temp\cccuUyWy.s 			page 281


 12066              	.LASF500:
 12067 35fc 43595F42 		.ascii	"CY_BLE_EVT_GAP_ADV_TX\000"
 12067      4C455F45 
 12067      56545F47 
 12067      41505F41 
 12067      44565F54 
 12068              	.LASF86:
 12069 3612 424F4F54 		.ascii	"BOOT_PROT_SETTINGS\000"
 12069      5F50524F 
 12069      545F5345 
 12069      5454494E 
 12069      475300
 12070              	.LASF664:
 12071 3625 43595F42 		.ascii	"CY_BLE_GATT_ERR_INSUFFICIENT_ENCRYPTION\000"
 12071      4C455F47 
 12071      4154545F 
 12071      4552525F 
 12071      494E5355 
 12072              	.LASF705:
 12073 364d 63795F73 		.ascii	"cy_stc_ble_prepare_write_request_memory_t\000"
 12073      74635F62 
 12073      6C655F70 
 12073      72657061 
 12073      72655F77 
 12074              	.LASF841:
 12075 3677 61747456 		.ascii	"attValueUuid\000"
 12075      616C7565 
 12075      55756964 
 12075      00
 12076              	.LASF602:
 12077 3684 62644861 		.ascii	"bdHandle\000"
 12077      6E646C65 
 12077      00
 12078              	.LASF300:
 12079 368d 63707573 		.ascii	"cpuss_interrupts_ipc_11_IRQn\000"
 12079      735F696E 
 12079      74657272 
 12079      75707473 
 12079      5F697063 
 12080              	.LASF370:
 12081 36aa 74637077 		.ascii	"tcpwm_1_interrupts_8_IRQn\000"
 12081      6D5F315F 
 12081      696E7465 
 12081      72727570 
 12081      74735F38 
 12082              	.LASF810:
 12083 36c4 63795F73 		.ascii	"cy_stc_ble_gaps_t\000"
 12083      74635F62 
 12083      6C655F67 
 12083      6170735F 
 12083      7400
 12084              	.LASF1201:
 12085 36d6 6576656E 		.ascii	"eventHandlerFunc\000"
 12085      7448616E 
 12085      646C6572 
 12085      46756E63 
 12085      00
ARM GAS  C:\Users\D4DE~1\AppData\Local\Temp\cccuUyWy.s 			page 282


 12086              	.LASF1260:
 12087 36e7 43795F42 		.ascii	"Cy_BLE_UnregisterHostPMCallbacks\000"
 12087      4C455F55 
 12087      6E726567 
 12087      69737465 
 12087      72486F73 
 12088              	.LASF818:
 12089 3708 63795F73 		.ascii	"cy_stc_ble_gapp_adv_params_t\000"
 12089      74635F62 
 12089      6C655F67 
 12089      6170705F 
 12089      6164765F 
 12090              	.LASF946:
 12091 3725 43595F42 		.ascii	"CY_BLE_EVT_BCSC_WRITE_DESCR_RESPONSE\000"
 12091      4C455F45 
 12091      56545F42 
 12091      4353435F 
 12091      57524954 
 12092              	.LASF1153:
 12093 374a 43595F42 		.ascii	"CY_BLE_EVT_UDSS_READ_CHAR\000"
 12093      4C455F45 
 12093      56545F55 
 12093      4453535F 
 12093      52454144 
 12094              	.LASF1025:
 12095 3764 43595F42 		.ascii	"CY_BLE_EVT_GLSS_INDICATION_CONFIRMED\000"
 12095      4C455F45 
 12095      56545F47 
 12095      4C53535F 
 12095      494E4449 
 12096              	.LASF1208:
 12097 3789 43795F42 		.ascii	"Cy_BLE_IsDeviceAddressValid\000"
 12097      4C455F49 
 12097      73446576 
 12097      69636541 
 12097      64647265 
 12098              	.LASF1017:
 12099 37a5 43595F42 		.ascii	"CY_BLE_EVT_ESSC_NOTIFICATION\000"
 12099      4C455F45 
 12099      56545F45 
 12099      5353435F 
 12099      4E4F5449 
 12100              	.LASF1030:
 12101 37c2 43595F42 		.ascii	"CY_BLE_EVT_GLSC_NOTIFICATION\000"
 12101      4C455F45 
 12101      56545F47 
 12101      4C53435F 
 12101      4E4F5449 
 12102              	.LASF1075:
 12103 37df 43595F42 		.ascii	"CY_BLE_EVT_IASS_WRITE_CHAR_CMD\000"
 12103      4C455F45 
 12103      56545F49 
 12103      4153535F 
 12103      57524954 
 12104              	.LASF1150:
 12105 37fe 43595F42 		.ascii	"CY_BLE_EVT_UDSS_INDICATION_CONFIRMED\000"
 12105      4C455F45 
ARM GAS  C:\Users\D4DE~1\AppData\Local\Temp\cccuUyWy.s 			page 283


 12105      56545F55 
 12105      4453535F 
 12105      494E4449 
 12106              	.LASF1105:
 12107 3823 43595F42 		.ascii	"CY_BLE_EVT_PASSC_NOTIFICATION\000"
 12107      4C455F45 
 12107      56545F50 
 12107      41535343 
 12107      5F4E4F54 
 12108              	.LASF94:
 12109 3841 544F4331 		.ascii	"TOC1_SYSCALL_TABLE_ADDR_UNUSED\000"
 12109      5F535953 
 12109      43414C4C 
 12109      5F544142 
 12109      4C455F41 
 12110              	.LASF871:
 12111 3860 67617063 		.ascii	"gapcScanParams\000"
 12111      5363616E 
 12111      50617261 
 12111      6D7300
 12112              	.LASF1206:
 12113 386f 43795F42 		.ascii	"Cy_BLE_InvokeServiceEventHandler\000"
 12113      4C455F49 
 12113      6E766F6B 
 12113      65536572 
 12113      76696365 
 12114              	.LASF35:
 12115 3890 4449455F 		.ascii	"DIE_MONTH\000"
 12115      4D4F4E54 
 12115      4800
 12116              	.LASF424:
 12117 389a 43595F42 		.ascii	"CY_BLE_EVT_STACK_BUSY_STATUS\000"
 12117      4C455F45 
 12117      56545F53 
 12117      5441434B 
 12117      5F425553 
 12118              	.LASF1056:
 12119 38b7 43595F42 		.ascii	"CY_BLE_EVT_HRSS_NOTIFICATION_ENABLED\000"
 12119      4C455F45 
 12119      56545F48 
 12119      5253535F 
 12119      4E4F5449 
 12120              	.LASF53:
 12121 38dc 5354414E 		.ascii	"STANDARD_SMPU_STRUCT_SLAVE_ADDR\000"
 12121      44415244 
 12121      5F534D50 
 12121      555F5354 
 12121      52554354 
 12122              	.LASF1214:
 12123 38fc 65765061 		.ascii	"evParam\000"
 12123      72616D00 
 12124              	.LASF430:
 12125 3904 43595F42 		.ascii	"CY_BLE_EVT_READ_AUTH_PAYLOAD_TO_COMPLETE\000"
 12125      4C455F45 
 12125      56545F52 
 12125      4541445F 
 12125      41555448 
ARM GAS  C:\Users\D4DE~1\AppData\Local\Temp\cccuUyWy.s 			page 284


 12126              	.LASF103:
 12127 392d 52544F43 		.ascii	"RTOC1_FB_OBJECT_ADDR\000"
 12127      315F4642 
 12127      5F4F424A 
 12127      4543545F 
 12127      41444452 
 12128              	.LASF445:
 12129 3942 43595F42 		.ascii	"CY_BLE_EVT_ADD_DEVICE_TO_WHITE_LIST_COMPLETE\000"
 12129      4C455F45 
 12129      56545F41 
 12129      44445F44 
 12129      45564943 
 12130              	.LASF830:
 12131 396f 63795F73 		.ascii	"cy_stc_ble_gapc_scan_params_t\000"
 12131      74635F62 
 12131      6C655F67 
 12131      6170635F 
 12131      7363616E 
 12132              	.LASF560:
 12133 398d 43595F42 		.ascii	"CY_BLE_ERROR_MIC_AUTH_FAILED\000"
 12133      4C455F45 
 12133      52524F52 
 12133      5F4D4943 
 12133      5F415554 
 12134              	.LASF1267:
 12135 39aa 43795F42 		.ascii	"Cy_BLE_SendWriteResponse\000"
 12135      4C455F53 
 12135      656E6457 
 12135      72697465 
 12135      52657370 
 12136              	.LASF1192:
 12137 39c3 63795F62 		.ascii	"cy_ble_event_handle_t\000"
 12137      6C655F65 
 12137      76656E74 
 12137      5F68616E 
 12137      646C655F 
 12138              	.LASF326:
 12139 39d9 63707573 		.ascii	"cpuss_interrupts_dw0_12_IRQn\000"
 12139      735F696E 
 12139      74657272 
 12139      75707473 
 12139      5F647730 
 12140              	.LASF966:
 12141 39f6 43595F42 		.ascii	"CY_BLE_EVT_CGMSS_WRITE_CHAR\000"
 12141      4C455F45 
 12141      56545F43 
 12141      474D5353 
 12141      5F575249 
 12142              	.LASF665:
 12143 3a12 43595F42 		.ascii	"CY_BLE_GATT_ERR_UNSUPPORTED_GROUP_TYPE\000"
 12143      4C455F47 
 12143      4154545F 
 12143      4552525F 
 12143      554E5355 
 12144              	.LASF624:
 12145 3a39 43595F42 		.ascii	"CY_BLE_GATT_FIND_BY_TYPE_VALUE_REQ\000"
 12145      4C455F47 
ARM GAS  C:\Users\D4DE~1\AppData\Local\Temp\cccuUyWy.s 			page 285


 12145      4154545F 
 12145      46494E44 
 12145      5F42595F 
 12146              	.LASF358:
 12147 3a5c 74637077 		.ascii	"tcpwm_0_interrupts_4_IRQn\000"
 12147      6D5F305F 
 12147      696E7465 
 12147      72727570 
 12147      74735F34 
 12148              	.LASF439:
 12149 3a76 43595F42 		.ascii	"CY_BLE_EVT_GET_LOCAL_RPA_COMPLETE\000"
 12149      4C455F45 
 12149      56545F47 
 12149      45545F4C 
 12149      4F43414C 
 12150              	.LASF507:
 12151 3a98 43595F42 		.ascii	"CY_BLE_EVT_GATTC_READ_BY_TYPE_RSP\000"
 12151      4C455F45 
 12151      56545F47 
 12151      41545443 
 12151      5F524541 
 12152              	.LASF987:
 12153 3aba 43595F42 		.ascii	"CY_BLE_EVT_CPSC_SCAN_PROGRESS_RESULT\000"
 12153      4C455F45 
 12153      56545F43 
 12153      5053435F 
 12153      5343414E 
 12154              	.LASF119:
 12155 3adf 544F4332 		.ascii	"TOC2_REVISION\000"
 12155      5F524556 
 12155      4953494F 
 12155      4E00
 12156              	.LASF1220:
 12157 3aed 67507265 		.ascii	"gPrepWriteReqMem\000"
 12157      70577269 
 12157      74655265 
 12157      714D656D 
 12157      00
 12158              	.LASF528:
 12159 3afe 43595F42 		.ascii	"CY_BLE_EVT_L2CAP_COMMAND_REJ\000"
 12159      4C455F45 
 12159      56545F4C 
 12159      32434150 
 12159      5F434F4D 
 12160              	.LASF313:
 12161 3b1b 6373645F 		.ascii	"csd_interrupt_IRQn\000"
 12161      696E7465 
 12161      72727570 
 12161      745F4952 
 12161      516E00
 12162              	.LASF393:
 12163 3b2e 7564625F 		.ascii	"udb_interrupts_7_IRQn\000"
 12163      696E7465 
 12163      72727570 
 12163      74735F37 
 12163      5F495251 
 12164              	.LASF189:
ARM GAS  C:\Users\D4DE~1\AppData\Local\Temp\cccuUyWy.s 			page 286


 12165 3b44 64775374 		.ascii	"dwStatusChIdxMsk\000"
 12165      61747573 
 12165      43684964 
 12165      784D736B 
 12165      00
 12166              	.LASF757:
 12167 3b55 6F776E41 		.ascii	"ownAddrType\000"
 12167      64647254 
 12167      79706500 
 12168              	.LASF281:
 12169 3b61 6C70636F 		.ascii	"lpcomp_interrupt_IRQn\000"
 12169      6D705F69 
 12169      6E746572 
 12169      72757074 
 12169      5F495251 
 12170              	.LASF737:
 12171 3b77 626F6E64 		.ascii	"bonding\000"
 12171      696E6700 
 12172              	.LASF510:
 12173 3b7f 43595F42 		.ascii	"CY_BLE_EVT_GATTC_READ_RSP\000"
 12173      4C455F45 
 12173      56545F47 
 12173      41545443 
 12173      5F524541 
 12174              	.LASF861:
 12175 3b99 7478506F 		.ascii	"txPowerLevelAdv\000"
 12175      7765724C 
 12175      6576656C 
 12175      41647600 
 12176              	.LASF1163:
 12177 3ba9 43595F42 		.ascii	"CY_BLE_EVT_WPTSS_NOTIFICATION_DISABLED\000"
 12177      4C455F45 
 12177      56545F57 
 12177      50545353 
 12177      5F4E4F54 
 12178              	.LASF682:
 12179 3bd0 43595F42 		.ascii	"CY_BLE_GATT_ERR_ANCS_INVALID_PARAMETER\000"
 12179      4C455F47 
 12179      4154545F 
 12179      4552525F 
 12179      414E4353 
 12180              	.LASF1109:
 12181 3bf7 43595F42 		.ascii	"CY_BLE_EVT_PLXSS_INDICATION_ENABLED\000"
 12181      4C455F45 
 12181      56545F50 
 12181      4C585353 
 12181      5F494E44 
 12182              	.LASF450:
 12183 3c1b 43595F42 		.ascii	"CY_BLE_EVT_PHY_UPDATE_COMPLETE\000"
 12183      4C455F45 
 12183      56545F50 
 12183      48595F55 
 12183      50444154 
 12184              	.LASF339:
 12185 3c3a 63707573 		.ascii	"cpuss_interrupts_dw1_9_IRQn\000"
 12185      735F696E 
 12185      74657272 
ARM GAS  C:\Users\D4DE~1\AppData\Local\Temp\cccuUyWy.s 			page 287


 12185      75707473 
 12185      5F647731 
 12186              	.LASF585:
 12187 3c56 63795F65 		.ascii	"cy_en_ble_bless_pwr_lvl_t\000"
 12187      6E5F626C 
 12187      655F626C 
 12187      6573735F 
 12187      7077725F 
 12188              	.LASF9:
 12189 3c70 73686F72 		.ascii	"short unsigned int\000"
 12189      7420756E 
 12189      7369676E 
 12189      65642069 
 12189      6E7400
 12190              	.LASF447:
 12191 3c83 43595F42 		.ascii	"CY_BLE_EVT_GET_PHY_COMPLETE\000"
 12191      4C455F45 
 12191      56545F47 
 12191      45545F50 
 12191      48595F43 
 12192              	.LASF1202:
 12193 3c9f 6572725F 		.ascii	"err_param\000"
 12193      70617261 
 12193      6D00
 12194              	.LASF561:
 12195 3ca9 43595F42 		.ascii	"CY_BLE_ERROR_HARDWARE_FAILURE\000"
 12195      4C455F45 
 12195      52524F52 
 12195      5F484152 
 12195      44574152 
 12196              	.LASF451:
 12197 3cc7 43595F42 		.ascii	"CY_BLE_EVT_SET_PRIVACY_MODE_COMPLETE\000"
 12197      4C455F45 
 12197      56545F53 
 12197      45545F50 
 12197      52495641 
 12198              	.LASF1148:
 12199 3cec 43595F42 		.ascii	"CY_BLE_EVT_UDSS_INDICATION_ENABLED\000"
 12199      4C455F45 
 12199      56545F55 
 12199      4453535F 
 12199      494E4449 
 12200              	.LASF695:
 12201 3d0f 68616E64 		.ascii	"handleValPair\000"
 12201      6C655661 
 12201      6C506169 
 12201      7200
 12202              	.LASF1012:
 12203 3d1d 43595F42 		.ascii	"CY_BLE_EVT_ESSS_INDICATION_ENABLED\000"
 12203      4C455F45 
 12203      56545F45 
 12203      5353535F 
 12203      494E4449 
 12204              	.LASF23:
 12205 3d40 52455345 		.ascii	"RESERVED1\000"
 12205      52564544 
 12205      3100
ARM GAS  C:\Users\D4DE~1\AppData\Local\Temp\cccuUyWy.s 			page 288


 12206              	.LASF25:
 12207 3d4a 52455345 		.ascii	"RESERVED2\000"
 12207      52564544 
 12207      3200
 12208              	.LASF27:
 12209 3d54 52455345 		.ascii	"RESERVED3\000"
 12209      52564544 
 12209      3300
 12210              	.LASF37:
 12211 3d5e 52455345 		.ascii	"RESERVED4\000"
 12211      52564544 
 12211      3400
 12212              	.LASF40:
 12213 3d68 52455345 		.ascii	"RESERVED5\000"
 12213      52564544 
 12213      3500
 12214              	.LASF42:
 12215 3d72 52455345 		.ascii	"RESERVED6\000"
 12215      52564544 
 12215      3600
 12216              	.LASF45:
 12217 3d7c 52455345 		.ascii	"RESERVED7\000"
 12217      52564544 
 12217      3700
 12218              	.LASF50:
 12219 3d86 52455345 		.ascii	"RESERVED8\000"
 12219      52564544 
 12219      3800
 12220              	.LASF58:
 12221 3d90 52455345 		.ascii	"RESERVED9\000"
 12221      52564544 
 12221      3900
 12222              	.LASF258:
 12223 3d9a 4E766963 		.ascii	"NvicMux28_IRQn\000"
 12223      4D757832 
 12223      385F4952 
 12223      516E00
 12224              	.LASF6:
 12225 3da9 5F5F696E 		.ascii	"__int16_t\000"
 12225      7431365F 
 12225      7400
 12226              	.LASF1063:
 12227 3db3 43595F42 		.ascii	"CY_BLE_EVT_HTSS_NOTIFICATION_ENABLED\000"
 12227      4C455F45 
 12227      56545F48 
 12227      5453535F 
 12227      4E4F5449 
 12228              	.LASF1128:
 12229 3dd8 43595F42 		.ascii	"CY_BLE_EVT_RSCSC_NOTIFICATION\000"
 12229      4C455F45 
 12229      56545F52 
 12229      53435343 
 12229      5F4E4F54 
 12230              	.LASF622:
 12231 3df6 43595F42 		.ascii	"CY_BLE_GATT_FIND_INFO_REQ\000"
 12231      4C455F47 
 12231      4154545F 
ARM GAS  C:\Users\D4DE~1\AppData\Local\Temp\cccuUyWy.s 			page 289


 12231      46494E44 
 12231      5F494E46 
 12232              	.LASF747:
 12233 3e10 6C6F6361 		.ascii	"localResolvablePvtAddr\000"
 12233      6C526573 
 12233      6F6C7661 
 12233      626C6550 
 12233      76744164 
 12234              	.LASF540:
 12235 3e27 43595F42 		.ascii	"CY_BLE_INFO_FLASH_WRITE_IN_PROGRESS\000"
 12235      4C455F49 
 12235      4E464F5F 
 12235      464C4153 
 12235      485F5752 
 12236              	.LASF344:
 12237 3e4b 63707573 		.ascii	"cpuss_interrupts_dw1_14_IRQn\000"
 12237      735F696E 
 12237      74657272 
 12237      75707473 
 12237      5F647731 
 12238              	.LASF381:
 12239 3e68 74637077 		.ascii	"tcpwm_1_interrupts_19_IRQn\000"
 12239      6D5F315F 
 12239      696E7465 
 12239      72727570 
 12239      74735F31 
 12240              	.LASF1059:
 12241 3e83 43595F42 		.ascii	"CY_BLE_EVT_HRSC_READ_CHAR_RESPONSE\000"
 12241      4C455F45 
 12241      56545F48 
 12241      5253435F 
 12241      52454144 
 12242              	.LASF297:
 12243 3ea6 63707573 		.ascii	"cpuss_interrupts_ipc_8_IRQn\000"
 12243      735F696E 
 12243      74657272 
 12243      75707473 
 12243      5F697063 
 12244              	.LASF267:
 12245 3ec2 696F7373 		.ascii	"ioss_interrupts_gpio_3_IRQn\000"
 12245      5F696E74 
 12245      65727275 
 12245      7074735F 
 12245      6770696F 
 12246              	.LASF707:
 12247 3ede 43595F42 		.ascii	"CY_BLE_GAP_IOCAP_DISPLAY_YESNO\000"
 12247      4C455F47 
 12247      41505F49 
 12247      4F434150 
 12247      5F444953 
 12248              	.LASF732:
 12249 3efd 43595F42 		.ascii	"CY_BLE_GAP_PUBLIC_IDENTITY_ADDR_TYPE\000"
 12249      4C455F47 
 12249      41505F50 
 12249      55424C49 
 12249      435F4944 
 12250              	.LASF236:
ARM GAS  C:\Users\D4DE~1\AppData\Local\Temp\cccuUyWy.s 			page 290


 12251 3f22 4E766963 		.ascii	"NvicMux6_IRQn\000"
 12251      4D757836 
 12251      5F495251 
 12251      6E00
 12252              	.LASF952:
 12253 3f30 43595F42 		.ascii	"CY_BLE_EVT_BLSC_INDICATION\000"
 12253      4C455F45 
 12253      56545F42 
 12253      4C53435F 
 12253      494E4449 
 12254              	.LASF888:
 12255 3f4b 43595F42 		.ascii	"CY_BLE_EVT_GATTS_EVT_CCCD_CORRUPT\000"
 12255      4C455F45 
 12255      56545F47 
 12255      41545453 
 12255      5F455654 
 12256              	.LASF937:
 12257 3f6d 43595F42 		.ascii	"CY_BLE_EVT_BASC_READ_CHAR_RESPONSE\000"
 12257      4C455F45 
 12257      56545F42 
 12257      4153435F 
 12257      52454144 
 12258              	.LASF843:
 12259 3f90 61747448 		.ascii	"attHandle\000"
 12259      616E646C 
 12259      6500
 12260              	.LASF567:
 12261 3f9a 43595F42 		.ascii	"CY_BLE_ERROR_INVALID_STATE\000"
 12261      4C455F45 
 12261      52524F52 
 12261      5F494E56 
 12261      414C4944 
 12262              	.LASF168:
 12263 3fb5 70617373 		.ascii	"passSarChannels\000"
 12263      53617243 
 12263      68616E6E 
 12263      656C7300 
 12264              	.LASF1136:
 12265 3fc5 43595F42 		.ascii	"CY_BLE_EVT_SCPSS_NOTIFICATION_ENABLED\000"
 12265      4C455F45 
 12265      56545F53 
 12265      43505353 
 12265      5F4E4F54 
 12266              	.LASF16:
 12267 3feb 75696E74 		.ascii	"uint8_t\000"
 12267      385F7400 
 12268              	.LASF367:
 12269 3ff3 74637077 		.ascii	"tcpwm_1_interrupts_5_IRQn\000"
 12269      6D5F315F 
 12269      696E7465 
 12269      72727570 
 12269      74735F35 
 12270              	.LASF1262:
 12271 400d 43795F42 		.ascii	"Cy_BLE_GATTS_ReadAttributeValueCCCDReqHandler\000"
 12271      4C455F47 
 12271      41545453 
 12271      5F526561 
ARM GAS  C:\Users\D4DE~1\AppData\Local\Temp\cccuUyWy.s 			page 291


 12271      64417474 
 12272              	.LASF595:
 12273 403b 43595F42 		.ascii	"CY_BLE_GAP_SCAN_TO\000"
 12273      4C455F47 
 12273      41505F53 
 12273      43414E5F 
 12273      544F00
 12274              	.LASF517:
 12275 404e 43595F42 		.ascii	"CY_BLE_EVT_GATTS_EXEC_WRITE_REQ\000"
 12275      4C455F45 
 12275      56545F47 
 12275      41545453 
 12275      5F455845 
 12276              	.LASF1080:
 12277 406e 43595F42 		.ascii	"CY_BLE_EVT_IPSC_READ_MULTIPLE_CHAR_RESPONSE\000"
 12277      4C455F45 
 12277      56545F49 
 12277      5053435F 
 12277      52454144 
 12278              	.LASF1091:
 12279 409a 43595F42 		.ascii	"CY_BLE_EVT_LNSS_INDICATION_CONFIRMED\000"
 12279      4C455F45 
 12279      56545F4C 
 12279      4E53535F 
 12279      494E4449 
 12280              	.LASF1154:
 12281 40bf 43595F42 		.ascii	"CY_BLE_EVT_UDSS_WRITE_CHAR\000"
 12281      4C455F45 
 12281      56545F55 
 12281      4453535F 
 12281      57524954 
 12282              	.LASF894:
 12283 40da 43595F42 		.ascii	"CY_BLE_EVT_GATTC_CHAR_DISCOVERY_FAILED\000"
 12283      4C455F45 
 12283      56545F47 
 12283      41545443 
 12283      5F434841 
 12284              	.LASF925:
 12285 4101 43595F42 		.ascii	"CY_BLE_EVT_ANCSC_ERROR_RESPONSE\000"
 12285      4C455F45 
 12285      56545F41 
 12285      4E435343 
 12285      5F455252 
 12286              	.LASF285:
 12287 4121 73727373 		.ascii	"srss_interrupt_backup_IRQn\000"
 12287      5F696E74 
 12287      65727275 
 12287      70745F62 
 12287      61636B75 
 12288              	.LASF123:
 12289 413c 52544F43 		.ascii	"RTOC2_MAGIC_NUMBER\000"
 12289      325F4D41 
 12289      4749435F 
 12289      4E554D42 
 12289      455200
 12290              	.LASF474:
 12291 414f 43595F42 		.ascii	"CY_BLE_EVT_GAPC_SCAN_PROGRESS_RESULT\000"
ARM GAS  C:\Users\D4DE~1\AppData\Local\Temp\cccuUyWy.s 			page 292


 12291      4C455F45 
 12291      56545F47 
 12291      4150435F 
 12291      5343414E 
 12292              	.LASF690:
 12293 4174 63795F73 		.ascii	"cy_stc_ble_gatt_value_t\000"
 12293      74635F62 
 12293      6C655F67 
 12293      6174745F 
 12293      76616C75 
 12294              	.LASF104:
 12295 418c 52544F43 		.ascii	"RTOC1_SYSCALL_TABLE_ADDR_UNUSED\000"
 12295      315F5359 
 12295      5343414C 
 12295      4C5F5441 
 12295      424C455F 
 12296              	.LASF467:
 12297 41ac 43595F42 		.ascii	"CY_BLE_EVT_RADIO_TEMPERATURE\000"
 12297      4C455F45 
 12297      56545F52 
 12297      4144494F 
 12297      5F54454D 
 12298              	.LASF892:
 12299 41c9 43595F42 		.ascii	"CY_BLE_EVT_GATTC_SRVC_DISCOVERY_FAILED\000"
 12299      4C455F45 
 12299      56545F47 
 12299      41545443 
 12299      5F535256 
 12300              	.LASF66:
 12301 41f0 52414449 		.ascii	"RADIO_LDO_TRIMS\000"
 12301      4F5F4C44 
 12301      4F5F5452 
 12301      494D5300 
 12302              	.LASF403:
 12303 4200 61756469 		.ascii	"audioss_interrupt_i2s_IRQn\000"
 12303      6F73735F 
 12303      696E7465 
 12303      72727570 
 12303      745F6932 
 12304              	.LASF1174:
 12305 421b 43595F42 		.ascii	"CY_BLE_EVT_WSSS_INDICATION_ENABLED\000"
 12305      4C455F45 
 12305      56545F57 
 12305      5353535F 
 12305      494E4449 
 12306              	.LASF74:
 12307 423e 43505553 		.ascii	"CPUSS_TRIM_ROM_CTL_HALF_LP\000"
 12307      535F5452 
 12307      494D5F52 
 12307      4F4D5F43 
 12307      544C5F48 
 12308              	.LASF740:
 12309 4259 70616972 		.ascii	"pairingProperties\000"
 12309      696E6750 
 12309      726F7065 
 12309      72746965 
 12309      7300
ARM GAS  C:\Users\D4DE~1\AppData\Local\Temp\cccuUyWy.s 			page 293


 12310              	.LASF875:
 12311 426b 61747456 		.ascii	"attValuesCCCD\000"
 12311      616C7565 
 12311      73434343 
 12311      4400
 12312              	.LASF787:
 12313 4279 43595F42 		.ascii	"CY_BLE_STATE_INITIALIZING\000"
 12313      4C455F53 
 12313      54415445 
 12313      5F494E49 
 12313      5449414C 
 12314              	.LASF449:
 12315 4293 43595F42 		.ascii	"CY_BLE_EVT_SET_PHY_COMPLETE\000"
 12315      4C455F45 
 12315      56545F53 
 12315      45545F50 
 12315      48595F43 
 12316              	.LASF415:
 12317 42af 666C6F61 		.ascii	"float\000"
 12317      7400
 12318              	.LASF126:
 12319 42b5 52544F43 		.ascii	"RTOC2_FIRST_USER_APP_ADDR\000"
 12319      325F4649 
 12319      5253545F 
 12319      55534552 
 12319      5F415050 
 12320              	.LASF497:
 12321 42cf 43595F42 		.ascii	"CY_BLE_EVT_GAP_CREATE_CONN_CANCEL_COMPLETE\000"
 12321      4C455F45 
 12321      56545F47 
 12321      41505F43 
 12321      52454154 
 12322              	.LASF144:
 12323 42fa 70617373 		.ascii	"passBase\000"
 12323      42617365 
 12323      00
 12324              	.LASF728:
 12325 4303 43595F42 		.ascii	"CY_BLE_GAP_AUTH_ERROR_LINK_DISCONNECTED\000"
 12325      4C455F47 
 12325      41505F41 
 12325      5554485F 
 12325      4552524F 
 12326              	.LASF4:
 12327 432b 756E7369 		.ascii	"unsigned char\000"
 12327      676E6564 
 12327      20636861 
 12327      7200
 12328              	.LASF417:
 12329 4339 696E7472 		.ascii	"intrSrc\000"
 12329      53726300 
 12330              	.LASF934:
 12331 4341 43595F42 		.ascii	"CY_BLE_EVT_BASS_NOTIFICATION_ENABLED\000"
 12331      4C455F45 
 12331      56545F42 
 12331      4153535F 
 12331      4E4F5449 
 12332              	.LASF872:
ARM GAS  C:\Users\D4DE~1\AppData\Local\Temp\cccuUyWy.s 			page 294


 12333 4366 666C6173 		.ascii	"flashStorage\000"
 12333      6853746F 
 12333      72616765 
 12333      00
 12334              	.LASF501:
 12335 4373 43595F42 		.ascii	"CY_BLE_EVT_GATTC_ERROR_RSP\000"
 12335      4C455F45 
 12335      56545F47 
 12335      41545443 
 12335      5F455252 
 12336              	.LASF584:
 12337 438e 43595F42 		.ascii	"CY_BLE_LL_PWR_LVL_MAX\000"
 12337      4C455F4C 
 12337      4C5F5057 
 12337      525F4C56 
 12337      4C5F4D41 
 12338              	.LASF557:
 12339 43a4 43595F42 		.ascii	"CY_BLE_ERROR_UNSUPPORTED_FEATURE_OR_PARAMETER_VALUE"
 12339      4C455F45 
 12339      52524F52 
 12339      5F554E53 
 12339      5550504F 
 12340 43d7 00       		.ascii	"\000"
 12341              	.LASF355:
 12342 43d8 74637077 		.ascii	"tcpwm_0_interrupts_1_IRQn\000"
 12342      6D5F305F 
 12342      696E7465 
 12342      72727570 
 12342      74735F31 
 12343              	.LASF473:
 12344 43f2 43595F42 		.ascii	"CY_BLE_EVT_HCI_PKT_RCVD\000"
 12344      4C455F45 
 12344      56545F48 
 12344      43495F50 
 12344      4B545F52 
 12345              	.LASF733:
 12346 440a 43595F42 		.ascii	"CY_BLE_GAP_RANDOM_IDENTITY_ADDR_TYPE\000"
 12346      4C455F47 
 12346      41505F52 
 12346      414E444F 
 12346      4D5F4944 
 12347              	.LASF1126:
 12348 442f 43595F42 		.ascii	"CY_BLE_EVT_RSCSS_INDICATION_CONFIRMATION\000"
 12348      4C455F45 
 12348      56545F52 
 12348      53435353 
 12348      5F494E44 
 12349              	.LASF744:
 12350 4458 73757065 		.ascii	"supervisionTo\000"
 12350      72766973 
 12350      696F6E54 
 12350      6F00
 12351              	.LASF1251:
 12352 4466 43795F42 		.ascii	"Cy_BLE_SetLeEventMask\000"
 12352      4C455F53 
 12352      65744C65 
 12352      4576656E 
ARM GAS  C:\Users\D4DE~1\AppData\Local\Temp\cccuUyWy.s 			page 295


 12352      744D6173 
 12353              	.LASF491:
 12354 447c 43595F42 		.ascii	"CY_BLE_EVT_GAPC_DIRECT_ADV_REPORT\000"
 12354      4C455F45 
 12354      56545F47 
 12354      4150435F 
 12354      44495245 
 12355              	.LASF564:
 12356 449e 43595F42 		.ascii	"CY_BLE_ERROR_IND_DISABLED\000"
 12356      4C455F45 
 12356      52524F52 
 12356      5F494E44 
 12356      5F444953 
 12357              	.LASF948:
 12358 44b8 43595F42 		.ascii	"CY_BLE_EVT_BLSS_INDICATION_DISABLED\000"
 12358      4C455F45 
 12358      56545F42 
 12358      4C53535F 
 12358      494E4449 
 12359              	.LASF739:
 12360 44dc 61757468 		.ascii	"authErr\000"
 12360      45727200 
 12361              	.LASF306:
 12362 44e4 7363625F 		.ascii	"scb_1_interrupt_IRQn\000"
 12362      315F696E 
 12362      74657272 
 12362      7570745F 
 12362      4952516E 
 12363              	.LASF390:
 12364 44f9 7564625F 		.ascii	"udb_interrupts_4_IRQn\000"
 12364      696E7465 
 12364      72727570 
 12364      74735F34 
 12364      5F495251 
 12365              	.LASF524:
 12366 450f 43595F42 		.ascii	"CY_BLE_EVT_GATTS_READ_CHAR_VAL_ACCESS_REQ\000"
 12366      4C455F45 
 12366      56545F47 
 12366      41545453 
 12366      5F524541 
 12367              	.LASF174:
 12368 4539 666C6173 		.ascii	"flashRwwRequired\000"
 12368      68527777 
 12368      52657175 
 12368      69726564 
 12368      00
 12369              	.LASF336:
 12370 454a 63707573 		.ascii	"cpuss_interrupts_dw1_6_IRQn\000"
 12370      735F696E 
 12370      74657272 
 12370      75707473 
 12370      5F647731 
 12371              	.LASF61:
 12372 4566 43534456 		.ascii	"CSDV2_CSD0_ADC_VREF0\000"
 12372      325F4353 
 12372      44305F41 
 12372      44435F56 
ARM GAS  C:\Users\D4DE~1\AppData\Local\Temp\cccuUyWy.s 			page 296


 12372      52454630 
 12373              	.LASF62:
 12374 457b 43534456 		.ascii	"CSDV2_CSD0_ADC_VREF1\000"
 12374      325F4353 
 12374      44305F41 
 12374      44435F56 
 12374      52454631 
 12375              	.LASF63:
 12376 4590 43534456 		.ascii	"CSDV2_CSD0_ADC_VREF2\000"
 12376      325F4353 
 12376      44305F41 
 12376      44435F56 
 12376      52454632 
 12377              	.LASF1008:
 12378 45a5 43595F42 		.ascii	"CY_BLE_EVT_CTSC_WRITE_CHAR_RESPONSE\000"
 12378      4C455F45 
 12378      56545F43 
 12378      5453435F 
 12378      57524954 
 12379              	.LASF308:
 12380 45c9 7363625F 		.ascii	"scb_3_interrupt_IRQn\000"
 12380      335F696E 
 12380      74657272 
 12380      7570745F 
 12380      4952516E 
 12381              	.LASF710:
 12382 45de 43595F42 		.ascii	"CY_BLE_GAP_IOCAP_KEYBOARD_DISPLAY\000"
 12382      4C455F47 
 12382      41505F49 
 12382      4F434150 
 12382      5F4B4559 
 12383              	.LASF550:
 12384 4600 43595F42 		.ascii	"CY_BLE_ERROR_GAP_ROLE\000"
 12384      4C455F45 
 12384      52524F52 
 12384      5F474150 
 12384      5F524F4C 
 12385              	.LASF1019:
 12386 4616 43595F42 		.ascii	"CY_BLE_EVT_ESSC_READ_CHAR_RESPONSE\000"
 12386      4C455F45 
 12386      56545F45 
 12386      5353435F 
 12386      52454144 
 12387              	.LASF974:
 12388 4639 43595F42 		.ascii	"CY_BLE_EVT_CPSS_NOTIFICATION_DISABLED\000"
 12388      4C455F45 
 12388      56545F43 
 12388      5053535F 
 12388      4E4F5449 
 12389              	.LASF633:
 12390 465f 43595F42 		.ascii	"CY_BLE_GATT_READ_MULTIPLE_RSP\000"
 12390      4C455F47 
 12390      4154545F 
 12390      52454144 
 12390      5F4D554C 
 12391              	.LASF1053:
 12392 467d 43595F42 		.ascii	"CY_BLE_EVT_HPSC_WRITE_DESCR_RESPONSE\000"
ARM GAS  C:\Users\D4DE~1\AppData\Local\Temp\cccuUyWy.s 			page 297


 12392      4C455F45 
 12392      56545F48 
 12392      5053435F 
 12392      57524954 
 12393              	.LASF255:
 12394 46a2 4E766963 		.ascii	"NvicMux25_IRQn\000"
 12394      4D757832 
 12394      355F4952 
 12394      516E00
 12395              	.LASF310:
 12396 46b1 7363625F 		.ascii	"scb_5_interrupt_IRQn\000"
 12396      355F696E 
 12396      74657272 
 12396      7570745F 
 12396      4952516E 
 12397              	.LASF279:
 12398 46c6 696F7373 		.ascii	"ioss_interrupt_gpio_IRQn\000"
 12398      5F696E74 
 12398      65727275 
 12398      70745F67 
 12398      70696F5F 
 12399              	.LASF125:
 12400 46df 52544F43 		.ascii	"RTOC2_SMIF_CFG_STRUCT_ADDR\000"
 12400      325F534D 
 12400      49465F43 
 12400      46475F53 
 12400      54525543 
 12401              	.LASF494:
 12402 46fa 43595F42 		.ascii	"CY_BLE_EVT_GAP_KEYS_GEN_COMPLETE\000"
 12402      4C455F45 
 12402      56545F47 
 12402      41505F4B 
 12402      4559535F 
 12403              	.LASF134:
 12404 471b 52544F43 		.ascii	"RTOC2_FLAGS\000"
 12404      325F464C 
 12404      41475300 
 12405              	.LASF725:
 12406 4727 43595F42 		.ascii	"CY_BLE_GAP_AUTH_ERROR_BR_EDR_PAIRING_IN_PROGRESS\000"
 12406      4C455F47 
 12406      41505F41 
 12406      5554485F 
 12406      4552524F 
 12407              	.LASF341:
 12408 4758 63707573 		.ascii	"cpuss_interrupts_dw1_11_IRQn\000"
 12408      735F696E 
 12408      74657272 
 12408      75707473 
 12408      5F647731 
 12409              	.LASF984:
 12410 4775 43595F42 		.ascii	"CY_BLE_EVT_CPSC_WRITE_CHAR_RESPONSE\000"
 12410      4C455F45 
 12410      56545F43 
 12410      5053435F 
 12410      57524954 
 12411              	.LASF312:
 12412 4799 7363625F 		.ascii	"scb_7_interrupt_IRQn\000"
ARM GAS  C:\Users\D4DE~1\AppData\Local\Temp\cccuUyWy.s 			page 298


 12412      375F696E 
 12412      74657272 
 12412      7570745F 
 12412      4952516E 
 12413              	.LASF518:
 12414 47ae 43595F42 		.ascii	"CY_BLE_EVT_GATTC_EXEC_WRITE_RSP\000"
 12414      4C455F45 
 12414      56545F47 
 12414      41545443 
 12414      5F455845 
 12415              	.LASF294:
 12416 47ce 63707573 		.ascii	"cpuss_interrupts_ipc_5_IRQn\000"
 12416      735F696E 
 12416      74657272 
 12416      75707473 
 12416      5F697063 
 12417              	.LASF264:
 12418 47ea 696F7373 		.ascii	"ioss_interrupts_gpio_0_IRQn\000"
 12418      5F696E74 
 12418      65727275 
 12418      7074735F 
 12418      6770696F 
 12419              	.LASF889:
 12420 4806 43595F42 		.ascii	"CY_BLE_EVT_GATTS_INDICATION_ENABLED\000"
 12420      4C455F45 
 12420      56545F47 
 12420      41545453 
 12420      5F494E44 
 12421              	.LASF1243:
 12422 482a 63795F62 		.ascii	"cy_ble_busyStatus\000"
 12422      6C655F62 
 12422      75737953 
 12422      74617475 
 12422      7300
 12423              	.LASF1185:
 12424 483c 43595F42 		.ascii	"CY_BLE_EVT_BTSS_PREP_WRITE_REQ\000"
 12424      4C455F45 
 12424      56545F42 
 12424      5453535F 
 12424      50524550 
 12425              	.LASF511:
 12426 485b 43595F42 		.ascii	"CY_BLE_EVT_GATTC_READ_BLOB_RSP\000"
 12426      4C455F45 
 12426      56545F47 
 12426      41545443 
 12426      5F524541 
 12427              	.LASF571:
 12428 487a 74797065 		.ascii	"type\000"
 12428      00
 12429              	.LASF1210:
 12430 487f 43795F42 		.ascii	"Cy_BLE_GetConnectionState\000"
 12430      4C455F47 
 12430      6574436F 
 12430      6E6E6563 
 12430      74696F6E 
 12431              	.LASF233:
 12432 4899 4E766963 		.ascii	"NvicMux3_IRQn\000"
ARM GAS  C:\Users\D4DE~1\AppData\Local\Temp\cccuUyWy.s 			page 299


 12432      4D757833 
 12432      5F495251 
 12432      6E00
 12433              	.LASF781:
 12434 48a7 63795F73 		.ascii	"cy_stc_ble_gapp_scan_rsp_data_t\000"
 12434      74635F62 
 12434      6C655F67 
 12434      6170705F 
 12434      7363616E 
 12435              	.LASF226:
 12436 48c7 48617264 		.ascii	"HardFault_IRQn\000"
 12436      4661756C 
 12436      745F4952 
 12436      516E00
 12437              	.LASF208:
 12438 48d6 63707573 		.ascii	"cpussCm4ClockCtlOffset\000"
 12438      73436D34 
 12438      436C6F63 
 12438      6B43746C 
 12438      4F666673 
 12439              	.LASF187:
 12440 48ed 64774368 		.ascii	"dwChCtlPreemptablePos\000"
 12440      43746C50 
 12440      7265656D 
 12440      70746162 
 12440      6C65506F 
 12441              	.LASF1209:
 12442 4903 61646472 		.ascii	"addressValid\000"
 12442      65737356 
 12442      616C6964 
 12442      00
 12443              	.LASF970:
 12444 4910 43595F42 		.ascii	"CY_BLE_EVT_CGMSC_WRITE_CHAR_RESPONSE\000"
 12444      4C455F45 
 12444      56545F43 
 12444      474D5343 
 12444      5F575249 
 12445              	.LASF589:
 12446 4935 63795F65 		.ascii	"cy_en_ble_bless_phy_ch_grp_id_t\000"
 12446      6E5F626C 
 12446      655F626C 
 12446      6573735F 
 12446      7068795F 
 12447              	.LASF998:
 12448 4955 43595F42 		.ascii	"CY_BLE_EVT_CSCSC_WRITE_CHAR_RESPONSE\000"
 12448      4C455F45 
 12448      56545F43 
 12448      53435343 
 12448      5F575249 
 12449              	.LASF1157:
 12450 497a 43595F42 		.ascii	"CY_BLE_EVT_UDSC_READ_CHAR_RESPONSE\000"
 12450      4C455F45 
 12450      56545F55 
 12450      4453435F 
 12450      52454144 
 12451              	.LASF1159:
 12452 499d 43595F42 		.ascii	"CY_BLE_EVT_UDSC_READ_DESCR_RESPONSE\000"
ARM GAS  C:\Users\D4DE~1\AppData\Local\Temp\cccuUyWy.s 			page 300


 12452      4C455F45 
 12452      56545F55 
 12452      4453435F 
 12452      52454144 
 12453              	.LASF364:
 12454 49c1 74637077 		.ascii	"tcpwm_1_interrupts_2_IRQn\000"
 12454      6D5F315F 
 12454      696E7465 
 12454      72727570 
 12454      74735F32 
 12455              	.LASF821:
 12456 49db 66617374 		.ascii	"fastScanTimeOut\000"
 12456      5363616E 
 12456      54696D65 
 12456      4F757400 
 12457              	.LASF248:
 12458 49eb 4E766963 		.ascii	"NvicMux18_IRQn\000"
 12458      4D757831 
 12458      385F4952 
 12458      516E00
 12459              	.LASF220:
 12460 49fa 63707573 		.ascii	"cpussRam2Ctl0\000"
 12460      7352616D 
 12460      3243746C 
 12460      3000
 12461              	.LASF478:
 12462 4a08 43595F42 		.ascii	"CY_BLE_EVT_GAP_AUTH_COMPLETE\000"
 12462      4C455F45 
 12462      56545F47 
 12462      41505F41 
 12462      5554485F 
 12463              	.LASF1191:
 12464 4a25 43595F42 		.ascii	"CY_BLE_EVT_GATTC_DISC_DESCR_GET_RANGE\000"
 12464      4C455F45 
 12464      56545F47 
 12464      41545443 
 12464      5F444953 
 12465              	.LASF1125:
 12466 4a4b 43595F42 		.ascii	"CY_BLE_EVT_RSCSS_INDICATION_DISABLED\000"
 12466      4C455F45 
 12466      56545F52 
 12466      53435353 
 12466      5F494E44 
 12467              	.LASF350:
 12468 4a70 63707573 		.ascii	"cpuss_interrupts_cm0_cti_0_IRQn\000"
 12468      735F696E 
 12468      74657272 
 12468      75707473 
 12468      5F636D30 
 12469              	.LASF753:
 12470 4a90 64697363 		.ascii	"discProcedure\000"
 12470      50726F63 
 12470      65647572 
 12470      6500
 12471              	.LASF1062:
 12472 4a9e 43595F42 		.ascii	"CY_BLE_EVT_HRSC_WRITE_DESCR_RESPONSE\000"
 12472      4C455F45 
ARM GAS  C:\Users\D4DE~1\AppData\Local\Temp\cccuUyWy.s 			page 301


 12472      56545F48 
 12472      5253435F 
 12472      57524954 
 12473              	.LASF162:
 12474 4ac3 63707573 		.ascii	"cpussNotConnectedIrq\000"
 12474      734E6F74 
 12474      436F6E6E 
 12474      65637465 
 12474      64497271 
 12475              	.LASF274:
 12476 4ad8 696F7373 		.ascii	"ioss_interrupts_gpio_10_IRQn\000"
 12476      5F696E74 
 12476      65727275 
 12476      7074735F 
 12476      6770696F 
 12477              	.LASF945:
 12478 4af5 43595F42 		.ascii	"CY_BLE_EVT_BCSC_READ_DESCR_RESPONSE\000"
 12478      4C455F45 
 12478      56545F42 
 12478      4353435F 
 12478      52454144 
 12479              	.LASF625:
 12480 4b19 43595F42 		.ascii	"CY_BLE_GATT_FIND_BY_TYPE_VALUE_RSP\000"
 12480      4C455F47 
 12480      4154545F 
 12480      46494E44 
 12480      5F42595F 
 12481              	.LASF975:
 12482 4b3c 43595F42 		.ascii	"CY_BLE_EVT_CPSS_INDICATION_ENABLED\000"
 12482      4C455F45 
 12482      56545F43 
 12482      5053535F 
 12482      494E4449 
 12483              	.LASF1230:
 12484 4b5f 63795F62 		.ascii	"cy_ble_advState\000"
 12484      6C655F61 
 12484      64765374 
 12484      61746500 
 12485              	.LASF321:
 12486 4b6f 63707573 		.ascii	"cpuss_interrupts_dw0_7_IRQn\000"
 12486      735F696E 
 12486      74657272 
 12486      75707473 
 12486      5F647730 
 12487              	.LASF1066:
 12488 4b8b 43595F42 		.ascii	"CY_BLE_EVT_HTSS_INDICATION_DISABLED\000"
 12488      4C455F45 
 12488      56545F48 
 12488      5453535F 
 12488      494E4449 
 12489              	.LASF1161:
 12490 4baf 43595F42 		.ascii	"CY_BLE_EVT_UDSC_ERROR_RESPONSE\000"
 12490      4C455F45 
 12490      56545F55 
 12490      4453435F 
 12490      4552524F 
 12491              	.LASF706:
ARM GAS  C:\Users\D4DE~1\AppData\Local\Temp\cccuUyWy.s 			page 302


 12492 4bce 43595F42 		.ascii	"CY_BLE_GAP_IOCAP_DISPLAY_ONLY\000"
 12492      4C455F47 
 12492      41505F49 
 12492      4F434150 
 12492      5F444953 
 12493              	.LASF420:
 12494 4bec 63795F73 		.ascii	"cy_stc_sysint_t\000"
 12494      74635F73 
 12494      7973696E 
 12494      745F7400 
 12495              	.LASF545:
 12496 4bfc 43595F42 		.ascii	"CY_BLE_ERROR_OOB_NOT_AVAILABLE\000"
 12496      4C455F45 
 12496      52524F52 
 12496      5F4F4F42 
 12496      5F4E4F54 
 12497              	.LASF213:
 12498 4c1b 63707573 		.ascii	"cpussTrimRomCtlOffset\000"
 12498      73547269 
 12498      6D526F6D 
 12498      43746C4F 
 12498      66667365 
 12499              	.LASF98:
 12500 4c31 52544F43 		.ascii	"RTOC1_OBJECT_SIZE\000"
 12500      315F4F42 
 12500      4A454354 
 12500      5F53495A 
 12500      4500
 12501              	.LASF529:
 12502 4c43 43595F42 		.ascii	"CY_BLE_EVT_L2CAP_CBFC_CONN_IND\000"
 12502      4C455F45 
 12502      56545F4C 
 12502      32434150 
 12502      5F434246 
 12503              	.LASF973:
 12504 4c62 43595F42 		.ascii	"CY_BLE_EVT_CPSS_NOTIFICATION_ENABLED\000"
 12504      4C455F45 
 12504      56545F43 
 12504      5053535F 
 12504      4E4F5449 
 12505              	.LASF626:
 12506 4c87 43595F42 		.ascii	"CY_BLE_GATT_READ_BY_TYPE_REQ\000"
 12506      4C455F47 
 12506      4154545F 
 12506      52454144 
 12506      5F42595F 
 12507              	.LASF11:
 12508 4ca4 5F5F7569 		.ascii	"__uint32_t\000"
 12508      6E743332 
 12508      5F7400
 12509              	.LASF385:
 12510 4caf 74637077 		.ascii	"tcpwm_1_interrupts_23_IRQn\000"
 12510      6D5F315F 
 12510      696E7465 
 12510      72727570 
 12510      74735F32 
 12511              	.LASF742:
ARM GAS  C:\Users\D4DE~1\AppData\Local\Temp\cccuUyWy.s 			page 303


 12512 4cca 636F6E6E 		.ascii	"connIntv\000"
 12512      496E7476 
 12512      00
 12513              	.LASF691:
 12514 4cd3 76616C75 		.ascii	"value\000"
 12514      6500
 12515              	.LASF487:
 12516 4cd9 43595F42 		.ascii	"CY_BLE_EVT_GAP_NUMERIC_COMPARISON_REQUEST\000"
 12516      4C455F45 
 12516      56545F47 
 12516      41505F4E 
 12516      554D4552 
 12517              	.LASF1114:
 12518 4d03 43595F42 		.ascii	"CY_BLE_EVT_PLXSS_WRITE_CHAR\000"
 12518      4C455F45 
 12518      56545F50 
 12518      4C585353 
 12518      5F575249 
 12519              	.LASF1240:
 12520 4d1f 63795F62 		.ascii	"cy_ble_stackMemoryRam\000"
 12520      6C655F73 
 12520      7461636B 
 12520      4D656D6F 
 12520      72795261 
 12521              	.LASF453:
 12522 4d35 43595F42 		.ascii	"CY_BLE_EVT_SOFT_RESET_COMPLETE\000"
 12522      4C455F45 
 12522      56545F53 
 12522      4F46545F 
 12522      52455345 
 12523              	.LASF471:
 12524 4d54 43595F42 		.ascii	"CY_BLE_EVT_SET_CE_LENGTH_COMPLETE\000"
 12524      4C455F45 
 12524      56545F53 
 12524      45545F43 
 12524      455F4C45 
 12525              	.LASF1015:
 12526 4d76 43595F42 		.ascii	"CY_BLE_EVT_ESSS_WRITE_CHAR\000"
 12526      4C455F45 
 12526      56545F45 
 12526      5353535F 
 12526      57524954 
 12527              	.LASF1074:
 12528 4d91 43595F42 		.ascii	"CY_BLE_EVT_HTSC_WRITE_DESCR_RESPONSE\000"
 12528      4C455F45 
 12528      56545F48 
 12528      5453435F 
 12528      57524954 
 12529              	.LASF1170:
 12530 4db6 43595F42 		.ascii	"CY_BLE_EVT_WPTSC_WRITE_CHAR_RESPONSE\000"
 12530      4C455F45 
 12530      56545F57 
 12530      50545343 
 12530      5F575249 
 12531              	.LASF696:
 12532 4ddb 63795F73 		.ascii	"cy_stc_ble_gatt_write_param_t\000"
 12532      74635F62 
ARM GAS  C:\Users\D4DE~1\AppData\Local\Temp\cccuUyWy.s 			page 304


 12532      6C655F67 
 12532      6174745F 
 12532      77726974 
 12533              	.LASF698:
 12534 4df9 6572726F 		.ascii	"errorCode\000"
 12534      72436F64 
 12534      6500
 12535              	.LASF387:
 12536 4e03 7564625F 		.ascii	"udb_interrupts_1_IRQn\000"
 12536      696E7465 
 12536      72727570 
 12536      74735F31 
 12536      5F495251 
 12537              	.LASF43:
 12538 4e19 4C444F5F 		.ascii	"LDO_0P9V_TRIM\000"
 12538      30503956 
 12538      5F545249 
 12538      4D00
 12539              	.LASF59:
 12540 4e27 50494C4F 		.ascii	"PILO_FREQ_STEP\000"
 12540      5F465245 
 12540      515F5354 
 12540      455000
 12541              	.LASF979:
 12542 4e36 43595F42 		.ascii	"CY_BLE_EVT_CPSS_BROADCAST_DISABLED\000"
 12542      4C455F45 
 12542      56545F43 
 12542      5053535F 
 12542      42524F41 
 12543              	.LASF1042:
 12544 4e59 43595F42 		.ascii	"CY_BLE_EVT_HIDSC_NOTIFICATION\000"
 12544      4C455F45 
 12544      56545F48 
 12544      49445343 
 12544      5F4E4F54 
 12545              	.LASF333:
 12546 4e77 63707573 		.ascii	"cpuss_interrupts_dw1_3_IRQn\000"
 12546      735F696E 
 12546      74657272 
 12546      75707473 
 12546      5F647731 
 12547              	.LASF469:
 12548 4e93 43595F42 		.ascii	"CY_BLE_EVT_AES_CMAC_GEN_COMPLETE\000"
 12548      4C455F45 
 12548      56545F41 
 12548      45535F43 
 12548      4D41435F 
 12549              	.LASF1035:
 12550 4eb4 43595F42 		.ascii	"CY_BLE_EVT_HIDSS_NOTIFICATION_ENABLED\000"
 12550      4C455F45 
 12550      56545F48 
 12550      49445353 
 12550      5F4E4F54 
 12551              	.LASF949:
 12552 4eda 43595F42 		.ascii	"CY_BLE_EVT_BLSS_INDICATION_CONFIRMED\000"
 12552      4C455F45 
 12552      56545F42 
ARM GAS  C:\Users\D4DE~1\AppData\Local\Temp\cccuUyWy.s 			page 305


 12552      4C53535F 
 12552      494E4449 
 12553              	.LASF749:
 12554 4eff 726F6C65 		.ascii	"role\000"
 12554      00
 12555              	.LASF422:
 12556 4f04 43595F42 		.ascii	"CY_BLE_EVT_STACK_ON\000"
 12556      4C455F45 
 12556      56545F53 
 12556      5441434B 
 12556      5F4F4E00 
 12557              	.LASF151:
 12558 4f18 6770696F 		.ascii	"gpioVersion\000"
 12558      56657273 
 12558      696F6E00 
 12559              	.LASF477:
 12560 4f24 43595F42 		.ascii	"CY_BLE_EVT_GAP_PASSKEY_DISPLAY_REQUEST\000"
 12560      4C455F45 
 12560      56545F47 
 12560      41505F50 
 12560      4153534B 
 12561              	.LASF1060:
 12562 4f4b 43595F42 		.ascii	"CY_BLE_EVT_HRSC_WRITE_CHAR_RESPONSE\000"
 12562      4C455F45 
 12562      56545F48 
 12562      5253435F 
 12562      57524954 
 12563              	.LASF1194:
 12564 4f6f 636F756E 		.ascii	"count\000"
 12564      7400
 12565              	.LASF128:
 12566 4f75 52544F43 		.ascii	"RTOC2_SECOND_USER_APP_ADDR\000"
 12566      325F5345 
 12566      434F4E44 
 12566      5F555345 
 12566      525F4150 
 12567              	.LASF971:
 12568 4f90 43595F42 		.ascii	"CY_BLE_EVT_CGMSC_READ_DESCR_RESPONSE\000"
 12568      4C455F45 
 12568      56545F43 
 12568      474D5343 
 12568      5F524541 
 12569              	.LASF252:
 12570 4fb5 4E766963 		.ascii	"NvicMux22_IRQn\000"
 12570      4D757832 
 12570      325F4952 
 12570      516E00
 12571              	.LASF1141:
 12572 4fc4 43595F42 		.ascii	"CY_BLE_EVT_SCPSC_WRITE_DESCR_RESPONSE\000"
 12572      4C455F45 
 12572      56545F53 
 12572      43505343 
 12572      5F575249 
 12573              	.LASF39:
 12574 4fea 5341525F 		.ascii	"SAR_TEMP_OFFSET\000"
 12574      54454D50 
 12574      5F4F4646 
ARM GAS  C:\Users\D4DE~1\AppData\Local\Temp\cccuUyWy.s 			page 306


 12574      53455400 
 12575              	.LASF820:
 12576 4ffa 66617374 		.ascii	"fastScanWindow\000"
 12576      5363616E 
 12576      57696E64 
 12576      6F7700
 12577              	.LASF549:
 12578 5009 43595F42 		.ascii	"CY_BLE_ERROR_REPEATED_ATTEMPTS\000"
 12578      4C455F45 
 12578      52524F52 
 12578      5F524550 
 12578      45415445 
 12579              	.LASF378:
 12580 5028 74637077 		.ascii	"tcpwm_1_interrupts_16_IRQn\000"
 12580      6D5F315F 
 12580      696E7465 
 12580      72727570 
 12580      74735F31 
 12581              	.LASF80:
 12582 5043 464C4153 		.ascii	"FLASH_BOOT_N_CORES\000"
 12582      485F424F 
 12582      4F545F4E 
 12582      5F434F52 
 12582      455300
 12583              	.LASF1032:
 12584 5056 43595F42 		.ascii	"CY_BLE_EVT_GLSC_WRITE_CHAR_RESPONSE\000"
 12584      4C455F45 
 12584      56545F47 
 12584      4C53435F 
 12584      57524954 
 12585              	.LASF819:
 12586 507a 66617374 		.ascii	"fastScanInterval\000"
 12586      5363616E 
 12586      496E7465 
 12586      7276616C 
 12586      00
 12587              	.LASF291:
 12588 508b 63707573 		.ascii	"cpuss_interrupts_ipc_2_IRQn\000"
 12588      735F696E 
 12588      74657272 
 12588      75707473 
 12588      5F697063 
 12589              	.LASF411:
 12590 50a7 64697363 		.ascii	"disconnected_IRQn\000"
 12590      6F6E6E65 
 12590      63746564 
 12590      5F495251 
 12590      6E00
 12591              	.LASF433:
 12592 50b9 43595F42 		.ascii	"CY_BLE_EVT_LE_PING_AUTH_TIMEOUT\000"
 12592      4C455F45 
 12592      56545F4C 
 12592      455F5049 
 12592      4E475F41 
 12593              	.LASF230:
 12594 50d9 4E766963 		.ascii	"NvicMux0_IRQn\000"
 12594      4D757830 
ARM GAS  C:\Users\D4DE~1\AppData\Local\Temp\cccuUyWy.s 			page 307


 12594      5F495251 
 12594      6E00
 12595              	.LASF34:
 12596 50e7 4449455F 		.ascii	"DIE_DAY\000"
 12596      44415900 
 12597              	.LASF572:
 12598 50ef 63795F73 		.ascii	"cy_stc_ble_bd_addr_t\000"
 12598      74635F62 
 12598      6C655F62 
 12598      645F6164 
 12598      64725F74 
 12599              	.LASF908:
 12600 5104 43595F42 		.ascii	"CY_BLE_EVT_AIOSS_INDICATION_CONFIRMED\000"
 12600      4C455F45 
 12600      56545F41 
 12600      494F5353 
 12600      5F494E44 
 12601              	.LASF718:
 12602 512a 43595F42 		.ascii	"CY_BLE_GAP_AUTH_ERROR_INSUFFICIENT_ENCRYPTION_KEY_S"
 12602      4C455F47 
 12602      41505F41 
 12602      5554485F 
 12602      4552524F 
 12603 515d 495A4500 		.ascii	"IZE\000"
 12604              	.LASF828:
 12605 5161 67617063 		.ascii	"gapcConnectionSlaveLatency\000"
 12605      436F6E6E 
 12605      65637469 
 12605      6F6E536C 
 12605      6176654C 
 12606              	.LASF1081:
 12607 517c 43595F42 		.ascii	"CY_BLE_EVT_IPSC_WRITE_CHAR_RESPONSE\000"
 12607      4C455F45 
 12607      56545F49 
 12607      5053435F 
 12607      57524954 
 12608              	.LASF245:
 12609 51a0 4E766963 		.ascii	"NvicMux15_IRQn\000"
 12609      4D757831 
 12609      355F4952 
 12609      516E00
 12610              	.LASF1168:
 12611 51af 43595F42 		.ascii	"CY_BLE_EVT_WPTSC_NOTIFICATION\000"
 12611      4C455F45 
 12611      56545F57 
 12611      50545343 
 12611      5F4E4F54 
 12612              	.LASF1064:
 12613 51cd 43595F42 		.ascii	"CY_BLE_EVT_HTSS_NOTIFICATION_DISABLED\000"
 12613      4C455F45 
 12613      56545F48 
 12613      5453535F 
 12613      4E4F5449 
 12614              	.LASF967:
 12615 51f3 43595F42 		.ascii	"CY_BLE_EVT_CGMSC_INDICATION\000"
 12615      4C455F45 
 12615      56545F43 
ARM GAS  C:\Users\D4DE~1\AppData\Local\Temp\cccuUyWy.s 			page 308


 12615      474D5343 
 12615      5F494E44 
 12616              	.LASF939:
 12617 520f 43595F42 		.ascii	"CY_BLE_EVT_BASC_WRITE_DESCR_RESPONSE\000"
 12617      4C455F45 
 12617      56545F42 
 12617      4153435F 
 12617      57524954 
 12618              	.LASF1001:
 12619 5234 43595F42 		.ascii	"CY_BLE_EVT_CTSS_NOTIFICATION_ENABLED\000"
 12619      4C455F45 
 12619      56545F43 
 12619      5453535F 
 12619      4E4F5449 
 12620              	.LASF97:
 12621 5259 544F4331 		.ascii	"TOC1_CRC_ADDR\000"
 12621      5F435243 
 12621      5F414444 
 12621      5200
 12622              	.LASF515:
 12623 5267 43595F42 		.ascii	"CY_BLE_EVT_GATTS_WRITE_CMD_REQ\000"
 12623      4C455F45 
 12623      56545F47 
 12623      41545453 
 12623      5F575249 
 12624              	.LASF953:
 12625 5286 43595F42 		.ascii	"CY_BLE_EVT_BLSC_NOTIFICATION\000"
 12625      4C455F45 
 12625      56545F42 
 12625      4C53435F 
 12625      4E4F5449 
 12626              	.LASF536:
 12627 52a3 43595F42 		.ascii	"CY_BLE_EVT_L2CAP_CBFC_DATA_WRITE_IND\000"
 12627      4C455F45 
 12627      56545F4C 
 12627      32434150 
 12627      5F434246 
 12628              	.LASF442:
 12629 52c8 43595F42 		.ascii	"CY_BLE_EVT_SET_HOST_CHANNEL_COMPLETE\000"
 12629      4C455F45 
 12629      56545F53 
 12629      45545F48 
 12629      4F53545F 
 12630              	.LASF990:
 12631 52ed 43595F42 		.ascii	"CY_BLE_EVT_CSCSS_NOTIFICATION_DISABLED\000"
 12631      4C455F45 
 12631      56545F43 
 12631      53435353 
 12631      5F4E4F54 
 12632              	.LASF635:
 12633 5314 43595F42 		.ascii	"CY_BLE_GATT_READ_BY_GROUP_RSP\000"
 12633      4C455F47 
 12633      4154545F 
 12633      52454144 
 12633      5F42595F 
 12634              	.LASF77:
 12635 5332 464C4153 		.ascii	"FLASH_BOOT_OBJECT_SIZE\000"
ARM GAS  C:\Users\D4DE~1\AppData\Local\Temp\cccuUyWy.s 			page 309


 12635      485F424F 
 12635      4F545F4F 
 12635      424A4543 
 12635      545F5349 
 12636              	.LASF1212:
 12637 5349 6348616E 		.ascii	"cHandle\000"
 12637      646C6500 
 12638              	.LASF982:
 12639 5351 43595F42 		.ascii	"CY_BLE_EVT_CPSC_INDICATION\000"
 12639      4C455F45 
 12639      56545F43 
 12639      5053435F 
 12639      494E4449 
 12640              	.LASF318:
 12641 536c 63707573 		.ascii	"cpuss_interrupts_dw0_4_IRQn\000"
 12641      735F696E 
 12641      74657272 
 12641      75707473 
 12641      5F647730 
 12642              	.LASF1263:
 12643 5388 474E5520 		.ascii	"GNU C11 5.4.1 20160609 (release) [ARM/embedded-5-br"
 12643      43313120 
 12643      352E342E 
 12643      31203230 
 12643      31363036 
 12644 53bb 616E6368 		.ascii	"anch revision 237715] -mcpu=cortex-m0plus -mthumb -"
 12644      20726576 
 12644      6973696F 
 12644      6E203233 
 12644      37373135 
 12645 53ee 67202D4F 		.ascii	"g -Og -ffunction-sections -ffat-lto-objects\000"
 12645      67202D66 
 12645      66756E63 
 12645      74696F6E 
 12645      2D736563 
 12646              	.LASF709:
 12647 541a 43595F42 		.ascii	"CY_BLE_GAP_IOCAP_NOINPUT_NOOUTPUT\000"
 12647      4C455F47 
 12647      41505F49 
 12647      4F434150 
 12647      5F4E4F49 
 12648              	.LASF680:
 12649 543c 43595F42 		.ascii	"CY_BLE_GATT_ERR_ANCS_UNKNOWN_COMMAND\000"
 12649      4C455F47 
 12649      4154545F 
 12649      4552525F 
 12649      414E4353 
 12650              	.LASF184:
 12651 5461 64774368 		.ascii	"dwChOffset\000"
 12651      4F666673 
 12651      657400
 12652              	.LASF172:
 12653 546c 70726F74 		.ascii	"protBusMasterMask\000"
 12653      4275734D 
 12653      61737465 
 12653      724D6173 
 12653      6B00
ARM GAS  C:\Users\D4DE~1\AppData\Local\Temp\cccuUyWy.s 			page 310


 12654              	.LASF348:
 12655 547e 63707573 		.ascii	"cpuss_interrupt_crypto_IRQn\000"
 12655      735F696E 
 12655      74657272 
 12655      7570745F 
 12655      63727970 
 12656              	.LASF546:
 12657 549a 43595F42 		.ascii	"CY_BLE_ERROR_NO_CONNECTION\000"
 12657      4C455F45 
 12657      52524F52 
 12657      5F4E4F5F 
 12657      434F4E4E 
 12658              	.LASF807:
 12659 54b5 70726566 		.ascii	"prefConnParamCharHandle\000"
 12659      436F6E6E 
 12659      50617261 
 12659      6D436861 
 12659      7248616E 
 12660              	.LASF659:
 12661 54cd 43595F42 		.ascii	"CY_BLE_GATT_ERR_ATTRIBUTE_NOT_FOUND\000"
 12661      4C455F47 
 12661      4154545F 
 12661      4552525F 
 12661      41545452 
 12662              	.LASF202:
 12663 54f1 6770696F 		.ascii	"gpioPrtIntrCfgOffset\000"
 12663      50727449 
 12663      6E747243 
 12663      66674F66 
 12663      66736574 
 12664              	.LASF452:
 12665 5506 43595F42 		.ascii	"CY_BLE_EVT_LL_CNTRL_PROC_PENDING_COMPLETE\000"
 12665      4C455F45 
 12665      56545F4C 
 12665      4C5F434E 
 12665      54524C5F 
 12666              	.LASF965:
 12667 5530 43595F42 		.ascii	"CY_BLE_EVT_CGMSS_NOTIFICATION_DISABLED\000"
 12667      4C455F45 
 12667      56545F43 
 12667      474D5353 
 12667      5F4E4F54 
 12668              	.LASF977:
 12669 5557 43595F42 		.ascii	"CY_BLE_EVT_CPSS_INDICATION_CONFIRMED\000"
 12669      4C455F45 
 12669      56545F43 
 12669      5053535F 
 12669      494E4449 
 12670              	.LASF190:
 12671 557c 70657269 		.ascii	"periTrCmdOffset\000"
 12671      5472436D 
 12671      644F6666 
 12671      73657400 
 12672              	.LASF1193:
 12673 558c 73657276 		.ascii	"serviceEventHandler\000"
 12673      69636545 
 12673      76656E74 
ARM GAS  C:\Users\D4DE~1\AppData\Local\Temp\cccuUyWy.s 			page 311


 12673      48616E64 
 12673      6C657200 
 12674              	.LASF152:
 12675 55a0 6873696F 		.ascii	"hsiomVersion\000"
 12675      6D566572 
 12675      73696F6E 
 12675      00
 12676              	.LASF382:
 12677 55ad 74637077 		.ascii	"tcpwm_1_interrupts_20_IRQn\000"
 12677      6D5F315F 
 12677      696E7465 
 12677      72727570 
 12677      74735F32 
 12678              	.LASF882:
 12679 55c8 70614361 		.ascii	"paCalConfig\000"
 12679      6C436F6E 
 12679      66696700 
 12680              	.LASF780:
 12681 55d4 7363616E 		.ascii	"scanRspDataLen\000"
 12681      52737044 
 12681      6174614C 
 12681      656E00
 12682              	.LASF914:
 12683 55e3 43595F42 		.ascii	"CY_BLE_EVT_AIOSC_WRITE_CHAR_RESPONSE\000"
 12683      4C455F45 
 12683      56545F41 
 12683      494F5343 
 12683      5F575249 
 12684              	.LASF70:
 12685 5608 43505553 		.ascii	"CPUSS_TRIM_RAM_CTL_LP\000"
 12685      535F5452 
 12685      494D5F52 
 12685      414D5F43 
 12685      544C5F4C 
 12686              	.LASF399:
 12687 561e 7564625F 		.ascii	"udb_interrupts_13_IRQn\000"
 12687      696E7465 
 12687      72727570 
 12687      74735F31 
 12687      335F4952 
 12688              	.LASF566:
 12689 5635 43595F42 		.ascii	"CY_BLE_ERROR_CONTROLLER_BUSY\000"
 12689      4C455F45 
 12689      52524F52 
 12689      5F434F4E 
 12689      54524F4C 
 12690              	.LASF1255:
 12691 5652 43795F42 		.ascii	"Cy_BLE_GATTS_ExchangeMtuRsp\000"
 12691      4C455F47 
 12691      41545453 
 12691      5F457863 
 12691      68616E67 
 12692              	.LASF785:
 12693 566e 63795F73 		.ascii	"cy_stc_ble_gapp_disc_mode_info_t\000"
 12693      74635F62 
 12693      6C655F67 
 12693      6170705F 
ARM GAS  C:\Users\D4DE~1\AppData\Local\Temp\cccuUyWy.s 			page 312


 12693      64697363 
 12694              	.LASF1198:
 12695 568f 43795F42 		.ascii	"Cy_BLE_SetConnectionState\000"
 12695      4C455F53 
 12695      6574436F 
 12695      6E6E6563 
 12695      74696F6E 
 12696              	.LASF859:
 12697 56a9 626F756E 		.ascii	"boundedDevCount\000"
 12697      64656444 
 12697      6576436F 
 12697      756E7400 
 12698              	.LASF615:
 12699 56b9 72656173 		.ascii	"reasonCode\000"
 12699      6F6E436F 
 12699      646500
 12700              	.LASF163:
 12701 56c4 73727373 		.ascii	"srssNumClkpath\000"
 12701      4E756D43 
 12701      6C6B7061 
 12701      746800
 12702              	.LASF816:
 12703 56d3 736C6F77 		.ascii	"slowAdvIntervalMax\000"
 12703      41647649 
 12703      6E746572 
 12703      76616C4D 
 12703      617800
 12704              	.LASF179:
 12705 56e6 666C6173 		.ascii	"flashCtlMainWs0Freq\000"
 12705      6843746C 
 12705      4D61696E 
 12705      57733046 
 12705      72657100 
 12706              	.LASF873:
 12707 56fa 67617474 		.ascii	"gatts\000"
 12707      7300
 12708              	.LASF618:
 12709 5700 63795F73 		.ascii	"cy_stc_ble_timeout_param_t\000"
 12709      74635F62 
 12709      6C655F74 
 12709      696D656F 
 12709      75745F70 
 12710              	.LASF330:
 12711 571b 63707573 		.ascii	"cpuss_interrupts_dw1_0_IRQn\000"
 12711      735F696E 
 12711      74657272 
 12711      75707473 
 12711      5F647731 
 12712              	.LASF496:
 12713 5737 43595F42 		.ascii	"CY_BLE_EVT_GAP_GEN_SET_LOCAL_P256_KEYS_COMPLETE\000"
 12713      4C455F45 
 12713      56545F47 
 12713      41505F47 
 12713      454E5F53 
 12714              	.LASF534:
 12715 5767 43595F42 		.ascii	"CY_BLE_EVT_L2CAP_CBFC_RX_CREDIT_IND\000"
 12715      4C455F45 
ARM GAS  C:\Users\D4DE~1\AppData\Local\Temp\cccuUyWy.s 			page 313


 12715      56545F4C 
 12715      32434150 
 12715      5F434246 
 12716              	.LASF778:
 12717 578b 63795F73 		.ascii	"cy_stc_ble_gapp_disc_data_t\000"
 12717      74635F62 
 12717      6C655F67 
 12717      6170705F 
 12717      64697363 
 12718              	.LASF460:
 12719 57a7 43595F42 		.ascii	"CY_BLE_EVT_SET_CLK_CONFIG_COMPLETE\000"
 12719      4C455F45 
 12719      56545F53 
 12719      45545F43 
 12719      4C4B5F43 
 12720              	.LASF85:
 12721 57ca 5055424C 		.ascii	"PUBLIC_KEY\000"
 12721      49435F4B 
 12721      455900
 12722              	.LASF533:
 12723 57d5 43595F42 		.ascii	"CY_BLE_EVT_L2CAP_CBFC_DATA_READ\000"
 12723      4C455F45 
 12723      56545F4C 
 12723      32434150 
 12723      5F434246 
 12724              	.LASF932:
 12725 57f5 43595F42 		.ascii	"CY_BLE_EVT_ANSC_READ_DESCR_RESPONSE\000"
 12725      4C455F45 
 12725      56545F41 
 12725      4E53435F 
 12725      52454144 
 12726              	.LASF1037:
 12727 5819 43595F42 		.ascii	"CY_BLE_EVT_HIDSS_BOOT_MODE_ENTER\000"
 12727      4C455F45 
 12727      56545F48 
 12727      49445353 
 12727      5F424F4F 
 12728              	.LASF1094:
 12729 583a 43595F42 		.ascii	"CY_BLE_EVT_LNSS_WRITE_CHAR\000"
 12729      4C455F45 
 12729      56545F4C 
 12729      4E53535F 
 12729      57524954 
 12730              	.LASF1166:
 12731 5855 43595F42 		.ascii	"CY_BLE_EVT_WPTSS_INDICATION_CONFIRMED\000"
 12731      4C455F45 
 12731      56545F57 
 12731      50545353 
 12731      5F494E44 
 12732              	.LASF375:
 12733 587b 74637077 		.ascii	"tcpwm_1_interrupts_13_IRQn\000"
 12733      6D5F315F 
 12733      696E7465 
 12733      72727570 
 12733      74735F31 
 12734              	.LASF462:
 12735 5896 43595F42 		.ascii	"CY_BLE_EVT_AES_ENCRYPT_COMPLETE\000"
ARM GAS  C:\Users\D4DE~1\AppData\Local\Temp\cccuUyWy.s 			page 314


 12735      4C455F45 
 12735      56545F41 
 12735      45535F45 
 12735      4E435259 
 12736              	.LASF1098:
 12737 58b6 43595F42 		.ascii	"CY_BLE_EVT_LNSC_WRITE_CHAR_RESPONSE\000"
 12737      4C455F45 
 12737      56545F4C 
 12737      4E53435F 
 12737      57524954 
 12738              	.LASF413:
 12739 58da 53464C41 		.ascii	"SFLASH_Type\000"
 12739      53485F54 
 12739      79706500 
 12740              	.LASF856:
 12741 58e6 73746163 		.ascii	"stackFlashptr\000"
 12741      6B466C61 
 12741      73687074 
 12741      7200
 12742              	.LASF776:
 12743 58f4 61647644 		.ascii	"advData\000"
 12743      61746100 
 12744              	.LASF1188:
 12745 58fc 43595F42 		.ascii	"CY_BLE_EVT_GATTC_DISC_INCL\000"
 12745      4C455F45 
 12745      56545F47 
 12745      41545443 
 12745      5F444953 
 12746              	.LASF656:
 12747 5917 43595F42 		.ascii	"CY_BLE_GATT_ERR_INVALID_OFFSET\000"
 12747      4C455F47 
 12747      4154545F 
 12747      4552525F 
 12747      494E5641 
 12748              	.LASF772:
 12749 5936 64697265 		.ascii	"directAddr\000"
 12749      63744164 
 12749      647200
 12750              	.LASF1119:
 12751 5941 43595F42 		.ascii	"CY_BLE_EVT_PLXSC_READ_DESCR_RESPONSE\000"
 12751      4C455F45 
 12751      56545F50 
 12751      4C585343 
 12751      5F524541 
 12752              	.LASF724:
 12753 5966 43595F42 		.ascii	"CY_BLE_GAP_AUTH_ERROR_NUMERIC_COMPARISON_FAILED\000"
 12753      4C455F47 
 12753      41505F41 
 12753      5554485F 
 12753      4552524F 
 12754              	.LASF7:
 12755 5996 73686F72 		.ascii	"short int\000"
 12755      7420696E 
 12755      7400
 12756              	.LASF304:
 12757 59a0 63707573 		.ascii	"cpuss_interrupts_ipc_15_IRQn\000"
 12757      735F696E 
ARM GAS  C:\Users\D4DE~1\AppData\Local\Temp\cccuUyWy.s 			page 315


 12757      74657272 
 12757      75707473 
 12757      5F697063 
 12758              	.LASF921:
 12759 59bd 43595F42 		.ascii	"CY_BLE_EVT_ANCSC_NOTIFICATION\000"
 12759      4C455F45 
 12759      56545F41 
 12759      4E435343 
 12759      5F4E4F54 
 12760              	.LASF1234:
 12761 59db 63795F62 		.ascii	"cy_ble_devConnRole\000"
 12761      6C655F64 
 12761      6576436F 
 12761      6E6E526F 
 12761      6C6500
 12762              	.LASF895:
 12763 59ee 43595F42 		.ascii	"CY_BLE_EVT_GATTC_DESCR_DISCOVERY_FAILED\000"
 12763      4C455F45 
 12763      56545F47 
 12763      41545443 
 12763      5F444553 
 12764              	.LASF44:
 12765 5a16 4C444F5F 		.ascii	"LDO_1P1V_TRIM\000"
 12765      31503156 
 12765      5F545249 
 12765      4D00
 12766              	.LASF242:
 12767 5a24 4E766963 		.ascii	"NvicMux12_IRQn\000"
 12767      4D757831 
 12767      325F4952 
 12767      516E00
 12768              	.LASF986:
 12769 5a33 43595F42 		.ascii	"CY_BLE_EVT_CPSC_WRITE_DESCR_RESPONSE\000"
 12769      4C455F45 
 12769      56545F43 
 12769      5053435F 
 12769      57524954 
 12770              	.LASF20:
 12771 5a58 52455345 		.ascii	"RESERVED\000"
 12771      52564544 
 12771      00
 12772              	.LASF1068:
 12773 5a61 43595F42 		.ascii	"CY_BLE_EVT_HTSS_WRITE_CHAR\000"
 12773      4C455F45 
 12773      56545F48 
 12773      5453535F 
 12773      57524954 
 12774              	.LASF627:
 12775 5a7c 43595F42 		.ascii	"CY_BLE_GATT_READ_BY_TYPE_RSP\000"
 12775      4C455F47 
 12775      4154545F 
 12775      52454144 
 12775      5F42595F 
 12776              	.LASF1076:
 12777 5a99 43595F42 		.ascii	"CY_BLE_EVT_IPSS_READ_CHAR\000"
 12777      4C455F45 
 12777      56545F49 
ARM GAS  C:\Users\D4DE~1\AppData\Local\Temp\cccuUyWy.s 			page 316


 12777      5053535F 
 12777      52454144 
 12778              	.LASF541:
 12779 5ab3 43595F42 		.ascii	"CY_BLE_ERROR_INVALID_PARAMETER\000"
 12779      4C455F45 
 12779      52524F52 
 12779      5F494E56 
 12779      414C4944 
 12780              	.LASF1087:
 12781 5ad2 43595F42 		.ascii	"CY_BLE_EVT_LLSC_READ_CHAR_RESPONSE\000"
 12781      4C455F45 
 12781      56545F4C 
 12781      4C53435F 
 12781      52454144 
 12782              	.LASF315:
 12783 5af5 63707573 		.ascii	"cpuss_interrupts_dw0_1_IRQn\000"
 12783      735F696E 
 12783      74657272 
 12783      75707473 
 12783      5F647730 
 12784              	.LASF711:
 12785 5b11 63795F65 		.ascii	"cy_en_ble_gap_iocap_t\000"
 12785      6E5F626C 
 12785      655F6761 
 12785      705F696F 
 12785      6361705F 
 12786              	.LASF727:
 12787 5b27 43595F42 		.ascii	"CY_BLE_GAP_AUTH_ERROR_AUTHENTICATION_TIMEOUT\000"
 12787      4C455F47 
 12787      41505F41 
 12787      5554485F 
 12787      4552524F 
 12788              	.LASF1104:
 12789 5b54 43595F42 		.ascii	"CY_BLE_EVT_PASSS_WRITE_CHAR\000"
 12789      4C455F45 
 12789      56545F50 
 12789      41535353 
 12789      5F575249 
 12790              	.LASF1121:
 12791 5b70 43595F42 		.ascii	"CY_BLE_EVT_PLXSC_TIMEOUT\000"
 12791      4C455F45 
 12791      56545F50 
 12791      4C585343 
 12791      5F54494D 
 12792              	.LASF881:
 12793 5b89 626C6573 		.ascii	"blessIsrConfig\000"
 12793      73497372 
 12793      436F6E66 
 12793      696700
 12794              	.LASF115:
 12795 5b98 544F4332 		.ascii	"TOC2_SECOND_USER_APP_FORMAT\000"
 12795      5F534543 
 12795      4F4E445F 
 12795      55534552 
 12795      5F415050 
 12796              	.LASF145:
 12797 5bb4 69706342 		.ascii	"ipcBase\000"
ARM GAS  C:\Users\D4DE~1\AppData\Local\Temp\cccuUyWy.s 			page 317


 12797      61736500 
 12798              	.LASF562:
 12799 5bbc 43595F42 		.ascii	"CY_BLE_ERROR_GATT_DB_INVALID_ATTR_HANDLE\000"
 12799      4C455F45 
 12799      52524F52 
 12799      5F474154 
 12799      545F4442 
 12800              	.LASF575:
 12801 5be5 6C6F6275 		.ascii	"lobuffLimit\000"
 12801      66664C69 
 12801      6D697400 
 12802              	.LASF55:
 12803 5bf1 5354414E 		.ascii	"STANDARD_SMPU_STRUCT_MASTER_ATTR\000"
 12803      44415244 
 12803      5F534D50 
 12803      555F5354 
 12803      52554354 
 12804              	.LASF660:
 12805 5c12 43595F42 		.ascii	"CY_BLE_GATT_ERR_ATTRIBUTE_NOT_LONG\000"
 12805      4C455F47 
 12805      4154545F 
 12805      4552525F 
 12805      41545452 
 12806              	.LASF52:
 12807 5c35 4D415354 		.ascii	"MASTER_KEY\000"
 12807      45525F4B 
 12807      455900
 12808              	.LASF865:
 12809 5c40 73696C69 		.ascii	"siliconDeviceAddressEnabled\000"
 12809      636F6E44 
 12809      65766963 
 12809      65416464 
 12809      72657373 
 12810              	.LASF201:
 12811 5c5c 70657269 		.ascii	"periDiv24_5CtlOffset\000"
 12811      44697632 
 12811      345F3543 
 12811      746C4F66 
 12811      66736574 
 12812              	.LASF800:
 12813 5c71 43595F42 		.ascii	"CY_BLE_CONN_STATE_CLIENT_CHAR_DISCOVERING\000"
 12813      4C455F43 
 12813      4F4E4E5F 
 12813      53544154 
 12813      455F434C 
 12814              	.LASF347:
 12815 5c9b 63707573 		.ascii	"cpuss_interrupts_fault_1_IRQn\000"
 12815      735F696E 
 12815      74657272 
 12815      75707473 
 12815      5F666175 
 12816              	.LASF1086:
 12817 5cb9 43595F42 		.ascii	"CY_BLE_EVT_LLSS_WRITE_CHAR_REQ\000"
 12817      4C455F45 
 12817      56545F4C 
 12817      4C53535F 
 12817      57524954 
ARM GAS  C:\Users\D4DE~1\AppData\Local\Temp\cccuUyWy.s 			page 318


 12818              	.LASF290:
 12819 5cd8 63707573 		.ascii	"cpuss_interrupts_ipc_1_IRQn\000"
 12819      735F696E 
 12819      74657272 
 12819      75707473 
 12819      5F697063 
 12820              	.LASF688:
 12821 5cf4 63795F62 		.ascii	"cy_ble_gatt_db_attr_handle_t\000"
 12821      6C655F67 
 12821      6174745F 
 12821      64625F61 
 12821      7474725F 
 12822              	.LASF349:
 12823 5d11 63707573 		.ascii	"cpuss_interrupt_fm_IRQn\000"
 12823      735F696E 
 12823      74657272 
 12823      7570745F 
 12823      666D5F49 
 12824              	.LASF630:
 12825 5d29 43595F42 		.ascii	"CY_BLE_GATT_READ_BLOB_REQ\000"
 12825      4C455F47 
 12825      4154545F 
 12825      52454144 
 12825      5F424C4F 
 12826              	.LASF666:
 12827 5d43 43595F42 		.ascii	"CY_BLE_GATT_ERR_INSUFFICIENT_RESOURCE\000"
 12827      4C455F47 
 12827      4154545F 
 12827      4552525F 
 12827      494E5355 
 12828              	.LASF396:
 12829 5d69 7564625F 		.ascii	"udb_interrupts_10_IRQn\000"
 12829      696E7465 
 12829      72727570 
 12829      74735F31 
 12829      305F4952 
 12830              	.LASF887:
 12831 5d80 43595F42 		.ascii	"CY_BLE_KEY_EXCHANGE_INFO_REQUEST_REPLY\000"
 12831      4C455F4B 
 12831      45595F45 
 12831      58434841 
 12831      4E47455F 
 12832              	.LASF122:
 12833 5da7 52544F43 		.ascii	"RTOC2_OBJECT_SIZE\000"
 12833      325F4F42 
 12833      4A454354 
 12833      5F53495A 
 12833      4500
 12834              	.LASF211:
 12835 5db9 63707573 		.ascii	"cpussCm4PwrCtlOffset\000"
 12835      73436D34 
 12835      50777243 
 12835      746C4F66 
 12835      66736574 
 12836              	.LASF1046:
 12837 5dce 43595F42 		.ascii	"CY_BLE_EVT_HIDSC_WRITE_DESCR_RESPONSE\000"
 12837      4C455F45 
ARM GAS  C:\Users\D4DE~1\AppData\Local\Temp\cccuUyWy.s 			page 319


 12837      56545F48 
 12837      49445343 
 12837      5F575249 
 12838              	.LASF176:
 12839 5df4 666C6173 		.ascii	"flashWriteDelay\000"
 12839      68577269 
 12839      74654465 
 12839      6C617900 
 12840              	.LASF476:
 12841 5e04 43595F42 		.ascii	"CY_BLE_EVT_GAP_PASSKEY_ENTRY_REQUEST\000"
 12841      4C455F45 
 12841      56545F47 
 12841      41505F50 
 12841      4153534B 
 12842              	.LASF409:
 12843 5e29 7573625F 		.ascii	"usb_interrupt_lo_IRQn\000"
 12843      696E7465 
 12843      72727570 
 12843      745F6C6F 
 12843      5F495251 
 12844              	.LASF10:
 12845 5e3f 6C6F6E67 		.ascii	"long int\000"
 12845      20696E74 
 12845      00
 12846              	.LASF815:
 12847 5e48 736C6F77 		.ascii	"slowAdvIntervalMin\000"
 12847      41647649 
 12847      6E746572 
 12847      76616C4D 
 12847      696E00
 12848              	.LASF532:
 12849 5e5b 43595F42 		.ascii	"CY_BLE_EVT_L2CAP_CBFC_DISCONN_CNF\000"
 12849      4C455F45 
 12849      56545F4C 
 12849      32434150 
 12849      5F434246 
 12850              	.LASF912:
 12851 5e7d 43595F42 		.ascii	"CY_BLE_EVT_AIOSC_INDICATION\000"
 12851      4C455F45 
 12851      56545F41 
 12851      494F5343 
 12851      5F494E44 
 12852              	.LASF472:
 12853 5e99 43595F42 		.ascii	"CY_BLE_EVT_SET_CONN_PRIORITY_COMPLETE\000"
 12853      4C455F45 
 12853      56545F53 
 12853      45545F43 
 12853      4F4E4E5F 
 12854              	.LASF784:
 12855 5ebf 61647654 		.ascii	"advTo\000"
 12855      6F00
 12856              	.LASF825:
 12857 5ec5 736C6F77 		.ascii	"slowScanTimeOut\000"
 12857      5363616E 
 12857      54696D65 
 12857      4F757400 
 12858              	.LASF161:
ARM GAS  C:\Users\D4DE~1\AppData\Local\Temp\cccuUyWy.s 			page 320


 12859 5ed5 63707573 		.ascii	"cpussFmIrq\000"
 12859      73466D49 
 12859      727100
 12860              	.LASF1229:
 12861 5ee0 63795F62 		.ascii	"cy_ble_state\000"
 12861      6C655F73 
 12861      74617465 
 12861      00
 12862              	.LASF599:
 12863 5eed 43595F42 		.ascii	"CY_BLE_PREPARED_WRITE_REQUEST\000"
 12863      4C455F50 
 12863      52455041 
 12863      5245445F 
 12863      57524954 
 12864              	.LASF574:
 12865 5f0b 74617267 		.ascii	"targetTable\000"
 12865      65745461 
 12865      626C6500 
 12866              	.LASF372:
 12867 5f17 74637077 		.ascii	"tcpwm_1_interrupts_10_IRQn\000"
 12867      6D5F315F 
 12867      696E7465 
 12867      72727570 
 12867      74735F31 
 12868              	.LASF968:
 12869 5f32 43595F42 		.ascii	"CY_BLE_EVT_CGMSC_NOTIFICATION\000"
 12869      4C455F45 
 12869      56545F43 
 12869      474D5343 
 12869      5F4E4F54 
 12870              	.LASF1113:
 12871 5f50 43595F42 		.ascii	"CY_BLE_EVT_PLXSS_NOTIFICATION_DISABLED\000"
 12871      4C455F45 
 12871      56545F50 
 12871      4C585353 
 12871      5F4E4F54 
 12872              	.LASF805:
 12873 5f77 64657669 		.ascii	"deviceNameCharHandle\000"
 12873      63654E61 
 12873      6D654368 
 12873      61724861 
 12873      6E646C65 
 12874              	.LASF271:
 12875 5f8c 696F7373 		.ascii	"ioss_interrupts_gpio_7_IRQn\000"
 12875      5F696E74 
 12875      65727275 
 12875      7074735F 
 12875      6770696F 
 12876              	.LASF1196:
 12877 5fa8 73746174 		.ascii	"state\000"
 12877      6500
 12878              	.LASF116:
 12879 5fae 544F4332 		.ascii	"TOC2_SHASH_OBJECTS\000"
 12879      5F534841 
 12879      53485F4F 
 12879      424A4543 
 12879      545300
ARM GAS  C:\Users\D4DE~1\AppData\Local\Temp\cccuUyWy.s 			page 321


 12880              	.LASF734:
 12881 5fc1 63795F65 		.ascii	"cy_en_ble_gap_adv_addr_type_t\000"
 12881      6E5F626C 
 12881      655F6761 
 12881      705F6164 
 12881      765F6164 
 12882              	.LASF221:
 12883 5fdf 69706353 		.ascii	"ipcStructSize\000"
 12883      74727563 
 12883      7453697A 
 12883      6500
 12884              	.LASF1246:
 12885 5fed 43795F42 		.ascii	"Cy_BLE_GATTS_ErrorRsp\000"
 12885      4C455F47 
 12885      41545453 
 12885      5F457272 
 12885      6F725273 
 12886              	.LASF1007:
 12887 6003 43595F42 		.ascii	"CY_BLE_EVT_CTSC_WRITE_DESCR_RESPONSE\000"
 12887      4C455F45 
 12887      56545F43 
 12887      5453435F 
 12887      57524954 
 12888              	.LASF301:
 12889 6028 63707573 		.ascii	"cpuss_interrupts_ipc_12_IRQn\000"
 12889      735F696E 
 12889      74657272 
 12889      75707473 
 12889      5F697063 
 12890              	.LASF804:
 12891 6045 73657276 		.ascii	"serviceHandle\000"
 12891      69636548 
 12891      616E646C 
 12891      6500
 12892              	.LASF798:
 12893 6053 43595F42 		.ascii	"CY_BLE_CONN_STATE_CLIENT_SRVC_DISCOVERING\000"
 12893      4C455F43 
 12893      4F4E4E5F 
 12893      53544154 
 12893      455F434C 
 12894              	.LASF371:
 12895 607d 74637077 		.ascii	"tcpwm_1_interrupts_9_IRQn\000"
 12895      6D5F315F 
 12895      696E7465 
 12895      72727570 
 12895      74735F39 
 12896              	.LASF1112:
 12897 6097 43595F42 		.ascii	"CY_BLE_EVT_PLXSS_NOTIFICATION_ENABLED\000"
 12897      4C455F45 
 12897      56545F50 
 12897      4C585353 
 12897      5F4E4F54 
 12898              	.LASF558:
 12899 60bd 43595F42 		.ascii	"CY_BLE_ERROR_FLASH_WRITE_NOT_PERMITED\000"
 12899      4C455F45 
 12899      52524F52 
 12899      5F464C41 
ARM GAS  C:\Users\D4DE~1\AppData\Local\Temp\cccuUyWy.s 			page 322


 12899      53485F57 
 12900              	.LASF1258:
 12901 60e3 43795F42 		.ascii	"Cy_BLE_ChangeAdDeviceAddress\000"
 12901      4C455F43 
 12901      68616E67 
 12901      65416444 
 12901      65766963 
 12902              	.LASF14:
 12903 6100 73697A65 		.ascii	"sizetype\000"
 12903      74797065 
 12903      00
 12904              	.LASF46:
 12905 6109 424C455F 		.ascii	"BLE_DEVICE_ADDRESS\000"
 12905      44455649 
 12905      43455F41 
 12905      44445245 
 12905      535300
 12906              	.LASF138:
 12907 611c 666C6173 		.ascii	"flashcBase\000"
 12907      68634261 
 12907      736500
 12908              	.LASF159:
 12909 6127 63707573 		.ascii	"cpussFlashPaSize\000"
 12909      73466C61 
 12909      73685061 
 12909      53697A65 
 12909      00
 12910              	.LASF576:
 12911 6138 63616C56 		.ascii	"calValLimit\000"
 12911      616C4C69 
 12911      6D697400 
 12912              	.LASF17:
 12913 6144 696E7431 		.ascii	"int16_t\000"
 12913      365F7400 
 12914              	.LASF1205:
 12915 614c 43795F42 		.ascii	"Cy_BLE_RegisterServiceEventHandler\000"
 12915      4C455F52 
 12915      65676973 
 12915      74657253 
 12915      65727669 
 12916              	.LASF827:
 12917 616f 67617063 		.ascii	"gapcConnectionIntervalMax\000"
 12917      436F6E6E 
 12917      65637469 
 12917      6F6E496E 
 12917      74657276 
 12918              	.LASF1225:
 12919 6189 6D747550 		.ascii	"mtuParam\000"
 12919      6172616D 
 12919      00
 12920              	.LASF327:
 12921 6192 63707573 		.ascii	"cpuss_interrupts_dw0_13_IRQn\000"
 12921      735F696E 
 12921      74657272 
 12921      75707473 
 12921      5F647730 
 12922              	.LASF538:
ARM GAS  C:\Users\D4DE~1\AppData\Local\Temp\cccuUyWy.s 			page 323


 12923 61af 63795F65 		.ascii	"cy_en_ble_event_t\000"
 12923      6E5F626C 
 12923      655F6576 
 12923      656E745F 
 12923      7400
 12924              	.LASF687:
 12925 61c1 63795F65 		.ascii	"cy_en_ble_gatt_err_code_t\000"
 12925      6E5F626C 
 12925      655F6761 
 12925      74745F65 
 12925      72725F63 
 12926              	.LASF1078:
 12927 61db 43595F42 		.ascii	"CY_BLE_EVT_IPSS_WRITE_CHAR_CMD\000"
 12927      4C455F45 
 12927      56545F49 
 12927      5053535F 
 12927      57524954 
 12928              	.LASF155:
 12929 61fa 70726F74 		.ascii	"protVersion\000"
 12929      56657273 
 12929      696F6E00 
 12930              	.LASF791:
 12931 6206 43595F42 		.ascii	"CY_BLE_ADV_STATE_ADV_INITIATED\000"
 12931      4C455F41 
 12931      44565F53 
 12931      54415445 
 12931      5F414456 
 12932              	.LASF505:
 12933 6225 43595F42 		.ascii	"CY_BLE_EVT_GATTC_XCHNG_MTU_RSP\000"
 12933      4C455F45 
 12933      56545F47 
 12933      41545443 
 12933      5F584348 
 12934              	.LASF1265:
 12935 6244 453A5C56 		.ascii	"E:\\VUB\\Software and Engineering for Embedded Syst"
 12935      55425C53 
 12935      6F667477 
 12935      61726520 
 12935      616E6420 
 12936 6275 656D735C 		.ascii	"ems\\Project\\Control_LED_BLE\\Design01.cydsn\000"
 12936      50726F6A 
 12936      6563745C 
 12936      436F6E74 
 12936      726F6C5F 
 12937              	.LASF797:
 12938 62a0 43595F42 		.ascii	"CY_BLE_CONN_STATE_CONNECTED\000"
 12938      4C455F43 
 12938      4F4E4E5F 
 12938      53544154 
 12938      455F434F 
 12939              	.LASF568:
 12940 62bc 43595F42 		.ascii	"CY_BLE_ERROR_MAX\000"
 12940      4C455F45 
 12940      52524F52 
 12940      5F4D4158 
 12940      00
 12941              	.LASF483:
ARM GAS  C:\Users\D4DE~1\AppData\Local\Temp\cccuUyWy.s 			page 324


 12942 62cd 43595F42 		.ascii	"CY_BLE_EVT_GAP_ENCRYPT_CHANGE\000"
 12942      4C455F45 
 12942      56545F47 
 12942      41505F45 
 12942      4E435259 
 12943              	.LASF608:
 12944 62eb 70777243 		.ascii	"pwrConfigParam\000"
 12944      6F6E6669 
 12944      67506172 
 12944      616D00
 12945              	.LASF24:
 12946 62fa 46414D49 		.ascii	"FAMILY_ID\000"
 12946      4C595F49 
 12946      4400
 12947              	.LASF359:
 12948 6304 74637077 		.ascii	"tcpwm_0_interrupts_5_IRQn\000"
 12948      6D5F305F 
 12948      696E7465 
 12948      72727570 
 12948      74735F35 
 12949              	.LASF99:
 12950 631e 52544F43 		.ascii	"RTOC1_MAGIC_NUMBER\000"
 12950      315F4D41 
 12950      4749435F 
 12950      4E554D42 
 12950      455200
 12951              	.LASF146:
 12952 6331 63727970 		.ascii	"cryptoBase\000"
 12952      746F4261 
 12952      736500
 12953              	.LASF100:
 12954 633c 52544F43 		.ascii	"RTOC1_FHASH_OBJECTS\000"
 12954      315F4648 
 12954      4153485F 
 12954      4F424A45 
 12954      43545300 
 12955              	.LASF539:
 12956 6350 43595F42 		.ascii	"CY_BLE_SUCCESS\000"
 12956      4C455F53 
 12956      55434345 
 12956      535300
 12957              	.LASF723:
 12958 635f 43595F42 		.ascii	"CY_BLE_GAP_AUTH_ERROR_DHKEY_CHECK_FAILED\000"
 12958      4C455F47 
 12958      41505F41 
 12958      5554485F 
 12958      4552524F 
 12959              	.LASF95:
 12960 6388 544F4331 		.ascii	"TOC1_OBJECT_ADDR_UNUSED\000"
 12960      5F4F424A 
 12960      4543545F 
 12960      41444452 
 12960      5F554E55 
 12961              	.LASF263:
 12962 63a0 4952516E 		.ascii	"IRQn_Type\000"
 12962      5F547970 
 12962      6500
ARM GAS  C:\Users\D4DE~1\AppData\Local\Temp\cccuUyWy.s 			page 325


 12963              	.LASF443:
 12964 63aa 43595F42 		.ascii	"CY_BLE_EVT_ADD_DEVICE_TO_RPA_LIST_COMPLETE\000"
 12964      4C455F45 
 12964      56545F41 
 12964      44445F44 
 12964      45564943 
 12965              	.LASF897:
 12966 63d5 43595F42 		.ascii	"CY_BLE_EVT_GATTC_CHAR_DUPLICATION\000"
 12966      4C455F45 
 12966      56545F47 
 12966      41545443 
 12966      5F434841 
 12967              	.LASF1124:
 12968 63f7 43595F42 		.ascii	"CY_BLE_EVT_RSCSS_INDICATION_ENABLED\000"
 12968      4C455F45 
 12968      56545F52 
 12968      53435353 
 12968      5F494E44 
 12969              	.LASF580:
 12970 641b 43595F42 		.ascii	"CY_BLE_LL_PWR_LVL_NEG_16_DBM\000"
 12970      4C455F4C 
 12970      4C5F5057 
 12970      525F4C56 
 12970      4C5F4E45 
 12971              	.LASF466:
 12972 6438 43595F42 		.ascii	"CY_BLE_EVT_STACK_SHUTDOWN_COMPLETE\000"
 12972      4C455F45 
 12972      56545F53 
 12972      5441434B 
 12972      5F534855 
 12973              	.LASF394:
 12974 645b 7564625F 		.ascii	"udb_interrupts_8_IRQn\000"
 12974      696E7465 
 12974      72727570 
 12974      74735F38 
 12974      5F495251 
 12975              	.LASF140:
 12976 6471 75646242 		.ascii	"udbBase\000"
 12976      61736500 
 12977              	.LASF222:
 12978 6479 6970634C 		.ascii	"ipcLockStatusOffset\000"
 12978      6F636B53 
 12978      74617475 
 12978      734F6666 
 12978      73657400 
 12979              	.LASF555:
 12980 648d 43595F42 		.ascii	"CY_BLE_ERROR_L2CAP_CONNECTION_ENTITY_NOT_FOUND\000"
 12980      4C455F45 
 12980      52524F52 
 12980      5F4C3243 
 12980      41505F43 
 12981              	.LASF1222:
 12982 64bc 74457650 		.ascii	"tEvParam\000"
 12982      6172616D 
 12982      00
 12983              	.LASF565:
 12984 64c5 43595F42 		.ascii	"CY_BLE_ERROR_CHAR_IS_NOT_DISCOVERED\000"
ARM GAS  C:\Users\D4DE~1\AppData\Local\Temp\cccuUyWy.s 			page 326


 12984      4C455F45 
 12984      52524F52 
 12984      5F434841 
 12984      525F4953 
 12985              	.LASF955:
 12986 64e9 43595F42 		.ascii	"CY_BLE_EVT_BLSC_READ_DESCR_RESPONSE\000"
 12986      4C455F45 
 12986      56545F42 
 12986      4C53435F 
 12986      52454144 
 12987              	.LASF486:
 12988 650d 43595F42 		.ascii	"CY_BLE_EVT_GAP_KEYINFO_EXCHNGE_CMPLT\000"
 12988      4C455F45 
 12988      56545F47 
 12988      41505F4B 
 12988      4559494E 
 12989              	.LASF101:
 12990 6532 52544F43 		.ascii	"RTOC1_GENERAL_TRIM_ADDR_UNUSED\000"
 12990      315F4745 
 12990      4E455241 
 12990      4C5F5452 
 12990      494D5F41 
 12991              	.LASF1013:
 12992 6551 43595F42 		.ascii	"CY_BLE_EVT_ESSS_INDICATION_DISABLED\000"
 12992      4C455F45 
 12992      56545F45 
 12992      5353535F 
 12992      494E4449 
 12993              	.LASF259:
 12994 6575 4E766963 		.ascii	"NvicMux29_IRQn\000"
 12994      4D757832 
 12994      395F4952 
 12994      516E00
 12995              	.LASF692:
 12996 6584 61747472 		.ascii	"attrHandle\000"
 12996      48616E64 
 12996      6C6500
 12997              	.LASF930:
 12998 658f 43595F42 		.ascii	"CY_BLE_EVT_ANSC_READ_CHAR_RESPONSE\000"
 12998      4C455F45 
 12998      56545F41 
 12998      4E53435F 
 12998      52454144 
 12999              	.LASF829:
 13000 65b2 67617063 		.ascii	"gapcConnectionTimeOut\000"
 13000      436F6E6E 
 13000      65637469 
 13000      6F6E5469 
 13000      6D654F75 
 13001              	.LASF345:
 13002 65c8 63707573 		.ascii	"cpuss_interrupts_dw1_15_IRQn\000"
 13002      735F696E 
 13002      74657272 
 13002      75707473 
 13002      5F647731 
 13003              	.LASF801:
 13004 65e5 43595F42 		.ascii	"CY_BLE_CONN_STATE_CLIENT_DESCR_DISCOVERING\000"
ARM GAS  C:\Users\D4DE~1\AppData\Local\Temp\cccuUyWy.s 			page 327


 13004      4C455F43 
 13004      4F4E4E5F 
 13004      53544154 
 13004      455F434C 
 13005              	.LASF298:
 13006 6610 63707573 		.ascii	"cpuss_interrupts_ipc_9_IRQn\000"
 13006      735F696E 
 13006      74657272 
 13006      75707473 
 13006      5F697063 
 13007              	.LASF268:
 13008 662c 696F7373 		.ascii	"ioss_interrupts_gpio_4_IRQn\000"
 13008      5F696E74 
 13008      65727275 
 13008      7074735F 
 13008      6770696F 
 13009              	.LASF1207:
 13010 6648 6576656E 		.ascii	"eventCode\000"
 13010      74436F64 
 13010      6500
 13011              	.LASF200:
 13012 6652 70657269 		.ascii	"periDiv16_5CtlOffset\000"
 13012      44697631 
 13012      365F3543 
 13012      746C4F66 
 13012      66736574 
 13013              	.LASF1107:
 13014 6667 43595F42 		.ascii	"CY_BLE_EVT_PASSC_READ_DESCR_RESPONSE\000"
 13014      4C455F45 
 13014      56545F50 
 13014      41535343 
 13014      5F524541 
 13015              	.LASF237:
 13016 668c 4E766963 		.ascii	"NvicMux7_IRQn\000"
 13016      4D757837 
 13016      5F495251 
 13016      6E00
 13017              	.LASF521:
 13018 669a 43595F42 		.ascii	"CY_BLE_EVT_GATTS_HANDLE_VALUE_CNF\000"
 13018      4C455F45 
 13018      56545F47 
 13018      41545453 
 13018      5F48414E 
 13019              	.LASF774:
 13020 66bc 61647646 		.ascii	"advFilterPolicy\000"
 13020      696C7465 
 13020      72506F6C 
 13020      69637900 
 13021              	.LASF708:
 13022 66cc 43595F42 		.ascii	"CY_BLE_GAP_IOCAP_KEYBOARD_ONLY\000"
 13022      4C455F47 
 13022      41505F49 
 13022      4F434150 
 13022      5F4B4559 
 13023              	.LASF127:
 13024 66eb 52544F43 		.ascii	"RTOC2_FIRST_USER_APP_FORMAT\000"
 13024      325F4649 
ARM GAS  C:\Users\D4DE~1\AppData\Local\Temp\cccuUyWy.s 			page 328


 13024      5253545F 
 13024      55534552 
 13024      5F415050 
 13025              	.LASF1195:
 13026 6707 63795F73 		.ascii	"cy_stc_ble_event_handler_t\000"
 13026      74635F62 
 13026      6C655F65 
 13026      76656E74 
 13026      5F68616E 
 13027              	.LASF639:
 13028 6722 43595F42 		.ascii	"CY_BLE_GATT_PREPARE_WRITE_REQ\000"
 13028      4C455F47 
 13028      4154545F 
 13028      50524550 
 13028      4152455F 
 13029              	.LASF1216:
 13030 6740 62644164 		.ascii	"bdAddrLoc\000"
 13030      64724C6F 
 13030      6300
 13031              	.LASF884:
 13032 674a 43595F42 		.ascii	"CY_BLE_AUTHENTICATION_REQUEST_REPLY\000"
 13032      4C455F41 
 13032      55544845 
 13032      4E544943 
 13032      4154494F 
 13033              	.LASF180:
 13034 676e 666C6173 		.ascii	"flashCtlMainWs1Freq\000"
 13034      6843746C 
 13034      4D61696E 
 13034      57733146 
 13034      72657100 
 13035              	.LASF368:
 13036 6782 74637077 		.ascii	"tcpwm_1_interrupts_6_IRQn\000"
 13036      6D5F315F 
 13036      696E7465 
 13036      72727570 
 13036      74735F36 
 13037              	.LASF36:
 13038 679c 4449455F 		.ascii	"DIE_YEAR\000"
 13038      59454152 
 13038      00
 13039              	.LASF1138:
 13040 67a5 43595F42 		.ascii	"CY_BLE_EVT_SCPSS_SCAN_INT_WIN_WRITE_CHAR\000"
 13040      4C455F45 
 13040      56545F53 
 13040      43505353 
 13040      5F534341 
 13041              	.LASF3:
 13042 67ce 7369676E 		.ascii	"signed char\000"
 13042      65642063 
 13042      68617200 
 13043              	.LASF418:
 13044 67da 636D3070 		.ascii	"cm0pSrc\000"
 13044      53726300 
 13045              	.LASF142:
 13046 67e2 6873696F 		.ascii	"hsiomBase\000"
 13046      6D426173 
ARM GAS  C:\Users\D4DE~1\AppData\Local\Temp\cccuUyWy.s 			page 329


 13046      6500
 13047              	.LASF588:
 13048 67ec 43595F42 		.ascii	"CY_BLE_LL_MAX_CH_TYPE\000"
 13048      4C455F4C 
 13048      4C5F4D41 
 13048      585F4348 
 13048      5F545950 
 13049              	.LASF673:
 13050 6802 43595F42 		.ascii	"CY_BLE_GATT_ERR_MISSING_CRC\000"
 13050      4C455F47 
 13050      4154545F 
 13050      4552525F 
 13050      4D495353 
 13051              	.LASF542:
 13052 681e 43595F42 		.ascii	"CY_BLE_ERROR_INVALID_OPERATION\000"
 13052      4C455F45 
 13052      52524F52 
 13052      5F494E56 
 13052      414C4944 
 13053              	.LASF1244:
 13054 683d 63795F62 		.ascii	"cy_ble_cmdStatus\000"
 13054      6C655F63 
 13054      6D645374 
 13054      61747573 
 13054      00
 13055              	.LASF926:
 13056 684e 43595F42 		.ascii	"CY_BLE_EVT_ANSS_NOTIFICATION_ENABLED\000"
 13056      4C455F45 
 13056      56545F41 
 13056      4E53535F 
 13056      4E4F5449 
 13057              	.LASF89:
 13058 6873 544F4331 		.ascii	"TOC1_MAGIC_NUMBER\000"
 13058      5F4D4147 
 13058      49435F4E 
 13058      554D4245 
 13058      5200
 13059              	.LASF646:
 13060 6885 43595F42 		.ascii	"CY_BLE_GATT_SIGNED_WRITE_CMD\000"
 13060      4C455F47 
 13060      4154545F 
 13060      5349474E 
 13060      45445F57 
 13061              	.LASF278:
 13062 68a2 696F7373 		.ascii	"ioss_interrupts_gpio_14_IRQn\000"
 13062      5F696E74 
 13062      65727275 
 13062      7074735F 
 13062      6770696F 
 13063              	.LASF216:
 13064 68bf 63707573 		.ascii	"cpussCm4NmiCtlOffset\000"
 13064      73436D34 
 13064      4E6D6943 
 13064      746C4F66 
 13064      66736574 
 13065              	.LASF107:
 13066 68d4 52544F43 		.ascii	"RTOC1_CRC_ADDR\000"
ARM GAS  C:\Users\D4DE~1\AppData\Local\Temp\cccuUyWy.s 			page 330


 13066      315F4352 
 13066      435F4144 
 13066      445200
 13067              	.LASF670:
 13068 68e3 43595F42 		.ascii	"CY_BLE_GATT_ERR_HTS_OUT_OF_RANGE\000"
 13068      4C455F47 
 13068      4154545F 
 13068      4552525F 
 13068      4854535F 
 13069              	.LASF1158:
 13070 6904 43595F42 		.ascii	"CY_BLE_EVT_UDSC_WRITE_CHAR_RESPONSE\000"
 13070      4C455F45 
 13070      56545F55 
 13070      4453435F 
 13070      57524954 
 13071              	.LASF1143:
 13072 6928 43595F42 		.ascii	"CY_BLE_EVT_TPSS_NOTIFICATION_DISABLED\000"
 13072      4C455F45 
 13072      56545F54 
 13072      5053535F 
 13072      4E4F5449 
 13073              	.LASF324:
 13074 694e 63707573 		.ascii	"cpuss_interrupts_dw0_10_IRQn\000"
 13074      735F696E 
 13074      74657272 
 13074      75707473 
 13074      5F647730 
 13075              	.LASF631:
 13076 696b 43595F42 		.ascii	"CY_BLE_GATT_READ_BLOB_RSP\000"
 13076      4C455F47 
 13076      4154545F 
 13076      52454144 
 13076      5F424C4F 
 13077              	.LASF210:
 13078 6985 63707573 		.ascii	"cpussCm0StatusOffset\000"
 13078      73436D30 
 13078      53746174 
 13078      75734F66 
 13078      66736574 
 13079              	.LASF657:
 13080 699a 43595F42 		.ascii	"CY_BLE_GATT_ERR_INSUFFICIENT_AUTHORIZATION\000"
 13080      4C455F47 
 13080      4154545F 
 13080      4552525F 
 13080      494E5355 
 13081              	.LASF693:
 13082 69c5 63795F73 		.ascii	"cy_stc_ble_gatt_handle_value_pair_t\000"
 13082      74635F62 
 13082      6C655F67 
 13082      6174745F 
 13082      68616E64 
 13083              	.LASF910:
 13084 69e9 43595F42 		.ascii	"CY_BLE_EVT_AIOSS_DESCR_WRITE\000"
 13084      4C455F45 
 13084      56545F41 
 13084      494F5353 
 13084      5F444553 
ARM GAS  C:\Users\D4DE~1\AppData\Local\Temp\cccuUyWy.s 			page 331


 13085              	.LASF814:
 13086 6a06 736C6F77 		.ascii	"slowAdvEnable\000"
 13086      41647645 
 13086      6E61626C 
 13086      6500
 13087              	.LASF1132:
 13088 6a14 43595F42 		.ascii	"CY_BLE_EVT_RSCSC_READ_DESCR_RESPONSE\000"
 13088      4C455F45 
 13088      56545F52 
 13088      53435343 
 13088      5F524541 
 13089              	.LASF1095:
 13090 6a39 43595F42 		.ascii	"CY_BLE_EVT_LNSC_INDICATION\000"
 13090      4C455F45 
 13090      56545F4C 
 13090      4E53435F 
 13090      494E4449 
 13091              	.LASF356:
 13092 6a54 74637077 		.ascii	"tcpwm_0_interrupts_2_IRQn\000"
 13092      6D5F305F 
 13092      696E7465 
 13092      72727570 
 13092      74735F32 
 13093              	.LASF519:
 13094 6a6e 43595F42 		.ascii	"CY_BLE_EVT_GATTC_HANDLE_VALUE_NTF\000"
 13094      4C455F45 
 13094      56545F47 
 13094      41545443 
 13094      5F48414E 
 13095              	.LASF1029:
 13096 6a90 43595F42 		.ascii	"CY_BLE_EVT_GLSC_INDICATION\000"
 13096      4C455F45 
 13096      56545F47 
 13096      4C53435F 
 13096      494E4449 
 13097              	.LASF405:
 13098 6aab 70726F66 		.ascii	"profile_interrupt_IRQn\000"
 13098      696C655F 
 13098      696E7465 
 13098      72727570 
 13098      745F4952 
 13099              	.LASF1005:
 13100 6ac2 43595F42 		.ascii	"CY_BLE_EVT_CTSC_READ_CHAR_RESPONSE\000"
 13100      4C455F45 
 13100      56545F43 
 13100      5453435F 
 13100      52454144 
 13101              	.LASF1127:
 13102 6ae5 43595F42 		.ascii	"CY_BLE_EVT_RSCSS_WRITE_CHAR\000"
 13102      4C455F45 
 13102      56545F52 
 13102      53435353 
 13102      5F575249 
 13103              	.LASF1073:
 13104 6b01 43595F42 		.ascii	"CY_BLE_EVT_HTSC_READ_DESCR_RESPONSE\000"
 13104      4C455F45 
 13104      56545F48 
ARM GAS  C:\Users\D4DE~1\AppData\Local\Temp\cccuUyWy.s 			page 332


 13104      5453435F 
 13104      52454144 
 13105              	.LASF464:
 13106 6b25 43595F42 		.ascii	"CY_BLE_EVT_AES_CCM_DECRYPT_COMPLETE\000"
 13106      4C455F45 
 13106      56545F41 
 13106      45535F43 
 13106      434D5F44 
 13107              	.LASF839:
 13108 6b49 63795F73 		.ascii	"cy_stc_ble_gatts_att_pack_val_len_t\000"
 13108      74635F62 
 13108      6C655F67 
 13108      61747473 
 13108      5F617474 
 13109              	.LASF896:
 13110 6b6d 43595F42 		.ascii	"CY_BLE_EVT_GATTC_SRVC_DUPLICATION\000"
 13110      4C455F45 
 13110      56545F47 
 13110      41545443 
 13110      5F535256 
 13111              	.LASF391:
 13112 6b8f 7564625F 		.ascii	"udb_interrupts_5_IRQn\000"
 13112      696E7465 
 13112      72727570 
 13112      74735F35 
 13112      5F495251 
 13113              	.LASF1264:
 13114 6ba5 47656E65 		.ascii	"Generated_Source\\PSoC6\\pdl\\middleware\\ble\\cy_b"
 13114      72617465 
 13114      645F536F 
 13114      75726365 
 13114      5C50536F 
 13115 6bd3 6C655F65 		.ascii	"le_event_handler.c\000"
 13115      76656E74 
 13115      5F68616E 
 13115      646C6572 
 13115      2E6300
 13116              	.LASF754:
 13117 6be6 7363616E 		.ascii	"scanType\000"
 13117      54797065 
 13117      00
 13118              	.LASF1041:
 13119 6bef 43595F42 		.ascii	"CY_BLE_EVT_HIDSS_REPORT_WRITE_CHAR\000"
 13119      4C455F45 
 13119      56545F48 
 13119      49445353 
 13119      5F524550 
 13120              	.LASF730:
 13121 6c12 43595F42 		.ascii	"CY_BLE_GAP_PUBLIC_ADDR_TYPE\000"
 13121      4C455F47 
 13121      41505F50 
 13121      55424C49 
 13121      435F4144 
 13122              	.LASF1137:
 13123 6c2e 43595F42 		.ascii	"CY_BLE_EVT_SCPSS_NOTIFICATION_DISABLED\000"
 13123      4C455F45 
 13123      56545F53 
ARM GAS  C:\Users\D4DE~1\AppData\Local\Temp\cccuUyWy.s 			page 333


 13123      43505353 
 13123      5F4E4F54 
 13124              	.LASF337:
 13125 6c55 63707573 		.ascii	"cpuss_interrupts_dw1_7_IRQn\000"
 13125      735F696E 
 13125      74657272 
 13125      75707473 
 13125      5F647731 
 13126              	.LASF455:
 13127 6c71 43595F42 		.ascii	"CY_BLE_EVT_GET_DEVICE_ADDR_COMPLETE\000"
 13127      4C455F45 
 13127      56545F47 
 13127      45545F44 
 13127      45564943 
 13128              	.LASF18:
 13129 6c95 75696E74 		.ascii	"uint16_t\000"
 13129      31365F74 
 13129      00
 13130              	.LASF177:
 13131 6c9e 666C6173 		.ascii	"flashProgramDelay\000"
 13131      6850726F 
 13131      6772616D 
 13131      44656C61 
 13131      7900
 13132              	.LASF1145:
 13133 6cb0 43595F42 		.ascii	"CY_BLE_EVT_TPSC_READ_CHAR_RESPONSE\000"
 13133      4C455F45 
 13133      56545F54 
 13133      5053435F 
 13133      52454144 
 13134              	.LASF556:
 13135 6cd3 43595F42 		.ascii	"CY_BLE_ERROR_L2CAP_PSM_NOT_IN_RANGE\000"
 13135      4C455F45 
 13135      52524F52 
 13135      5F4C3243 
 13135      41505F50 
 13136              	.LASF738:
 13137 6cf7 656B6579 		.ascii	"ekeySize\000"
 13137      53697A65 
 13137      00
 13138              	.LASF1142:
 13139 6d00 43595F42 		.ascii	"CY_BLE_EVT_TPSS_NOTIFICATION_ENABLED\000"
 13139      4C455F45 
 13139      56545F54 
 13139      5053535F 
 13139      4E4F5449 
 13140              	.LASF869:
 13141 6d25 67617070 		.ascii	"gappAdvParams\000"
 13141      41647650 
 13141      6172616D 
 13141      7300
 13142              	.LASF671:
 13143 6d33 43595F42 		.ascii	"CY_BLE_GATTS_ERR_PROCEDURE_ALREADY_IN_PROGRESS\000"
 13143      4C455F47 
 13143      41545453 
 13143      5F455252 
 13143      5F50524F 
ARM GAS  C:\Users\D4DE~1\AppData\Local\Temp\cccuUyWy.s 			page 334


 13144              	.LASF1052:
 13145 6d62 43595F42 		.ascii	"CY_BLE_EVT_HPSC_READ_DESCR_RESPONSE\000"
 13145      4C455F45 
 13145      56545F48 
 13145      5053435F 
 13145      52454144 
 13146              	.LASF13:
 13147 6d86 6C6F6E67 		.ascii	"long long unsigned int\000"
 13147      206C6F6E 
 13147      6720756E 
 13147      7369676E 
 13147      65642069 
 13148              	.LASF256:
 13149 6d9d 4E766963 		.ascii	"NvicMux26_IRQn\000"
 13149      4D757832 
 13149      365F4952 
 13149      516E00
 13150              	.LASF1010:
 13151 6dac 43595F42 		.ascii	"CY_BLE_EVT_ESSS_NOTIFICATION_ENABLED\000"
 13151      4C455F45 
 13151      56545F45 
 13151      5353535F 
 13151      4E4F5449 
 13152              	.LASF886:
 13153 6dd1 43595F42 		.ascii	"CY_BLE_LONG_TERM_KEY_REQUEST_REPLY\000"
 13153      4C455F4C 
 13153      4F4E475F 
 13153      5445524D 
 13153      5F4B4559 
 13154              	.LASF465:
 13155 6df4 43595F42 		.ascii	"CY_BLE_EVT_SET_SLAVE_LATENCY_MODE_COMPLETE\000"
 13155      4C455F45 
 13155      56545F53 
 13155      45545F53 
 13155      4C415645 
 13156              	.LASF419:
 13157 6e1f 696E7472 		.ascii	"intrPriority\000"
 13157      5072696F 
 13157      72697479 
 13157      00
 13158              	.LASF342:
 13159 6e2c 63707573 		.ascii	"cpuss_interrupts_dw1_12_IRQn\000"
 13159      735F696E 
 13159      74657272 
 13159      75707473 
 13159      5F647731 
 13160              	.LASF964:
 13161 6e49 43595F42 		.ascii	"CY_BLE_EVT_CGMSS_NOTIFICATION_ENABLED\000"
 13161      4C455F45 
 13161      56545F43 
 13161      474D5353 
 13161      5F4E4F54 
 13162              	.LASF1130:
 13163 6e6f 43595F42 		.ascii	"CY_BLE_EVT_RSCSC_READ_CHAR_RESPONSE\000"
 13163      4C455F45 
 13163      56545F52 
 13163      53435343 
ARM GAS  C:\Users\D4DE~1\AppData\Local\Temp\cccuUyWy.s 			page 335


 13163      5F524541 
 13164              	.LASF295:
 13165 6e93 63707573 		.ascii	"cpuss_interrupts_ipc_6_IRQn\000"
 13165      735F696E 
 13165      74657272 
 13165      75707473 
 13165      5F697063 
 13166              	.LASF265:
 13167 6eaf 696F7373 		.ascii	"ioss_interrupts_gpio_1_IRQn\000"
 13167      5F696E74 
 13167      65727275 
 13167      7074735F 
 13167      6770696F 
 13168              	.LASF638:
 13169 6ecb 43595F42 		.ascii	"CY_BLE_GATT_WRITE_CMD\000"
 13169      4C455F47 
 13169      4154545F 
 13169      57524954 
 13169      455F434D 
 13170              	.LASF851:
 13171 6ee1 63795F73 		.ascii	"cy_stc_ble_gatts_t\000"
 13171      74635F62 
 13171      6C655F67 
 13171      61747473 
 13171      5F7400
 13172              	.LASF234:
 13173 6ef4 4E766963 		.ascii	"NvicMux4_IRQn\000"
 13173      4D757834 
 13173      5F495251 
 13173      6E00
 13174              	.LASF1120:
 13175 6f02 43595F42 		.ascii	"CY_BLE_EVT_PLXSC_WRITE_DESCR_RESPONSE\000"
 13175      4C455F45 
 13175      56545F50 
 13175      4C585343 
 13175      5F575249 
 13176              	.LASF193:
 13177 6f28 70657269 		.ascii	"periTrGrSize\000"
 13177      54724772 
 13177      53697A65 
 13177      00
 13178              	.LASF296:
 13179 6f35 63707573 		.ascii	"cpuss_interrupts_ipc_7_IRQn\000"
 13179      735F696E 
 13179      74657272 
 13179      75707473 
 13179      5F697063 
 13180              	.LASF105:
 13181 6f51 52544F43 		.ascii	"RTOC1_OBJECT_ADDR_UNUSED\000"
 13181      315F4F42 
 13181      4A454354 
 13181      5F414444 
 13181      525F554E 
 13182              	.LASF876:
 13183 6f6a 67617474 		.ascii	"gattDB\000"
 13183      444200
 13184              	.LASF929:
ARM GAS  C:\Users\D4DE~1\AppData\Local\Temp\cccuUyWy.s 			page 336


 13185 6f71 43595F42 		.ascii	"CY_BLE_EVT_ANSC_NOTIFICATION\000"
 13185      4C455F45 
 13185      56545F41 
 13185      4E53435F 
 13185      4E4F5449 
 13186              	.LASF793:
 13187 6f8e 43595F42 		.ascii	"CY_BLE_ADV_STATE_STOP_INITIATED\000"
 13187      4C455F41 
 13187      44565F53 
 13187      54415445 
 13187      5F53544F 
 13188              	.LASF918:
 13189 6fae 43595F42 		.ascii	"CY_BLE_EVT_ANCSS_NOTIFICATION_ENABLED\000"
 13189      4C455F45 
 13189      56545F41 
 13189      4E435353 
 13189      5F4E4F54 
 13190              	.LASF1252:
 13191 6fd4 43795F42 		.ascii	"Cy_BLE_SetTxPowerLevel\000"
 13191      4C455F53 
 13191      65745478 
 13191      506F7765 
 13191      724C6576 
 13192              	.LASF903:
 13193 6feb 43595F42 		.ascii	"CY_BLE_EVT_GATTC_DISCOVERY_COMPLETE\000"
 13193      4C455F45 
 13193      56545F47 
 13193      41545443 
 13193      5F444953 
 13194              	.LASF1092:
 13195 700f 43595F42 		.ascii	"CY_BLE_EVT_LNSS_NOTIFICATION_ENABLED\000"
 13195      4C455F45 
 13195      56545F4C 
 13195      4E53535F 
 13195      4E4F5449 
 13196              	.LASF365:
 13197 7034 74637077 		.ascii	"tcpwm_1_interrupts_3_IRQn\000"
 13197      6D5F315F 
 13197      696E7465 
 13197      72727570 
 13197      74735F33 
 13198              	.LASF249:
 13199 704e 4E766963 		.ascii	"NvicMux19_IRQn\000"
 13199      4D757831 
 13199      395F4952 
 13199      516E00
 13200              	.LASF169:
 13201 705d 65704D6F 		.ascii	"epMonitorNr\000"
 13201      6E69746F 
 13201      724E7200 
 13202              	.LASF170:
 13203 7069 75646250 		.ascii	"udbPresent\000"
 13203      72657365 
 13203      6E7400
 13204              	.LASF280:
 13205 7074 696F7373 		.ascii	"ioss_interrupt_vdd_IRQn\000"
 13205      5F696E74 
ARM GAS  C:\Users\D4DE~1\AppData\Local\Temp\cccuUyWy.s 			page 337


 13205      65727275 
 13205      70745F76 
 13205      64645F49 
 13206              	.LASF846:
 13207 708c 61747445 		.ascii	"attEndHandle\000"
 13207      6E644861 
 13207      6E646C65 
 13207      00
 13208              	.LASF275:
 13209 7099 696F7373 		.ascii	"ioss_interrupts_gpio_11_IRQn\000"
 13209      5F696E74 
 13209      65727275 
 13209      7074735F 
 13209      6770696F 
 13210              	.LASF191:
 13211 70b6 70657269 		.ascii	"periTrCmdGrSelMsk\000"
 13211      5472436D 
 13211      64477253 
 13211      656C4D73 
 13211      6B00
 13212              	.LASF712:
 13213 70c8 43595F42 		.ascii	"CY_BLE_GAP_AUTH_ERROR_NONE\000"
 13213      4C455F47 
 13213      41505F41 
 13213      5554485F 
 13213      4552524F 
 13214              	.LASF826:
 13215 70e3 67617063 		.ascii	"gapcConnectionIntervalMin\000"
 13215      436F6E6E 
 13215      65637469 
 13215      6F6E496E 
 13215      74657276 
 13216              	.LASF322:
 13217 70fd 63707573 		.ascii	"cpuss_interrupts_dw0_8_IRQn\000"
 13217      735F696E 
 13217      74657272 
 13217      75707473 
 13217      5F647730 
 13218              	.LASF93:
 13219 7119 544F4331 		.ascii	"TOC1_FB_OBJECT_ADDR\000"
 13219      5F46425F 
 13219      4F424A45 
 13219      43545F41 
 13219      44445200 
 13220              	.LASF1057:
 13221 712d 43595F42 		.ascii	"CY_BLE_EVT_HRSS_NOTIFICATION_DISABLED\000"
 13221      4C455F45 
 13221      56545F48 
 13221      5253535F 
 13221      4E4F5449 
 13222              	.LASF1175:
 13223 7153 43595F42 		.ascii	"CY_BLE_EVT_WSSS_INDICATION_DISABLED\000"
 13223      4C455F45 
 13223      56545F57 
 13223      5353535F 
 13223      494E4449 
 13224              	.LASF840:
ARM GAS  C:\Users\D4DE~1\AppData\Local\Temp\cccuUyWy.s 			page 338


 13225 7177 61747446 		.ascii	"attFormatValue\000"
 13225      6F726D61 
 13225      7456616C 
 13225      756500
 13226              	.LASF1259:
 13227 7186 43795F42 		.ascii	"Cy_BLE_GAP_SetIoCap\000"
 13227      4C455F47 
 13227      41505F53 
 13227      6574496F 
 13227      43617000 
 13228              	.LASF129:
 13229 719a 52544F43 		.ascii	"RTOC2_SECOND_USER_APP_FORMAT\000"
 13229      325F5345 
 13229      434F4E44 
 13229      5F555345 
 13229      525F4150 
 13230              	.LASF166:
 13231 71b7 70657269 		.ascii	"periClockNr\000"
 13231      436C6F63 
 13231      6B4E7200 
 13232              	.LASF641:
 13233 71c3 43595F42 		.ascii	"CY_BLE_GATT_EXECUTE_WRITE_REQ\000"
 13233      4C455F47 
 13233      4154545F 
 13233      45584543 
 13233      5554455F 
 13234              	.LASF1051:
 13235 71e1 43595F42 		.ascii	"CY_BLE_EVT_HPSC_READ_CHAR_RESPONSE\000"
 13235      4C455F45 
 13235      56545F48 
 13235      5053435F 
 13235      52454144 
 13236              	.LASF669:
 13237 7204 43595F42 		.ascii	"CY_BLE_GATT_ERR_CPS_INAPPROPRIATE_CONNECTION_PARAME"
 13237      4C455F47 
 13237      4154545F 
 13237      4552525F 
 13237      4350535F 
 13238 7237 54455253 		.ascii	"TERS\000"
 13238      00
 13239              	.LASF978:
 13240 723c 43595F42 		.ascii	"CY_BLE_EVT_CPSS_BROADCAST_ENABLED\000"
 13240      4C455F45 
 13240      56545F43 
 13240      5053535F 
 13240      42524F41 
 13241              	.LASF260:
 13242 725e 4E766963 		.ascii	"NvicMux30_IRQn\000"
 13242      4D757833 
 13242      305F4952 
 13242      516E00
 13243              	.LASF277:
 13244 726d 696F7373 		.ascii	"ioss_interrupts_gpio_13_IRQn\000"
 13244      5F696E74 
 13244      65727275 
 13244      7074735F 
 13244      6770696F 
ARM GAS  C:\Users\D4DE~1\AppData\Local\Temp\cccuUyWy.s 			page 339


 13245              	.LASF991:
 13246 728a 43595F42 		.ascii	"CY_BLE_EVT_CSCSS_INDICATION_ENABLED\000"
 13246      4C455F45 
 13246      56545F43 
 13246      53435353 
 13246      5F494E44 
 13247              	.LASF207:
 13248 72ae 63707573 		.ascii	"cpussCm0ClockCtlOffset\000"
 13248      73436D30 
 13248      436C6F63 
 13248      6B43746C 
 13248      4F666673 
 13249              	.LASF1134:
 13250 72c5 43595F42 		.ascii	"CY_BLE_EVT_RTUSS_WRITE_CHAR_CMD\000"
 13250      4C455F45 
 13250      56545F52 
 13250      54555353 
 13250      5F575249 
 13251              	.LASF601:
 13252 72e5 63795F65 		.ascii	"cy_en_ble_protocol_req_t\000"
 13252      6E5F626C 
 13252      655F7072 
 13252      6F746F63 
 13252      6F6C5F72 
 13253              	.LASF1077:
 13254 72fe 43595F42 		.ascii	"CY_BLE_EVT_IPSS_WRITE_CHAR\000"
 13254      4C455F45 
 13254      56545F49 
 13254      5053535F 
 13254      57524954 
 13255              	.LASF15:
 13256 7319 63686172 		.ascii	"char\000"
 13256      00
 13257              	.LASF731:
 13258 731e 43595F42 		.ascii	"CY_BLE_GAP_RANDOM_RESOLVABLE_ADDR_TYPE\000"
 13258      4C455F47 
 13258      41505F52 
 13258      414E444F 
 13258      4D5F5245 
 13259              	.LASF75:
 13260 7345 43505553 		.ascii	"CPUSS_TRIM_RAM_CTL_HALF_LP\000"
 13260      535F5452 
 13260      494D5F52 
 13260      414D5F43 
 13260      544C5F48 
 13261              	.LASF1083:
 13262 7360 43595F42 		.ascii	"CY_BLE_EVT_IPSC_WRITE_DESCR_RESPONSE\000"
 13262      4C455F45 
 13262      56545F49 
 13262      5053435F 
 13262      57524954 
 13263              	.LASF388:
 13264 7385 7564625F 		.ascii	"udb_interrupts_2_IRQn\000"
 13264      696E7465 
 13264      72727570 
 13264      74735F32 
 13264      5F495251 
ARM GAS  C:\Users\D4DE~1\AppData\Local\Temp\cccuUyWy.s 			page 340


 13265              	.LASF957:
 13266 739b 43595F42 		.ascii	"CY_BLE_EVT_BMSS_WRITE_CHAR\000"
 13266      4C455F45 
 13266      56545F42 
 13266      4D53535F 
 13266      57524954 
 13267              	.LASF334:
 13268 73b6 63707573 		.ascii	"cpuss_interrupts_dw1_4_IRQn\000"
 13268      735F696E 
 13268      74657272 
 13268      75707473 
 13268      5F647731 
 13269              	.LASF1187:
 13270 73d2 43595F42 		.ascii	"CY_BLE_EVT_GATTC_DISC_SERVICE\000"
 13270      4C455F45 
 13270      56545F47 
 13270      41545443 
 13270      5F444953 
 13271              	.LASF461:
 13272 73f0 43595F42 		.ascii	"CY_BLE_EVT_RANDOM_NUM_GEN_COMPLETE\000"
 13272      4C455F45 
 13272      56545F52 
 13272      414E444F 
 13272      4D5F4E55 
 13273              	.LASF835:
 13274 7413 61747447 		.ascii	"attGenericVal\000"
 13274      656E6572 
 13274      69635661 
 13274      6C00
 13275              	.LASF1067:
 13276 7421 43595F42 		.ascii	"CY_BLE_EVT_HTSS_INDICATION_CONFIRMED\000"
 13276      4C455F45 
 13276      56545F48 
 13276      5453535F 
 13276      494E4449 
 13277              	.LASF133:
 13278 7446 52544F43 		.ascii	"RTOC2_REVISION\000"
 13278      325F5245 
 13278      56495349 
 13278      4F4E00
 13279              	.LASF488:
 13280 7455 43595F42 		.ascii	"CY_BLE_EVT_GAP_KEYPRESS_NOTIFICATION\000"
 13280      4C455F45 
 13280      56545F47 
 13280      41505F4B 
 13280      45595052 
 13281              	.LASF379:
 13282 747a 74637077 		.ascii	"tcpwm_1_interrupts_17_IRQn\000"
 13282      6D5F315F 
 13282      696E7465 
 13282      72727570 
 13282      74735F31 
 13283              	.LASF911:
 13284 7495 43595F42 		.ascii	"CY_BLE_EVT_AIOSC_NOTIFICATION\000"
 13284      4C455F45 
 13284      56545F41 
 13284      494F5343 
ARM GAS  C:\Users\D4DE~1\AppData\Local\Temp\cccuUyWy.s 			page 341


 13284      5F4E4F54 
 13285              	.LASF121:
 13286 74b3 544F4332 		.ascii	"TOC2_CRC_ADDR\000"
 13286      5F435243 
 13286      5F414444 
 13286      5200
 13287              	.LASF857:
 13288 74c1 61747456 		.ascii	"attValuesCCCDFlashMemory\000"
 13288      616C7565 
 13288      73434343 
 13288      44466C61 
 13288      73684D65 
 13289              	.LASF648:
 13290 74da 63795F65 		.ascii	"cy_en_ble_gatt_pdu_t\000"
 13290      6E5F626C 
 13290      655F6761 
 13290      74745F70 
 13290      64755F74 
 13291              	.LASF436:
 13292 74ef 43595F42 		.ascii	"CY_BLE_EVT_GET_DATA_LENGTH_COMPLETE\000"
 13292      4C455F45 
 13292      56545F47 
 13292      45545F44 
 13292      4154415F 
 13293              	.LASF983:
 13294 7513 43595F42 		.ascii	"CY_BLE_EVT_CPSC_READ_CHAR_RESPONSE\000"
 13294      4C455F45 
 13294      56545F43 
 13294      5053435F 
 13294      52454144 
 13295              	.LASF253:
 13296 7536 4E766963 		.ascii	"NvicMux23_IRQn\000"
 13296      4D757832 
 13296      335F4952 
 13296      516E00
 13297              	.LASF980:
 13298 7545 43595F42 		.ascii	"CY_BLE_EVT_CPSS_WRITE_CHAR\000"
 13298      4C455F45 
 13298      56545F43 
 13298      5053535F 
 13298      57524954 
 13299              	.LASF640:
 13300 7560 43595F42 		.ascii	"CY_BLE_GATT_PREPARE_WRITE_RSP\000"
 13300      4C455F47 
 13300      4154545F 
 13300      50524550 
 13300      4152455F 
 13301              	.LASF231:
 13302 757e 4E766963 		.ascii	"NvicMux1_IRQn\000"
 13302      4D757831 
 13302      5F495251 
 13302      6E00
 13303              	.LASF203:
 13304 758c 6770696F 		.ascii	"gpioPrtCfgOffset\000"
 13304      50727443 
 13304      66674F66 
 13304      66736574 
ARM GAS  C:\Users\D4DE~1\AppData\Local\Temp\cccuUyWy.s 			page 342


 13304      00
 13305              	.LASF862:
 13306 759d 7478506F 		.ascii	"txPowerLevelConn\000"
 13306      7765724C 
 13306      6576656C 
 13306      436F6E6E 
 13306      00
 13307              	.LASF124:
 13308 75ae 52544F43 		.ascii	"RTOC2_KEY_BLOCK_ADDR\000"
 13308      325F4B45 
 13308      595F424C 
 13308      4F434B5F 
 13308      41444452 
 13309              	.LASF746:
 13310 75c3 70656572 		.ascii	"peerBdAddrType\000"
 13310      42644164 
 13310      64725479 
 13310      706500
 13311              	.LASF777:
 13312 75d2 61647644 		.ascii	"advDataLen\000"
 13312      6174614C 
 13312      656E00
 13313              	.LASF292:
 13314 75dd 63707573 		.ascii	"cpuss_interrupts_ipc_3_IRQn\000"
 13314      735F696E 
 13314      74657272 
 13314      75707473 
 13314      5F697063 
 13315              	.LASF933:
 13316 75f9 43595F42 		.ascii	"CY_BLE_EVT_ANSC_WRITE_DESCR_RESPONSE\000"
 13316      4C455F45 
 13316      56545F41 
 13316      4E53435F 
 13316      57524954 
 13317              	.LASF867:
 13318 761e 63795F73 		.ascii	"cy_stc_ble_params_t\000"
 13318      74635F62 
 13318      6C655F70 
 13318      6172616D 
 13318      735F7400 
 13319              	.LASF475:
 13320 7632 43595F42 		.ascii	"CY_BLE_EVT_GAP_AUTH_REQ\000"
 13320      4C455F45 
 13320      56545F47 
 13320      41505F41 
 13320      5554485F 
 13321              	.LASF837:
 13322 764a 6D617841 		.ascii	"maxAttrLength\000"
 13322      7474724C 
 13322      656E6774 
 13322      6800
 13323              	.LASF109:
 13324 7658 544F4332 		.ascii	"TOC2_MAGIC_NUMBER\000"
 13324      5F4D4147 
 13324      49435F4E 
 13324      554D4245 
 13324      5200
ARM GAS  C:\Users\D4DE~1\AppData\Local\Temp\cccuUyWy.s 			page 343


 13325              	.LASF1118:
 13326 766a 43595F42 		.ascii	"CY_BLE_EVT_PLXSC_WRITE_CHAR_RESPONSE\000"
 13326      4C455F45 
 13326      56545F50 
 13326      4C585343 
 13326      5F575249 
 13327              	.LASF131:
 13328 768f 52544F43 		.ascii	"RTOC2_SIGNATURE_VERIF_KEY\000"
 13328      325F5349 
 13328      474E4154 
 13328      5552455F 
 13328      56455249 
 13329              	.LASF1176:
 13330 76a9 43595F42 		.ascii	"CY_BLE_EVT_WSSS_INDICATION_CONFIRMED\000"
 13330      4C455F45 
 13330      56545F57 
 13330      5353535F 
 13330      494E4449 
 13331              	.LASF1180:
 13332 76ce 43595F42 		.ascii	"CY_BLE_EVT_WSSC_WRITE_DESCR_RESPONSE\000"
 13332      4C455F45 
 13332      56545F57 
 13332      5353435F 
 13332      57524954 
 13333              	.LASF590:
 13334 76f3 64617461 		.ascii	"data\000"
 13334      00
 13335              	.LASF516:
 13336 76f8 43595F42 		.ascii	"CY_BLE_EVT_GATTS_PREP_WRITE_REQ\000"
 13336      4C455F45 
 13336      56545F47 
 13336      41545453 
 13336      5F505245 
 13337              	.LASF902:
 13338 7718 43595F42 		.ascii	"CY_BLE_EVT_GATTC_DISC_SKIPPED_SERVICE\000"
 13338      4C455F45 
 13338      56545F47 
 13338      41545443 
 13338      5F444953 
 13339              	.LASF362:
 13340 773e 74637077 		.ascii	"tcpwm_1_interrupts_0_IRQn\000"
 13340      6D5F315F 
 13340      696E7465 
 13340      72727570 
 13340      74735F30 
 13341              	.LASF224:
 13342 7758 52657365 		.ascii	"Reset_IRQn\000"
 13342      745F4952 
 13342      516E00
 13343              	.LASF246:
 13344 7763 4E766963 		.ascii	"NvicMux16_IRQn\000"
 13344      4D757831 
 13344      365F4952 
 13344      516E00
 13345              	.LASF1129:
 13346 7772 43595F42 		.ascii	"CY_BLE_EVT_RSCSC_INDICATION\000"
 13346      4C455F45 
ARM GAS  C:\Users\D4DE~1\AppData\Local\Temp\cccuUyWy.s 			page 344


 13346      56545F52 
 13346      53435343 
 13346      5F494E44 
 13347              	.LASF847:
 13348 778e 61747456 		.ascii	"attValue\000"
 13348      616C7565 
 13348      00
 13349              	.LASF755:
 13350 7797 7363616E 		.ascii	"scanIntv\000"
 13350      496E7476 
 13350      00
 13351              	.LASF591:
 13352 77a0 64617461 		.ascii	"dataLength\000"
 13352      4C656E67 
 13352      746800
 13353              	.LASF678:
 13354 77ab 43595F42 		.ascii	"CY_BLE_GATTS_ERR_NETWORK_NOT_AVAILABLE\000"
 13354      4C455F47 
 13354      41545453 
 13354      5F455252 
 13354      5F4E4554 
 13355              	.LASF1084:
 13356 77d2 43595F42 		.ascii	"CY_BLE_EVT_IPSC_ERROR_RESPONSE\000"
 13356      4C455F45 
 13356      56545F49 
 13356      5053435F 
 13356      4552524F 
 13357              	.LASF1223:
 13358 77f1 74636F6E 		.ascii	"tconnHandle\000"
 13358      6E48616E 
 13358      646C6500 
 13359              	.LASF319:
 13360 77fd 63707573 		.ascii	"cpuss_interrupts_dw0_5_IRQn\000"
 13360      735F696E 
 13360      74657272 
 13360      75707473 
 13360      5F647730 
 13361              	.LASF1027:
 13362 7819 43595F42 		.ascii	"CY_BLE_EVT_GLSS_NOTIFICATION_DISABLED\000"
 13362      4C455F45 
 13362      56545F47 
 13362      4C53535F 
 13362      4E4F5449 
 13363              	.LASF920:
 13364 783f 43595F42 		.ascii	"CY_BLE_EVT_ANCSS_WRITE_CHAR\000"
 13364      4C455F45 
 13364      56545F41 
 13364      4E435353 
 13364      5F575249 
 13365              	.LASF593:
 13366 785b 63795F73 		.ascii	"cy_stc_ble_hci_tx_packet_info_t\000"
 13366      74635F62 
 13366      6C655F68 
 13366      63695F74 
 13366      785F7061 
 13367              	.LASF905:
 13368 787b 43595F42 		.ascii	"CY_BLE_EVT_AIOSS_NOTIFICATION_DISABLED\000"
ARM GAS  C:\Users\D4DE~1\AppData\Local\Temp\cccuUyWy.s 			page 345


 13368      4C455F45 
 13368      56545F41 
 13368      494F5353 
 13368      5F4E4F54 
 13369              	.LASF26:
 13370 78a2 43505553 		.ascii	"CPUSS_WOUNDING\000"
 13370      535F574F 
 13370      554E4449 
 13370      4E4700
 13371              	.LASF111:
 13372 78b1 544F4332 		.ascii	"TOC2_SMIF_CFG_STRUCT_ADDR\000"
 13372      5F534D49 
 13372      465F4346 
 13372      475F5354 
 13372      52554354 
 13373              	.LASF482:
 13374 78cb 43595F42 		.ascii	"CY_BLE_EVT_GAP_DEVICE_DISCONNECTED\000"
 13374      4C455F45 
 13374      56545F47 
 13374      41505F44 
 13374      45564943 
 13375              	.LASF661:
 13376 78ee 43595F42 		.ascii	"CY_BLE_GATT_ERR_INSUFFICIENT_ENC_KEY_SIZE\000"
 13376      4C455F47 
 13376      4154545F 
 13376      4552525F 
 13376      494E5355 
 13377              	.LASF683:
 13378 7918 43595F42 		.ascii	"CY_BLE_GATT_ERR_ANCS_ACTION_FAILED\000"
 13378      4C455F47 
 13378      4154545F 
 13378      4552525F 
 13378      414E4353 
 13379              	.LASF721:
 13380 793b 43595F42 		.ascii	"CY_BLE_GAP_AUTH_ERROR_REPEATED_ATTEMPTS\000"
 13380      4C455F47 
 13380      41505F41 
 13380      5554485F 
 13380      4552524F 
 13381              	.LASF668:
 13382 7963 43595F42 		.ascii	"CY_BLE_GATT_ERR_USER_DATA_ACCESS_NOT_PERMITTED\000"
 13382      4C455F47 
 13382      4154545F 
 13382      4552525F 
 13382      55534552 
 13383              	.LASF112:
 13384 7992 544F4332 		.ascii	"TOC2_FIRST_USER_APP_ADDR\000"
 13384      5F464952 
 13384      53545F55 
 13384      5345525F 
 13384      4150505F 
 13385              	.LASF1011:
 13386 79ab 43595F42 		.ascii	"CY_BLE_EVT_ESSS_NOTIFICATION_DISABLED\000"
 13386      4C455F45 
 13386      56545F45 
 13386      5353535F 
 13386      4E4F5449 
ARM GAS  C:\Users\D4DE~1\AppData\Local\Temp\cccuUyWy.s 			page 346


 13387              	.LASF383:
 13388 79d1 74637077 		.ascii	"tcpwm_1_interrupts_21_IRQn\000"
 13388      6D5F315F 
 13388      696E7465 
 13388      72727570 
 13388      74735F32 
 13389              	.LASF160:
 13390 79ec 63707573 		.ascii	"cpussIpc0Irq\000"
 13390      73497063 
 13390      30497271 
 13390      00
 13391              	.LASF68:
 13392 79f9 43505553 		.ascii	"CPUSS_TRIM_RAM_CTL_ULP\000"
 13392      535F5452 
 13392      494D5F52 
 13392      414D5F43 
 13392      544C5F55 
 13393              	.LASF854:
 13394 7a10 63795F62 		.ascii	"cy_ble_callback_t\000"
 13394      6C655F63 
 13394      616C6C62 
 13394      61636B5F 
 13394      7400
 13395              	.LASF1238:
 13396 7a22 63795F62 		.ascii	"cy_ble_attValuesCccdMultiple\000"
 13396      6C655F61 
 13396      74745661 
 13396      6C756573 
 13396      43636364 
 13397              	.LASF431:
 13398 7a3f 43595F42 		.ascii	"CY_BLE_EVT_GET_CHANNEL_MAP_COMPLETE\000"
 13398      4C455F45 
 13398      56545F47 
 13398      45545F43 
 13398      48414E4E 
 13399              	.LASF400:
 13400 7a63 7564625F 		.ascii	"udb_interrupts_14_IRQn\000"
 13400      696E7465 
 13400      72727570 
 13400      74735F31 
 13400      345F4952 
 13401              	.LASF181:
 13402 7a7a 666C6173 		.ascii	"flashCtlMainWs2Freq\000"
 13402      6843746C 
 13402      4D61696E 
 13402      57733246 
 13402      72657100 
 13403              	.LASF423:
 13404 7a8e 43595F42 		.ascii	"CY_BLE_EVT_TIMEOUT\000"
 13404      4C455F45 
 13404      56545F54 
 13404      494D454F 
 13404      555400
 13405              	.LASF141:
 13406 7aa1 70726F74 		.ascii	"protBase\000"
 13406      42617365 
 13406      00
ARM GAS  C:\Users\D4DE~1\AppData\Local\Temp\cccuUyWy.s 			page 347


 13407              	.LASF786:
 13408 7aaa 43595F42 		.ascii	"CY_BLE_STATE_STOPPED\000"
 13408      4C455F53 
 13408      54415445 
 13408      5F53544F 
 13408      50504544 
 13409              	.LASF1245:
 13410 7abf 63795F62 		.ascii	"cy_ble_advertisingIntervalType\000"
 13410      6C655F61 
 13410      64766572 
 13410      74697369 
 13410      6E67496E 
 13411              	.LASF1219:
 13412 7ade 6D656D52 		.ascii	"memReq\000"
 13412      657100
 13413              	.LASF917:
 13414 7ae5 43595F42 		.ascii	"CY_BLE_EVT_AIOSC_ERROR_RESPONSE\000"
 13414      4C455F45 
 13414      56545F41 
 13414      494F5343 
 13414      5F455252 
 13415              	.LASF726:
 13416 7b05 43595F42 		.ascii	"CY_BLE_GAP_AUTH_ERROR_CROSS_TRANSPORT_KEY_GEN_DER_N"
 13416      4C455F47 
 13416      41505F41 
 13416      5554485F 
 13416      4552524F 
 13417 7b38 4F545F41 		.ascii	"OT_ALLOWED\000"
 13417      4C4C4F57 
 13417      454400
 13418              	.LASF795:
 13419 7b43 43595F42 		.ascii	"CY_BLE_CONN_STATE_DISCONNECTED\000"
 13419      4C455F43 
 13419      4F4E4E5F 
 13419      53544154 
 13419      455F4449 
 13420              	.LASF803:
 13421 7b62 63795F65 		.ascii	"cy_en_ble_conn_state_t\000"
 13421      6E5F626C 
 13421      655F636F 
 13421      6E6E5F73 
 13421      74617465 
 13422              	.LASF850:
 13423 7b79 63636364 		.ascii	"cccdHandle\000"
 13423      48616E64 
 13423      6C6500
 13424              	.LASF1178:
 13425 7b84 43595F42 		.ascii	"CY_BLE_EVT_WSSC_READ_CHAR_RESPONSE\000"
 13425      4C455F45 
 13425      56545F57 
 13425      5353435F 
 13425      52454144 
 13426              	.LASF1147:
 13427 7ba7 43595F42 		.ascii	"CY_BLE_EVT_TPSC_WRITE_DESCR_RESPONSE\000"
 13427      4C455F45 
 13427      56545F54 
 13427      5053435F 
ARM GAS  C:\Users\D4DE~1\AppData\Local\Temp\cccuUyWy.s 			page 348


 13427      57524954 
 13428              	.LASF1221:
 13429 7bcc 636F6E6E 		.ascii	"connectedHandle\000"
 13429      65637465 
 13429      6448616E 
 13429      646C6500 
 13430              	.LASF596:
 13431 7bdc 43595F42 		.ascii	"CY_BLE_GATT_RSP_TO\000"
 13431      4C455F47 
 13431      4154545F 
 13431      5253505F 
 13431      544F00
 13432              	.LASF223:
 13433 7bef 63795F73 		.ascii	"cy_stc_device_t\000"
 13433      74635F64 
 13433      65766963 
 13433      655F7400 
 13434              	.LASF672:
 13435 7bff 43595F42 		.ascii	"CY_BLE_GATT_ERR_OP_CODE_NOT_SUPPORTED\000"
 13435      4C455F47 
 13435      4154545F 
 13435      4552525F 
 13435      4F505F43 
 13436              	.LASF1022:
 13437 7c25 43595F42 		.ascii	"CY_BLE_EVT_ESSC_WRITE_DESCR_RESPONSE\000"
 13437      4C455F45 
 13437      56545F45 
 13437      5353435F 
 13437      57524954 
 13438              	.LASF102:
 13439 7c4a 52544F43 		.ascii	"RTOC1_UNIQUE_ID_ADDR\000"
 13439      315F554E 
 13439      49515545 
 13439      5F49445F 
 13439      41444452 
 13440              	.LASF667:
 13441 7c5f 43595F42 		.ascii	"CY_BLE_GATT_ERR_HEART_RATE_CONTROL_POINT_NOT_SUPPOR"
 13441      4C455F47 
 13441      4154545F 
 13441      4552525F 
 13441      48454152 
 13442 7c92 54454400 		.ascii	"TED\000"
 13443              	.LASF227:
 13444 7c96 53564361 		.ascii	"SVCall_IRQn\000"
 13444      6C6C5F49 
 13444      52516E00 
 13445              	.LASF864:
 13446 7ca2 73656375 		.ascii	"securityPairingMethod\000"
 13446      72697479 
 13446      50616972 
 13446      696E674D 
 13446      6574686F 
 13447              	.LASF697:
 13448 7cb8 6F70436F 		.ascii	"opCode\000"
 13448      646500
 13449              	.LASF376:
 13450 7cbf 74637077 		.ascii	"tcpwm_1_interrupts_14_IRQn\000"
ARM GAS  C:\Users\D4DE~1\AppData\Local\Temp\cccuUyWy.s 			page 349


 13450      6D5F315F 
 13450      696E7465 
 13450      72727570 
 13450      74735F31 
 13451              	.LASF972:
 13452 7cda 43595F42 		.ascii	"CY_BLE_EVT_CGMSC_WRITE_DESCR_RESPONSE\000"
 13452      4C455F45 
 13452      56545F43 
 13452      474D5343 
 13452      5F575249 
 13453              	.LASF942:
 13454 7d00 43595F42 		.ascii	"CY_BLE_EVT_BCSS_INDICATION_CONFIRMED\000"
 13454      4C455F45 
 13454      56545F42 
 13454      4353535F 
 13454      494E4449 
 13455              	.LASF1139:
 13456 7d25 43595F42 		.ascii	"CY_BLE_EVT_SCPSC_NOTIFICATION\000"
 13456      4C455F45 
 13456      56545F53 
 13456      43505343 
 13456      5F4E4F54 
 13457              	.LASF806:
 13458 7d43 61707065 		.ascii	"appearanceCharHandle\000"
 13458      6172616E 
 13458      63654368 
 13458      61724861 
 13458      6E646C65 
 13459              	.LASF1203:
 13460 7d58 61706952 		.ascii	"apiResult\000"
 13460      6573756C 
 13460      7400
 13461              	.LASF250:
 13462 7d62 4E766963 		.ascii	"NvicMux20_IRQn\000"
 13462      4D757832 
 13462      305F4952 
 13462      516E00
 13463              	.LASF1065:
 13464 7d71 43595F42 		.ascii	"CY_BLE_EVT_HTSS_INDICATION_ENABLED\000"
 13464      4C455F45 
 13464      56545F48 
 13464      5453535F 
 13464      494E4449 
 13465              	.LASF1242:
 13466 7d94 63795F62 		.ascii	"cy_ble_eventHandler\000"
 13466      6C655F65 
 13466      76656E74 
 13466      48616E64 
 13466      6C657200 
 13467              	.LASF1100:
 13468 7da8 43595F42 		.ascii	"CY_BLE_EVT_LNSC_WRITE_DESCR_RESPONSE\000"
 13468      4C455F45 
 13468      56545F4C 
 13468      4E53435F 
 13468      57524954 
 13469              	.LASF228:
 13470 7dcd 50656E64 		.ascii	"PendSV_IRQn\000"
ARM GAS  C:\Users\D4DE~1\AppData\Local\Temp\cccuUyWy.s 			page 350


 13470      53565F49 
 13470      52516E00 
 13471              	.LASF513:
 13472 7dd9 43595F42 		.ascii	"CY_BLE_EVT_GATTS_WRITE_REQ\000"
 13472      4C455F45 
 13472      56545F47 
 13472      41545453 
 13472      5F575249 
 13473              	.LASF427:
 13474 7df4 43595F42 		.ascii	"CY_BLE_EVT_FLASH_CORRUPT\000"
 13474      4C455F45 
 13474      56545F46 
 13474      4C415348 
 13474      5F434F52 
 13475              	.LASF924:
 13476 7e0d 43595F42 		.ascii	"CY_BLE_EVT_ANCSC_WRITE_DESCR_RESPONSE\000"
 13476      4C455F45 
 13476      56545F41 
 13476      4E435343 
 13476      5F575249 
 13477              	.LASF289:
 13478 7e33 63707573 		.ascii	"cpuss_interrupts_ipc_0_IRQn\000"
 13478      735F696E 
 13478      74657272 
 13478      75707473 
 13478      5F697063 
 13479              	.LASF923:
 13480 7e4f 43595F42 		.ascii	"CY_BLE_EVT_ANCSC_READ_DESCR_RESPONSE\000"
 13480      4C455F45 
 13480      56545F41 
 13480      4E435343 
 13480      5F524541 
 13481              	.LASF940:
 13482 7e74 43595F42 		.ascii	"CY_BLE_EVT_BCSS_INDICATION_ENABLED\000"
 13482      4C455F45 
 13482      56545F42 
 13482      4353535F 
 13482      494E4449 
 13483              	.LASF1183:
 13484 7e97 43595F42 		.ascii	"CY_BLE_EVT_BTSS_WRITE_REQ\000"
 13484      4C455F45 
 13484      56545F42 
 13484      5453535F 
 13484      57524954 
 13485              	.LASF996:
 13486 7eb1 43595F42 		.ascii	"CY_BLE_EVT_CSCSC_INDICATION\000"
 13486      4C455F45 
 13486      56545F43 
 13486      53435343 
 13486      5F494E44 
 13487              	.LASF67:
 13488 7ecd 43505553 		.ascii	"CPUSS_TRIM_ROM_CTL_ULP\000"
 13488      535F5452 
 13488      494D5F52 
 13488      4F4D5F43 
 13488      544C5F55 
 13489              	.LASF645:
ARM GAS  C:\Users\D4DE~1\AppData\Local\Temp\cccuUyWy.s 			page 351


 13490 7ee4 43595F42 		.ascii	"CY_BLE_GATT_HANDLE_VALUE_CNF\000"
 13490      4C455F47 
 13490      4154545F 
 13490      48414E44 
 13490      4C455F56 
 13491              	.LASF287:
 13492 7f01 70617373 		.ascii	"pass_interrupt_ctbs_IRQn\000"
 13492      5F696E74 
 13492      65727275 
 13492      70745F63 
 13492      7462735F 
 13493              	.LASF704:
 13494 7f1a 70726570 		.ascii	"prepareWriteQueueSize\000"
 13494      61726557 
 13494      72697465 
 13494      51756575 
 13494      6553697A 
 13495              	.LASF909:
 13496 7f30 43595F42 		.ascii	"CY_BLE_EVT_AIOSS_WRITE_CHAR\000"
 13496      4C455F45 
 13496      56545F41 
 13496      494F5353 
 13496      5F575249 
 13497              	.LASF598:
 13498 7f4c 63795F65 		.ascii	"cy_en_ble_to_reason_code_t\000"
 13498      6E5F626C 
 13498      655F746F 
 13498      5F726561 
 13498      736F6E5F 
 13499              	.LASF812:
 13500 7f67 66617374 		.ascii	"fastAdvIntervalMax\000"
 13500      41647649 
 13500      6E746572 
 13500      76616C4D 
 13500      617800
 13501              	.LASF833:
 13502 7f7a 63795F73 		.ascii	"cy_stc_ble_gatts_char_val_read_req_t\000"
 13502      74635F62 
 13502      6C655F67 
 13502      61747473 
 13502      5F636861 
 13503              	.LASF852:
 13504 7f9f 666C6F77 		.ascii	"flowState\000"
 13504      53746174 
 13504      6500
 13505              	.LASF243:
 13506 7fa9 4E766963 		.ascii	"NvicMux13_IRQn\000"
 13506      4D757831 
 13506      335F4952 
 13506      516E00
 13507              	.LASF1122:
 13508 7fb8 43595F42 		.ascii	"CY_BLE_EVT_RSCSS_NOTIFICATION_ENABLED\000"
 13508      4C455F45 
 13508      56545F52 
 13508      53435353 
 13508      5F4E4F54 
 13509              	.LASF1026:
ARM GAS  C:\Users\D4DE~1\AppData\Local\Temp\cccuUyWy.s 			page 352


 13510 7fde 43595F42 		.ascii	"CY_BLE_EVT_GLSS_NOTIFICATION_ENABLED\000"
 13510      4C455F45 
 13510      56545F47 
 13510      4C53535F 
 13510      4E4F5449 
 13511              	.LASF642:
 13512 8003 43595F42 		.ascii	"CY_BLE_GATT_EXECUTE_WRITE_RSP\000"
 13512      4C455F47 
 13512      4154545F 
 13512      45584543 
 13512      5554455F 
 13513              	.LASF204:
 13514 8021 6770696F 		.ascii	"gpioPrtCfgInOffset\000"
 13514      50727443 
 13514      6667496E 
 13514      4F666673 
 13514      657400
 13515              	.LASF64:
 13516 8034 5057525F 		.ascii	"PWR_TRIM_WAKE_CTL\000"
 13516      5452494D 
 13516      5F57414B 
 13516      455F4354 
 13516      4C00
 13517              	.LASF988:
 13518 8046 43595F42 		.ascii	"CY_BLE_EVT_CPSC_TIMEOUT\000"
 13518      4C455F45 
 13518      56545F43 
 13518      5053435F 
 13518      54494D45 
 13519              	.LASF1146:
 13520 805e 43595F42 		.ascii	"CY_BLE_EVT_TPSC_READ_DESCR_RESPONSE\000"
 13520      4C455F45 
 13520      56545F54 
 13520      5053435F 
 13520      52454144 
 13521              	.LASF531:
 13522 8082 43595F42 		.ascii	"CY_BLE_EVT_L2CAP_CBFC_DISCONN_IND\000"
 13522      4C455F45 
 13522      56545F4C 
 13522      32434150 
 13522      5F434246 
 13523              	.LASF84:
 13524 80a4 464C4153 		.ascii	"FLASH_BOOT_CODE\000"
 13524      485F424F 
 13524      4F545F43 
 13524      4F444500 
 13525              	.LASF454:
 13526 80b4 43595F42 		.ascii	"CY_BLE_EVT_SET_DEVICE_ADDR_COMPLETE\000"
 13526      4C455F45 
 13526      56545F53 
 13526      45545F44 
 13526      45564943 
 13527              	.LASF578:
 13528 80d8 63795F73 		.ascii	"cy_stc_ble_mxd_pa_cal_param_t\000"
 13528      74635F62 
 13528      6C655F6D 
 13528      78645F70 
ARM GAS  C:\Users\D4DE~1\AppData\Local\Temp\cccuUyWy.s 			page 353


 13528      615F6361 
 13529              	.LASF1002:
 13530 80f6 43595F42 		.ascii	"CY_BLE_EVT_CTSS_NOTIFICATION_DISABLED\000"
 13530      4C455F45 
 13530      56545F43 
 13530      5453535F 
 13530      4E4F5449 
 13531              	.LASF316:
 13532 811c 63707573 		.ascii	"cpuss_interrupts_dw0_2_IRQn\000"
 13532      735F696E 
 13532      74657272 
 13532      75707473 
 13532      5F647730 
 13533              	.LASF563:
 13534 8138 43595F42 		.ascii	"CY_BLE_ERROR_NTF_DISABLED\000"
 13534      4C455F45 
 13534      52524F52 
 13534      5F4E5446 
 13534      5F444953 
 13535              	.LASF114:
 13536 8152 544F4332 		.ascii	"TOC2_SECOND_USER_APP_ADDR\000"
 13536      5F534543 
 13536      4F4E445F 
 13536      55534552 
 13536      5F415050 
 13537              	.LASF0:
 13538 816c 756E7369 		.ascii	"unsigned int\000"
 13538      676E6564 
 13538      20696E74 
 13538      00
 13539              	.LASF616:
 13540 8179 43595F42 		.ascii	"CY_BLE_HANDLE\000"
 13540      4C455F48 
 13540      414E444C 
 13540      4500
 13541              	.LASF752:
 13542 8187 63795F73 		.ascii	"cy_stc_ble_gap_enhance_conn_complete_param_t\000"
 13542      74635F62 
 13542      6C655F67 
 13542      61705F65 
 13542      6E68616E 
 13543              	.LASF305:
 13544 81b4 7363625F 		.ascii	"scb_0_interrupt_IRQn\000"
 13544      305F696E 
 13544      74657272 
 13544      7570745F 
 13544      4952516E 
 13545              	.LASF675:
 13546 81c9 43595F42 		.ascii	"CY_BLE_GATTS_ERR_OPERATION_FAILED\000"
 13546      4C455F47 
 13546      41545453 
 13546      5F455252 
 13546      5F4F5045 
 13547              		.ident	"GCC: (GNU Tools for ARM Embedded Processors) 5.4.1 20160609 (release) [ARM/embedded-5-bran
